 dlltest

 Timestamp is 54dd86a9 (Fri Feb 13 00:07:53 2015)

 Preferred load address is 00400000

 Start         Length     Name                   Class
 0001:00000000 000127f6H .text                   CODE
 0001:000127f6 0000079aH .text$x                 CODE
 0001:00012f90 00000100H .text$yc                CODE
 0001:00013090 000000a7H .text$yd                CODE
 0002:00000000 00000510H .idata$5                DATA
 0002:00000510 00003268H .rdata                  DATA
 0002:00003778 00000066H .rdata$debug            DATA
 0002:000037e0 00001540H .rdata$r                DATA
 0002:00004d20 0000010cH .rdata$sxdata           DATA
 0002:00004e2c 00000004H .rtc$IAA                DATA
 0002:00004e30 00000004H .rtc$IZZ                DATA
 0002:00004e34 00000004H .rtc$TAA                DATA
 0002:00004e38 00000004H .rtc$TZZ                DATA
 0002:00004e3c 00000dd0H .xdata$x                DATA
 0002:00005c0c 00000028H .idata$2                DATA
 0002:00005c34 00000014H .idata$3                DATA
 0002:00005c48 00000510H .idata$4                DATA
 0002:00006158 00004f7eH .idata$6                DATA
 0002:0000b0e0 0000005aH .edata                  DATA
 0003:00000000 00000004H .CRT$XCA                DATA
 0003:00000004 00000004H .CRT$XCAA               DATA
 0003:00000008 0000002cH .CRT$XCC                DATA
 0003:00000034 00000004H .CRT$XCU                DATA
 0003:00000038 00000004H .CRT$XCZ                DATA
 0003:0000003c 00000004H .CRT$XIA                DATA
 0003:00000040 0000000cH .CRT$XIC                DATA
 0003:0000004c 00000004H .CRT$XIY                DATA
 0003:00000050 00000004H .CRT$XIZ                DATA
 0003:00000054 00000004H .CRT$XPA                DATA
 0003:00000058 00000004H .CRT$XPX                DATA
 0003:0000005c 00000004H .CRT$XPZ                DATA
 0003:00000060 00000004H .CRT$XTA                DATA
 0003:00000064 00000004H .CRT$XTB                DATA
 0003:00000068 00000004H .CRT$XTZ                DATA
 0003:00000070 000035f0H .data                   DATA
 0003:00003660 00001b08H .bss                    DATA

  Address         Publics by Value              Rva+Base     Lib:Object

 0000:00000000       __except_list              00000000     <absolute>
 0000:00000043       ___safe_se_handler_count   00000043     <absolute>
 0001:00000000       ?assign@?$char_traits@D@std@@SAXAADABD@Z 00401000 f i dlltest.obj
 0001:0000000d       ?length@?$char_traits@D@std@@SAIPBD@Z 0040100d f i dlltest.obj
 0001:00000012       ?copy@?$char_traits@D@std@@SAPADPADPBDI@Z 00401012 f i dlltest.obj
 0001:00000017       ?move@?$char_traits@D@std@@SAPADPADPBDI@Z 00401017 f i dlltest.obj
 0001:0000001c       ?to_int_type@?$char_traits@D@std@@SAHABD@Z 0040101c f i dlltest.obj
 0001:00000024       ?eq_int_type@?$char_traits@D@std@@SA_NABH0@Z 00401024 f i dlltest.obj
 0001:00000036       ?eof@?$char_traits@D@std@@SAHXZ 00401036 f i dlltest.obj
 0001:0000003a       ??1?$ClonableImpl@V?$BlockCipherFinal@$0A@VEnc@Rijndael@CryptoPP@@@CryptoPP@@VEnc@Rijndael@2@@CryptoPP@@UAE@XZ 0040103a f i dlltest.obj
 0001:00000040       ??1?$AlgorithmImpl@VECB_OneWay@CryptoPP@@V?$CipherModeFinalTemplate_CipherHolder@V?$BlockCipherFinal@$0A@VBase@DES_EDE3@CryptoPP@@@CryptoPP@@VECB_OneWay@2@@2@@CryptoPP@@UAE@XZ 00401040 f i dlltest.obj
 0001:00000046       ??1?$ClonableImpl@V?$BlockCipherFinal@$0A@VBase@DES_EDE3@CryptoPP@@@CryptoPP@@VBase@DES_EDE3@2@@CryptoPP@@UAE@XZ 00401046 f i dlltest.obj
 0001:0000004c       ??1?$CFB_RequireFullDataBlocks@V?$CFB_EncryptionTemplate@V?$AbstractPolicyHolder@VCFB_CipherAbstractPolicy@CryptoPP@@VCFB_ModePolicy@2@@CryptoPP@@@CryptoPP@@@CryptoPP@@UAE@XZ 0040104c f i dlltest.obj
 0001:00000052       ??1?$CFB_RequireFullDataBlocks@V?$CFB_DecryptionTemplate@V?$AbstractPolicyHolder@VCFB_CipherAbstractPolicy@CryptoPP@@VCFB_ModePolicy@2@@CryptoPP@@@CryptoPP@@@CryptoPP@@UAE@XZ 00401052 f i dlltest.obj
 0001:00000058       ??1?$DL_SignatureSchemeBase@VPK_Signer@CryptoPP@@V?$DL_PrivateKey@VInteger@CryptoPP@@@2@@CryptoPP@@UAE@XZ 00401058 f i dlltest.obj
 0001:00000059       ??1?$DL_SignatureSchemeBase@VPK_Verifier@CryptoPP@@V?$DL_PublicKey@VInteger@CryptoPP@@@2@@CryptoPP@@UAE@XZ 00401059 f i dlltest.obj
 0001:0000005a       _SetNewAndDeleteFromCryptoPP 0040105a f   dlltest.obj
 0001:0000006d       ??2@YAPAXI@Z               0040106d f   dlltest.obj
 0001:00000073       ??3@YAXPAX@Z               00401073 f   dlltest.obj
 0001:00000079       ?size@?$basic_string@DU?$char_traits@D@std@@V?$allocator@D@2@@std@@QBEIXZ 00401079 f i dlltest.obj
 0001:0000007d       ??0id@locale@std@@QAE@I@Z  0040107d f i dlltest.obj
 0001:00000088       ??6?$basic_ostream@DU?$char_traits@D@std@@@std@@QAEAAV01@P6AAAV01@AAV01@@Z@Z 00401088 f i dlltest.obj
 0001:00000091       ?rdbuf@?$basic_ios@DU?$char_traits@D@std@@@std@@QBEPAV?$basic_streambuf@DU?$char_traits@D@std@@@2@XZ 00401091 f i dlltest.obj
 0001:00000095       ??0?$SecBlock@EV?$AllocatorWithCleanup@E$0A@@CryptoPP@@@CryptoPP@@QAE@I@Z 00401095 f i dlltest.obj
 0001:000000b1       ??1?$SecBlock@EV?$AllocatorWithCleanup@E$0A@@CryptoPP@@@CryptoPP@@QAE@XZ 004010b1 f i dlltest.obj
 0001:000000be       ?New@?$SecBlock@EV?$AllocatorWithCleanup@E$0A@@CryptoPP@@@CryptoPP@@QAEXI@Z 004010be f i dlltest.obj
 0001:000000e0       ??0?$member_ptr@VAlgorithmParametersBase@CryptoPP@@@CryptoPP@@QAE@PAVAlgorithmParametersBase@1@@Z 004010e0 f i dlltest.obj
 0001:000000eb       ?release@?$member_ptr@VAlgorithmParametersBase@CryptoPP@@@CryptoPP@@QAEPAVAlgorithmParametersBase@2@XZ 004010eb f i dlltest.obj
 0001:000000f1       ?rdstate@ios_base@std@@QBEHXZ 004010f1 f i dlltest.obj
 0001:000000f5       ?good@ios_base@std@@QBE_NXZ 004010f5 f i dlltest.obj
 0001:000000fe       ?fail@ios_base@std@@QBE_NXZ 004010fe f i dlltest.obj
 0001:0000010a       ?flags@ios_base@std@@QBEHXZ 0040110a f i dlltest.obj
 0001:0000010e       ?width@ios_base@std@@QBEHXZ 0040110e f i dlltest.obj
 0001:00000112       ?width@ios_base@std@@QAEHH@Z 00401112 f i dlltest.obj
 0001:0000011f       ??0?$ClonableImpl@V?$BlockCipherFinal@$0A@VEnc@Rijndael@CryptoPP@@@CryptoPP@@VEnc@Rijndael@2@@CryptoPP@@QAE@XZ 0040111f f i dlltest.obj
 0001:0000012c       ??0?$AlgorithmImpl@VECB_OneWay@CryptoPP@@V?$CipherModeFinalTemplate_CipherHolder@V?$BlockCipherFinal@$0A@VBase@DES_EDE3@CryptoPP@@@CryptoPP@@VECB_OneWay@2@@2@@CryptoPP@@QAE@XZ 0040112c f i dlltest.obj
 0001:00000139       ??0?$CFB_RequireFullDataBlocks@V?$CFB_EncryptionTemplate@V?$AbstractPolicyHolder@VCFB_CipherAbstractPolicy@CryptoPP@@VCFB_ModePolicy@2@@CryptoPP@@@CryptoPP@@@CryptoPP@@QAE@XZ 00401139 f i dlltest.obj
 0001:0000015a       ?MandatoryBlockSize@?$CFB_RequireFullDataBlocks@V?$CFB_EncryptionTemplate@V?$AbstractPolicyHolder@VCFB_CipherAbstractPolicy@CryptoPP@@VCFB_ModePolicy@2@@CryptoPP@@@CryptoPP@@@CryptoPP@@UBEIXZ 0040115a f i dlltest.obj
 0001:0000015f       ??0?$CFB_RequireFullDataBlocks@V?$CFB_DecryptionTemplate@V?$AbstractPolicyHolder@VCFB_CipherAbstractPolicy@CryptoPP@@VCFB_ModePolicy@2@@CryptoPP@@@CryptoPP@@@CryptoPP@@QAE@XZ 0040115f f i dlltest.obj
 0001:00000180       ?MandatoryBlockSize@?$CFB_RequireFullDataBlocks@V?$CFB_DecryptionTemplate@V?$AbstractPolicyHolder@VCFB_CipherAbstractPolicy@CryptoPP@@VCFB_ModePolicy@2@@CryptoPP@@@CryptoPP@@@CryptoPP@@UBEIXZ 00401180 f i dlltest.obj
 0001:00000185       ??1ConstByteArrayParameter@CryptoPP@@QAE@XZ 00401185 f i dlltest.obj
 0001:00000195       ??1StringStore@CryptoPP@@UAE@XZ 00401195 f i dlltest.obj
 0001:0000019b       ??_E?$CFB_RequireFullDataBlocks@V?$CFB_EncryptionTemplate@V?$AbstractPolicyHolder@VCFB_CipherAbstractPolicy@CryptoPP@@VCFB_ModePolicy@2@@CryptoPP@@@CryptoPP@@@CryptoPP@@UAEPAXI@Z 0040119b f i dlltest.obj
 0001:0000019b       ??_G?$CFB_RequireFullDataBlocks@V?$CFB_EncryptionTemplate@V?$AbstractPolicyHolder@VCFB_CipherAbstractPolicy@CryptoPP@@VCFB_ModePolicy@2@@CryptoPP@@@CryptoPP@@@CryptoPP@@UAEPAXI@Z 0040119b f i dlltest.obj
 0001:000001b8       ??_E?$CFB_RequireFullDataBlocks@V?$CFB_DecryptionTemplate@V?$AbstractPolicyHolder@VCFB_CipherAbstractPolicy@CryptoPP@@VCFB_ModePolicy@2@@CryptoPP@@@CryptoPP@@@CryptoPP@@UAEPAXI@Z 004011b8 f i dlltest.obj
 0001:000001b8       ??_G?$CFB_RequireFullDataBlocks@V?$CFB_DecryptionTemplate@V?$AbstractPolicyHolder@VCFB_CipherAbstractPolicy@CryptoPP@@VCFB_ModePolicy@2@@CryptoPP@@@CryptoPP@@@CryptoPP@@UAEPAXI@Z 004011b8 f i dlltest.obj
 0001:000001d5       ??0?$DL_Base@V?$DL_PrivateKey@VInteger@CryptoPP@@@CryptoPP@@@CryptoPP@@QAE@XZ 004011d5 f i dlltest.obj
 0001:000001d8       ??0?$DL_Base@V?$DL_PublicKey@VInteger@CryptoPP@@@CryptoPP@@@CryptoPP@@QAE@XZ 004011d8 f i dlltest.obj
 0001:000001db       ?_Myptr@?$basic_string@DU?$char_traits@D@std@@V?$allocator@D@2@@std@@QAEPADXZ 004011db f i dlltest.obj
 0001:000001e9       ?_Myptr@?$basic_string@DU?$char_traits@D@std@@V?$allocator@D@2@@std@@QBEPBDXZ 004011e9 f i dlltest.obj
 0001:000001f7       ??0?$allocator@D@std@@QAE@XZ 004011f7 f i dlltest.obj
 0001:000001fa       ??0?$allocator@D@std@@QAE@ABV01@@Z 004011fa f i dlltest.obj
 0001:000001ff       ?clear@?$basic_ios@DU?$char_traits@D@std@@@std@@QAEXH_N@Z 004011ff f i dlltest.obj
 0001:00000219       ?pubsync@?$basic_streambuf@DU?$char_traits@D@std@@@std@@QAEHXZ 00401219 f i dlltest.obj
 0001:0000021e       ?_Unlock@?$basic_streambuf@DU?$char_traits@D@std@@@std@@QAEXXZ 0040121e f i dlltest.obj
 0001:00000226       ?pptr@?$basic_streambuf@DU?$char_traits@D@std@@@std@@IBEPADXZ 00401226 f i dlltest.obj
 0001:0000022c       ?epptr@?$basic_streambuf@DU?$char_traits@D@std@@@std@@IBEPADXZ 0040122c f i dlltest.obj
 0001:00000237       ?AccessKey@?$DL_ObjectImplBase@V?$DL_SignerBase@VInteger@CryptoPP@@@CryptoPP@@U?$DL_SignatureSchemeOptions@UDSA@CryptoPP@@UDL_Keys_DSA@2@V?$DL_Algorithm_GDSA@VInteger@CryptoPP@@@2@VDL_SignatureMessageEncodingMethod_DSA@2@VSHA1@2@@2@V?$DL_PrivateKey_WithSignaturePairwiseConsistencyTest@V?$DL_PrivateKey_GFP@VDL_GroupParameters_DSA@CryptoPP@@@CryptoPP@@UDSA@2@@2@@CryptoPP@@QAEAAV?$DL_PrivateKey_WithSignaturePairwiseConsistencyTest@V?$DL_PrivateKey_GFP@VDL_GroupParameters_DSA@CryptoPP@@@CryptoPP@@UDSA@2@@2@XZ 00401237 f i dlltest.obj
 0001:0000023b       ?AccessKey@?$DL_ObjectImplBase@V?$DL_VerifierBase@VInteger@CryptoPP@@@CryptoPP@@U?$DL_SignatureSchemeOptions@UDSA@CryptoPP@@UDL_Keys_DSA@2@V?$DL_Algorithm_GDSA@VInteger@CryptoPP@@@2@VDL_SignatureMessageEncodingMethod_DSA@2@VSHA1@2@@2@V?$DL_PublicKey_GFP@VDL_GroupParameters_DSA@CryptoPP@@@2@@CryptoPP@@QAEAAV?$DL_PublicKey_GFP@VDL_GroupParameters_DSA@CryptoPP@@@2@XZ 0040123b f i dlltest.obj
 0001:0000023f       ??Bsentry@?$basic_ostream@DU?$char_traits@D@std@@@std@@QBE_NXZ 0040123f f i dlltest.obj
 0001:00000243       ??0?$ClonableImpl@V?$BlockCipherFinal@$0A@VBase@DES_EDE3@CryptoPP@@@CryptoPP@@VBase@DES_EDE3@2@@CryptoPP@@QAE@XZ 00401243 f i dlltest.obj
 0001:00000250       ?_Eos@?$basic_string@DU?$char_traits@D@std@@V?$allocator@D@2@@std@@IAEXI@Z 00401250 f i dlltest.obj
 0001:0000026c       ?deallocate@?$allocator@D@std@@QAEXPADI@Z 0040126c f i dlltest.obj
 0001:0000027a       ?tie@?$basic_ios@DU?$char_traits@D@std@@@std@@QBEPAV?$basic_ostream@DU?$char_traits@D@std@@@2@XZ 0040127a f i dlltest.obj
 0001:0000027e       ?_Lock@?$basic_streambuf@DU?$char_traits@D@std@@@std@@QAEXXZ 0040127e f i dlltest.obj
 0001:00000286       ?_Pninc@?$basic_streambuf@DU?$char_traits@D@std@@@std@@IAEPADXZ 00401286 f i dlltest.obj
 0001:00000296       ??0_Sentry_base@?$basic_ostream@DU?$char_traits@D@std@@@std@@QAE@AAV12@@Z 00401296 f i dlltest.obj
 0001:000002ba       ??1_Sentry_base@?$basic_ostream@DU?$char_traits@D@std@@@std@@QAE@XZ 004012ba f i dlltest.obj
 0001:000002d2       ?_Inside@?$basic_string@DU?$char_traits@D@std@@V?$allocator@D@2@@std@@IAE_NPBD@Z 004012d2 f i dlltest.obj
 0001:00000306       ?max_size@?$allocator@D@std@@QBEIXZ 00401306 f i dlltest.obj
 0001:0000030a       ??1?$member_ptr@VAlgorithmParametersBase@CryptoPP@@@CryptoPP@@QAE@XZ 0040130a f i dlltest.obj
 0001:00000317       ?reset@?$member_ptr@VAlgorithmParametersBase@CryptoPP@@@CryptoPP@@QAEXPAVAlgorithmParametersBase@2@@Z 00401317 f i dlltest.obj
 0001:00000330       ??$_Allocate@D@std@@YGPADIPAD@Z 00401330 f i dlltest.obj
 0001:0000033e       ?fill@?$basic_ios@DU?$char_traits@D@std@@@std@@QBEDXZ 0040133e f i dlltest.obj
 0001:00000342       ?sputn@?$basic_streambuf@DU?$char_traits@D@std@@@std@@QAEHPBDH@Z 00401342 f i dlltest.obj
 0001:00000347       ??C?$member_ptr@VAlgorithmParametersBase@CryptoPP@@@CryptoPP@@QAEPAVAlgorithmParametersBase@1@XZ 00401347 f i dlltest.obj
 0001:0000034a       ??_E?$CFB_RequireFullDataBlocks@V?$CFB_EncryptionTemplate@V?$AbstractPolicyHolder@VCFB_CipherAbstractPolicy@CryptoPP@@VCFB_ModePolicy@2@@CryptoPP@@@CryptoPP@@@CryptoPP@@W3AEPAXI@Z 0040134a f i dlltest.obj
 0001:00000352       ??_E?$CFB_RequireFullDataBlocks@V?$CFB_EncryptionTemplate@V?$AbstractPolicyHolder@VCFB_CipherAbstractPolicy@CryptoPP@@VCFB_ModePolicy@2@@CryptoPP@@@CryptoPP@@@CryptoPP@@WBI@AEPAXI@Z 00401352 f i dlltest.obj
 0001:0000035a       ??_E?$CFB_RequireFullDataBlocks@V?$CFB_DecryptionTemplate@V?$AbstractPolicyHolder@VCFB_CipherAbstractPolicy@CryptoPP@@VCFB_ModePolicy@2@@CryptoPP@@@CryptoPP@@@CryptoPP@@W3AEPAXI@Z 0040135a f i dlltest.obj
 0001:00000362       ??_E?$CFB_RequireFullDataBlocks@V?$CFB_DecryptionTemplate@V?$AbstractPolicyHolder@VCFB_CipherAbstractPolicy@CryptoPP@@VCFB_ModePolicy@2@@CryptoPP@@@CryptoPP@@@CryptoPP@@WBI@AEPAXI@Z 00401362 f i dlltest.obj
 0001:0000036a       ??1?$BlockCipherFinal@$0A@VEnc@Rijndael@CryptoPP@@@CryptoPP@@UAE@XZ 0040136a f i dlltest.obj
 0001:00000370       ??1?$BlockCipherFinal@$0A@VBase@DES_EDE3@CryptoPP@@@CryptoPP@@UAE@XZ 00401370 f i dlltest.obj
 0001:00000376       ??1?$ConcretePolicyHolder@VEmpty@CryptoPP@@V?$CFB_RequireFullDataBlocks@V?$CFB_EncryptionTemplate@V?$AbstractPolicyHolder@VCFB_CipherAbstractPolicy@CryptoPP@@VCFB_ModePolicy@2@@CryptoPP@@@CryptoPP@@@2@VCFB_CipherAbstractPolicy@2@@CryptoPP@@UAE@XZ 00401376 f i dlltest.obj
 0001:0000037c       ??1?$ConcretePolicyHolder@VEmpty@CryptoPP@@V?$CFB_RequireFullDataBlocks@V?$CFB_DecryptionTemplate@V?$AbstractPolicyHolder@VCFB_CipherAbstractPolicy@CryptoPP@@VCFB_ModePolicy@2@@CryptoPP@@@CryptoPP@@@2@VCFB_CipherAbstractPolicy@2@@CryptoPP@@UAE@XZ 0040137c f i dlltest.obj
 0001:00000382       ??1?$DL_SignerBase@VInteger@CryptoPP@@@CryptoPP@@UAE@XZ 00401382 f i dlltest.obj
 0001:00000383       ??1?$DL_VerifierBase@VInteger@CryptoPP@@@CryptoPP@@UAE@XZ 00401383 f i dlltest.obj
 0001:00000384       ?c_str@?$basic_string@DU?$char_traits@D@std@@V?$allocator@D@2@@std@@QBEPBDXZ 00401384 f i dlltest.obj
 0001:00000392       ?setstate@?$basic_ios@DU?$char_traits@D@std@@@std@@QAEXH_N@Z 00401392 f i dlltest.obj
 0001:000003ad       ??0?$BlockCipherFinal@$0A@VEnc@Rijndael@CryptoPP@@@CryptoPP@@QAE@XZ 004013ad f i dlltest.obj
 0001:000003c7       ?IsForwardTransformation@?$BlockCipherFinal@$0A@VEnc@Rijndael@CryptoPP@@@CryptoPP@@UBE_NXZ 004013c7 f i dlltest.obj
 0001:000003ca       ??_E?$BlockCipherFinal@$0A@VEnc@Rijndael@CryptoPP@@@CryptoPP@@W3AEPAXI@Z 004013ca f i dlltest.obj
 0001:000003d2       ??_E?$BlockCipherFinal@$0A@VEnc@Rijndael@CryptoPP@@@CryptoPP@@UAEPAXI@Z 004013d2 f i dlltest.obj
 0001:000003d2       ??_G?$BlockCipherFinal@$0A@VEnc@Rijndael@CryptoPP@@@CryptoPP@@UAEPAXI@Z 004013d2 f i dlltest.obj
 0001:000003ef       ??0?$ConcretePolicyHolder@VEmpty@CryptoPP@@V?$CFB_RequireFullDataBlocks@V?$CFB_EncryptionTemplate@V?$AbstractPolicyHolder@VCFB_CipherAbstractPolicy@CryptoPP@@VCFB_ModePolicy@2@@CryptoPP@@@CryptoPP@@@2@VCFB_CipherAbstractPolicy@2@@CryptoPP@@QAE@XZ 004013ef f i dlltest.obj
 0001:0000040f       ?GetPolicy@?$ConcretePolicyHolder@VEmpty@CryptoPP@@V?$CFB_RequireFullDataBlocks@V?$CFB_EncryptionTemplate@V?$AbstractPolicyHolder@VCFB_CipherAbstractPolicy@CryptoPP@@VCFB_ModePolicy@2@@CryptoPP@@@CryptoPP@@@2@VCFB_CipherAbstractPolicy@2@@CryptoPP@@MBEABVCFB_CipherAbstractPolicy@2@XZ 0040140f f i dlltest.obj
 0001:0000041b       ?AccessPolicy@?$ConcretePolicyHolder@VEmpty@CryptoPP@@V?$CFB_RequireFullDataBlocks@V?$CFB_EncryptionTemplate@V?$AbstractPolicyHolder@VCFB_CipherAbstractPolicy@CryptoPP@@VCFB_ModePolicy@2@@CryptoPP@@@CryptoPP@@@2@VCFB_CipherAbstractPolicy@2@@CryptoPP@@MAEAAVCFB_CipherAbstractPolicy@2@XZ 0040141b f i dlltest.obj
 0001:00000427       ??_E?$ConcretePolicyHolder@VEmpty@CryptoPP@@V?$CFB_RequireFullDataBlocks@V?$CFB_EncryptionTemplate@V?$AbstractPolicyHolder@VCFB_CipherAbstractPolicy@CryptoPP@@VCFB_ModePolicy@2@@CryptoPP@@@CryptoPP@@@2@VCFB_CipherAbstractPolicy@2@@CryptoPP@@W3AEPAXI@Z 00401427 f i dlltest.obj
 0001:0000042f       ??_E?$ConcretePolicyHolder@VEmpty@CryptoPP@@V?$CFB_RequireFullDataBlocks@V?$CFB_EncryptionTemplate@V?$AbstractPolicyHolder@VCFB_CipherAbstractPolicy@CryptoPP@@VCFB_ModePolicy@2@@CryptoPP@@@CryptoPP@@@2@VCFB_CipherAbstractPolicy@2@@CryptoPP@@WBI@AEPAXI@Z 0040142f f i dlltest.obj
 0001:00000437       ??0?$ConcretePolicyHolder@VEmpty@CryptoPP@@V?$CFB_RequireFullDataBlocks@V?$CFB_DecryptionTemplate@V?$AbstractPolicyHolder@VCFB_CipherAbstractPolicy@CryptoPP@@VCFB_ModePolicy@2@@CryptoPP@@@CryptoPP@@@2@VCFB_CipherAbstractPolicy@2@@CryptoPP@@QAE@XZ 00401437 f i dlltest.obj
 0001:00000457       ?GetPolicy@?$ConcretePolicyHolder@VEmpty@CryptoPP@@V?$CFB_RequireFullDataBlocks@V?$CFB_DecryptionTemplate@V?$AbstractPolicyHolder@VCFB_CipherAbstractPolicy@CryptoPP@@VCFB_ModePolicy@2@@CryptoPP@@@CryptoPP@@@2@VCFB_CipherAbstractPolicy@2@@CryptoPP@@MBEABVCFB_CipherAbstractPolicy@2@XZ 00401457 f i dlltest.obj
 0001:00000463       ?AccessPolicy@?$ConcretePolicyHolder@VEmpty@CryptoPP@@V?$CFB_RequireFullDataBlocks@V?$CFB_DecryptionTemplate@V?$AbstractPolicyHolder@VCFB_CipherAbstractPolicy@CryptoPP@@VCFB_ModePolicy@2@@CryptoPP@@@CryptoPP@@@2@VCFB_CipherAbstractPolicy@2@@CryptoPP@@MAEAAVCFB_CipherAbstractPolicy@2@XZ 00401463 f i dlltest.obj
 0001:0000046f       ??_E?$ConcretePolicyHolder@VEmpty@CryptoPP@@V?$CFB_RequireFullDataBlocks@V?$CFB_DecryptionTemplate@V?$AbstractPolicyHolder@VCFB_CipherAbstractPolicy@CryptoPP@@VCFB_ModePolicy@2@@CryptoPP@@@CryptoPP@@@2@VCFB_CipherAbstractPolicy@2@@CryptoPP@@W3AEPAXI@Z 0040146f f i dlltest.obj
 0001:00000477       ??_E?$ConcretePolicyHolder@VEmpty@CryptoPP@@V?$CFB_RequireFullDataBlocks@V?$CFB_DecryptionTemplate@V?$AbstractPolicyHolder@VCFB_CipherAbstractPolicy@CryptoPP@@VCFB_ModePolicy@2@@CryptoPP@@@CryptoPP@@@2@VCFB_CipherAbstractPolicy@2@@CryptoPP@@WBI@AEPAXI@Z 00401477 f i dlltest.obj
 0001:0000047f       ??_E?$ConcretePolicyHolder@VEmpty@CryptoPP@@V?$CFB_RequireFullDataBlocks@V?$CFB_EncryptionTemplate@V?$AbstractPolicyHolder@VCFB_CipherAbstractPolicy@CryptoPP@@VCFB_ModePolicy@2@@CryptoPP@@@CryptoPP@@@2@VCFB_CipherAbstractPolicy@2@@CryptoPP@@UAEPAXI@Z 0040147f f i dlltest.obj
 0001:0000047f       ??_G?$ConcretePolicyHolder@VEmpty@CryptoPP@@V?$CFB_RequireFullDataBlocks@V?$CFB_EncryptionTemplate@V?$AbstractPolicyHolder@VCFB_CipherAbstractPolicy@CryptoPP@@VCFB_ModePolicy@2@@CryptoPP@@@CryptoPP@@@2@VCFB_CipherAbstractPolicy@2@@CryptoPP@@UAEPAXI@Z 0040147f f i dlltest.obj
 0001:0000049c       ??_G?$ConcretePolicyHolder@VEmpty@CryptoPP@@V?$CFB_RequireFullDataBlocks@V?$CFB_DecryptionTemplate@V?$AbstractPolicyHolder@VCFB_CipherAbstractPolicy@CryptoPP@@VCFB_ModePolicy@2@@CryptoPP@@@CryptoPP@@@2@VCFB_CipherAbstractPolicy@2@@CryptoPP@@UAEPAXI@Z 0040149c f i dlltest.obj
 0001:0000049c       ??_E?$ConcretePolicyHolder@VEmpty@CryptoPP@@V?$CFB_RequireFullDataBlocks@V?$CFB_DecryptionTemplate@V?$AbstractPolicyHolder@VCFB_CipherAbstractPolicy@CryptoPP@@VCFB_ModePolicy@2@@CryptoPP@@@CryptoPP@@@2@VCFB_CipherAbstractPolicy@2@@CryptoPP@@UAEPAXI@Z 0040149c f i dlltest.obj
 0001:000004b9       ??0?$DL_SignatureSchemeBase@VPK_Signer@CryptoPP@@V?$DL_PrivateKey@VInteger@CryptoPP@@@2@@CryptoPP@@QAE@XZ 004014b9 f i dlltest.obj
 0001:000004e8       ??0?$DL_SignatureSchemeBase@VPK_Verifier@CryptoPP@@V?$DL_PublicKey@VInteger@CryptoPP@@@2@@CryptoPP@@QAE@XZ 004014e8 f i dlltest.obj
 0001:00000517       ?_Tidy@?$basic_string@DU?$char_traits@D@std@@V?$allocator@D@2@@std@@IAEX_NI@Z 00401517 f i dlltest.obj
 0001:00000561       ??0?$_String_val@DV?$allocator@D@std@@@std@@IAE@V?$allocator@D@1@@Z 00401561 f i dlltest.obj
 0001:00000566       ?sputc@?$basic_streambuf@DU?$char_traits@D@std@@@std@@QAEHD@Z 00401566 f i dlltest.obj
 0001:000005a3       ??0?$BlockCipherFinal@$0A@VBase@DES_EDE3@CryptoPP@@@CryptoPP@@QAE@XZ 004015a3 f i dlltest.obj
 0001:000005bd       ?IsForwardTransformation@?$BlockCipherFinal@$0A@VBase@DES_EDE3@CryptoPP@@@CryptoPP@@UBE_NXZ 004015bd f i dlltest.obj
 0001:000005c0       ??_E?$BlockCipherFinal@$0A@VBase@DES_EDE3@CryptoPP@@@CryptoPP@@W3AEPAXI@Z 004015c0 f i dlltest.obj
 0001:000005c8       ??_G?$BlockCipherFinal@$0A@VBase@DES_EDE3@CryptoPP@@@CryptoPP@@UAEPAXI@Z 004015c8 f i dlltest.obj
 0001:000005c8       ??_E?$BlockCipherFinal@$0A@VBase@DES_EDE3@CryptoPP@@@CryptoPP@@UAEPAXI@Z 004015c8 f i dlltest.obj
 0001:000005e5       ?erase@?$basic_string@DU?$char_traits@D@std@@V?$allocator@D@2@@std@@QAEAAV12@II@Z 004015e5 f i dlltest.obj
 0001:00000651       ?max_size@?$basic_string@DU?$char_traits@D@std@@V?$allocator@D@2@@std@@QBEIXZ 00401651 f i dlltest.obj
 0001:00000655       ?allocate@?$allocator@D@std@@QAEPADI@Z 00401655 f i dlltest.obj
 0001:00000663       ?data@?$basic_string@DU?$char_traits@D@std@@V?$allocator@D@2@@std@@QBEPBDXZ 00401663 f i dlltest.obj
 0001:00000671       ??$?RVConstByteArrayParameter@CryptoPP@@@AlgorithmParameters@CryptoPP@@QAEAAV01@PBDABVConstByteArrayParameter@1@_N@Z 00401671 f i dlltest.obj
 0001:000006f2       ??_G?$AlgorithmParametersTemplate@VConstByteArrayParameter@CryptoPP@@@CryptoPP@@UAEPAXI@Z 004016f2 f i dlltest.obj
 0001:000006f2       ??_E?$AlgorithmParametersTemplate@VConstByteArrayParameter@CryptoPP@@@CryptoPP@@UAEPAXI@Z 004016f2 f i dlltest.obj
 0001:00000710       ??1?$ObjectHolder@V?$BlockCipherFinal@$0A@VBase@DES_EDE3@CryptoPP@@@CryptoPP@@@CryptoPP@@QAE@XZ 00401710 f i dlltest.obj
 0001:00000716       ??1?$AlgorithmImpl@V?$ConcretePolicyHolder@VEmpty@CryptoPP@@V?$CFB_RequireFullDataBlocks@V?$CFB_EncryptionTemplate@V?$AbstractPolicyHolder@VCFB_CipherAbstractPolicy@CryptoPP@@VCFB_ModePolicy@2@@CryptoPP@@@CryptoPP@@@2@VCFB_CipherAbstractPolicy@2@@CryptoPP@@V?$CipherModeFinalTemplate_CipherHolder@V?$BlockCipherFinal@$0A@VBase@DES_EDE3@CryptoPP@@@CryptoPP@@V?$ConcretePolicyHolder@VEmpty@CryptoPP@@V?$CFB_RequireFullDataBlocks@V?$CFB_EncryptionTemplate@V?$AbstractPolicyHolder@VCFB_CipherAbstractPolicy@CryptoPP@@VCFB_ModePolicy@2@@CryptoPP@@@CryptoPP@@@2@VCFB_CipherAbstractPolicy@2@@2@@2@@CryptoPP@@UAE@XZ 00401716 f i dlltest.obj
 0001:0000071c       ??1?$AlgorithmImpl@V?$ConcretePolicyHolder@VEmpty@CryptoPP@@V?$CFB_RequireFullDataBlocks@V?$CFB_DecryptionTemplate@V?$AbstractPolicyHolder@VCFB_CipherAbstractPolicy@CryptoPP@@VCFB_ModePolicy@2@@CryptoPP@@@CryptoPP@@@2@VCFB_CipherAbstractPolicy@2@@CryptoPP@@V?$CipherModeFinalTemplate_CipherHolder@V?$BlockCipherFinal@$0A@VBase@DES_EDE3@CryptoPP@@@CryptoPP@@V?$ConcretePolicyHolder@VEmpty@CryptoPP@@V?$CFB_RequireFullDataBlocks@V?$CFB_DecryptionTemplate@V?$AbstractPolicyHolder@VCFB_CipherAbstractPolicy@CryptoPP@@VCFB_ModePolicy@2@@CryptoPP@@@CryptoPP@@@2@VCFB_CipherAbstractPolicy@2@@2@@2@@CryptoPP@@UAE@XZ 0040171c f i dlltest.obj
 0001:00000722       ??1?$AlgorithmImpl@V?$DL_SignerBase@VInteger@CryptoPP@@@CryptoPP@@UDSA@2@@CryptoPP@@UAE@XZ 00401722 f i dlltest.obj
 0001:00000723       ??1?$AlgorithmImpl@V?$DL_VerifierBase@VInteger@CryptoPP@@@CryptoPP@@UDSA@2@@CryptoPP@@UAE@XZ 00401723 f i dlltest.obj
 0001:00000724       ??0?$basic_string@DU?$char_traits@D@std@@V?$allocator@D@2@@std@@QAE@XZ 00401724 f i dlltest.obj
 0001:00000739       ??1?$basic_string@DU?$char_traits@D@std@@V?$allocator@D@2@@std@@QAE@XZ 00401739 f i dlltest.obj
 0001:00000743       ?flush@?$basic_ostream@DU?$char_traits@D@std@@@std@@QAEAAV12@XZ 00401743 f i dlltest.obj
 0001:0000077c       ?Clone@?$ClonableImpl@V?$BlockCipherFinal@$0A@VEnc@Rijndael@CryptoPP@@@CryptoPP@@VEnc@Rijndael@2@@CryptoPP@@UBEPAVClonable@2@XZ 0040177c f i dlltest.obj
 0001:000007d7       ?Clone@?$ClonableImpl@V?$BlockCipherFinal@$0A@VBase@DES_EDE3@CryptoPP@@@CryptoPP@@VBase@DES_EDE3@2@@CryptoPP@@UBEPAVClonable@2@XZ 004017d7 f i dlltest.obj
 0001:00000832       ??0?$ObjectHolder@V?$BlockCipherFinal@$0A@VBase@DES_EDE3@CryptoPP@@@CryptoPP@@@CryptoPP@@QAE@XZ 00401832 f i dlltest.obj
 0001:0000083e       ??0?$AlgorithmImpl@V?$ConcretePolicyHolder@VEmpty@CryptoPP@@V?$CFB_RequireFullDataBlocks@V?$CFB_EncryptionTemplate@V?$AbstractPolicyHolder@VCFB_CipherAbstractPolicy@CryptoPP@@VCFB_ModePolicy@2@@CryptoPP@@@CryptoPP@@@2@VCFB_CipherAbstractPolicy@2@@CryptoPP@@V?$CipherModeFinalTemplate_CipherHolder@V?$BlockCipherFinal@$0A@VBase@DES_EDE3@CryptoPP@@@CryptoPP@@V?$ConcretePolicyHolder@VEmpty@CryptoPP@@V?$CFB_RequireFullDataBlocks@V?$CFB_EncryptionTemplate@V?$AbstractPolicyHolder@VCFB_CipherAbstractPolicy@CryptoPP@@VCFB_ModePolicy@2@@CryptoPP@@@CryptoPP@@@2@VCFB_CipherAbstractPolicy@2@@2@@2@@CryptoPP@@QAE@XZ 0040183e f i dlltest.obj
 0001:0000084a       ??0?$AlgorithmImpl@V?$ConcretePolicyHolder@VEmpty@CryptoPP@@V?$CFB_RequireFullDataBlocks@V?$CFB_DecryptionTemplate@V?$AbstractPolicyHolder@VCFB_CipherAbstractPolicy@CryptoPP@@VCFB_ModePolicy@2@@CryptoPP@@@CryptoPP@@@2@VCFB_CipherAbstractPolicy@2@@CryptoPP@@V?$CipherModeFinalTemplate_CipherHolder@V?$BlockCipherFinal@$0A@VBase@DES_EDE3@CryptoPP@@@CryptoPP@@V?$ConcretePolicyHolder@VEmpty@CryptoPP@@V?$CFB_RequireFullDataBlocks@V?$CFB_DecryptionTemplate@V?$AbstractPolicyHolder@VCFB_CipherAbstractPolicy@CryptoPP@@VCFB_ModePolicy@2@@CryptoPP@@@CryptoPP@@@2@VCFB_CipherAbstractPolicy@2@@2@@2@@CryptoPP@@QAE@XZ 0040184a f i dlltest.obj
 0001:00000856       ??0?$DL_SignerBase@VInteger@CryptoPP@@@CryptoPP@@QAE@XZ 00401856 f i dlltest.obj
 0001:00000862       ??0?$DL_VerifierBase@VInteger@CryptoPP@@@CryptoPP@@QAE@XZ 00401862 f i dlltest.obj
 0001:0000086e       ??0sentry@?$basic_ostream@DU?$char_traits@D@std@@@std@@QAE@AAV12@@Z 0040186e f i dlltest.obj
 0001:000008ca       ?_Osfx@?$basic_ostream@DU?$char_traits@D@std@@@std@@QAEXXZ 004018ca f i dlltest.obj
 0001:000008dc       ?_Copy@?$basic_string@DU?$char_traits@D@std@@V?$allocator@D@2@@std@@IAEXII@Z 004018dc f i dlltest.obj
 0001:000009ca       ??$MakeParameters@VConstByteArrayParameter@CryptoPP@@@CryptoPP@@YG?AVAlgorithmParameters@0@PBDABVConstByteArrayParameter@0@_N@Z 004019ca f i dlltest.obj
 0001:00000a27       ??1?$CipherModeFinalTemplate_CipherHolder@V?$BlockCipherFinal@$0A@VBase@DES_EDE3@CryptoPP@@@CryptoPP@@V?$ConcretePolicyHolder@VEmpty@CryptoPP@@V?$CFB_RequireFullDataBlocks@V?$CFB_EncryptionTemplate@V?$AbstractPolicyHolder@VCFB_CipherAbstractPolicy@CryptoPP@@VCFB_ModePolicy@2@@CryptoPP@@@CryptoPP@@@2@VCFB_CipherAbstractPolicy@2@@2@@CryptoPP@@UAE@XZ 00401a27 f i dlltest.obj
 0001:00000a64       ??1?$CipherModeFinalTemplate_CipherHolder@V?$BlockCipherFinal@$0A@VBase@DES_EDE3@CryptoPP@@@CryptoPP@@V?$ConcretePolicyHolder@VEmpty@CryptoPP@@V?$CFB_RequireFullDataBlocks@V?$CFB_DecryptionTemplate@V?$AbstractPolicyHolder@VCFB_CipherAbstractPolicy@CryptoPP@@VCFB_ModePolicy@2@@CryptoPP@@@CryptoPP@@@2@VCFB_CipherAbstractPolicy@2@@2@@CryptoPP@@UAE@XZ 00401a64 f i dlltest.obj
 0001:00000aa1       ??1?$CipherModeFinalTemplate_CipherHolder@V?$BlockCipherFinal@$0A@VBase@DES_EDE3@CryptoPP@@@CryptoPP@@VECB_OneWay@2@@CryptoPP@@UAE@XZ 00401aa1 f i dlltest.obj
 0001:00000ade       ??1?$DL_ObjectImplBase@V?$DL_SignerBase@VInteger@CryptoPP@@@CryptoPP@@U?$DL_SignatureSchemeOptions@UDSA@CryptoPP@@UDL_Keys_DSA@2@V?$DL_Algorithm_GDSA@VInteger@CryptoPP@@@2@VDL_SignatureMessageEncodingMethod_DSA@2@VSHA1@2@@2@V?$DL_PrivateKey_WithSignaturePairwiseConsistencyTest@V?$DL_PrivateKey_GFP@VDL_GroupParameters_DSA@CryptoPP@@@CryptoPP@@UDSA@2@@2@@CryptoPP@@UAE@XZ 00401ade f i dlltest.obj
 0001:00000ae7       ??1?$DL_ObjectImplBase@V?$DL_VerifierBase@VInteger@CryptoPP@@@CryptoPP@@U?$DL_SignatureSchemeOptions@UDSA@CryptoPP@@UDL_Keys_DSA@2@V?$DL_Algorithm_GDSA@VInteger@CryptoPP@@@2@VDL_SignatureMessageEncodingMethod_DSA@2@VSHA1@2@@2@V?$DL_PublicKey_GFP@VDL_GroupParameters_DSA@CryptoPP@@@2@@CryptoPP@@UAE@XZ 00401ae7 f i dlltest.obj
 0001:00000af0       ??0?$CipherModeFinalTemplate_CipherHolder@V?$BlockCipherFinal@$0A@VBase@DES_EDE3@CryptoPP@@@CryptoPP@@V?$ConcretePolicyHolder@VEmpty@CryptoPP@@V?$CFB_RequireFullDataBlocks@V?$CFB_EncryptionTemplate@V?$AbstractPolicyHolder@VCFB_CipherAbstractPolicy@CryptoPP@@VCFB_ModePolicy@2@@CryptoPP@@@CryptoPP@@@2@VCFB_CipherAbstractPolicy@2@@2@@CryptoPP@@QAE@XZ 00401af0 f i dlltest.obj
 0001:00000b4a       ??_E?$CipherModeFinalTemplate_CipherHolder@V?$BlockCipherFinal@$0A@VBase@DES_EDE3@CryptoPP@@@CryptoPP@@V?$ConcretePolicyHolder@VEmpty@CryptoPP@@V?$CFB_RequireFullDataBlocks@V?$CFB_EncryptionTemplate@V?$AbstractPolicyHolder@VCFB_CipherAbstractPolicy@CryptoPP@@VCFB_ModePolicy@2@@CryptoPP@@@CryptoPP@@@2@VCFB_CipherAbstractPolicy@2@@2@@CryptoPP@@W3AEPAXI@Z 00401b4a f i dlltest.obj
 0001:00000b52       ??_E?$CipherModeFinalTemplate_CipherHolder@V?$BlockCipherFinal@$0A@VBase@DES_EDE3@CryptoPP@@@CryptoPP@@V?$ConcretePolicyHolder@VEmpty@CryptoPP@@V?$CFB_RequireFullDataBlocks@V?$CFB_EncryptionTemplate@V?$AbstractPolicyHolder@VCFB_CipherAbstractPolicy@CryptoPP@@VCFB_ModePolicy@2@@CryptoPP@@@CryptoPP@@@2@VCFB_CipherAbstractPolicy@2@@2@@CryptoPP@@WBI@AEPAXI@Z 00401b52 f i dlltest.obj
 0001:00000b5a       ??0?$CipherModeFinalTemplate_CipherHolder@V?$BlockCipherFinal@$0A@VBase@DES_EDE3@CryptoPP@@@CryptoPP@@V?$ConcretePolicyHolder@VEmpty@CryptoPP@@V?$CFB_RequireFullDataBlocks@V?$CFB_DecryptionTemplate@V?$AbstractPolicyHolder@VCFB_CipherAbstractPolicy@CryptoPP@@VCFB_ModePolicy@2@@CryptoPP@@@CryptoPP@@@2@VCFB_CipherAbstractPolicy@2@@2@@CryptoPP@@QAE@XZ 00401b5a f i dlltest.obj
 0001:00000bb4       ??_E?$CipherModeFinalTemplate_CipherHolder@V?$BlockCipherFinal@$0A@VBase@DES_EDE3@CryptoPP@@@CryptoPP@@V?$ConcretePolicyHolder@VEmpty@CryptoPP@@V?$CFB_RequireFullDataBlocks@V?$CFB_DecryptionTemplate@V?$AbstractPolicyHolder@VCFB_CipherAbstractPolicy@CryptoPP@@VCFB_ModePolicy@2@@CryptoPP@@@CryptoPP@@@2@VCFB_CipherAbstractPolicy@2@@2@@CryptoPP@@W3AEPAXI@Z 00401bb4 f i dlltest.obj
 0001:00000bbc       ??_E?$CipherModeFinalTemplate_CipherHolder@V?$BlockCipherFinal@$0A@VBase@DES_EDE3@CryptoPP@@@CryptoPP@@V?$ConcretePolicyHolder@VEmpty@CryptoPP@@V?$CFB_RequireFullDataBlocks@V?$CFB_DecryptionTemplate@V?$AbstractPolicyHolder@VCFB_CipherAbstractPolicy@CryptoPP@@VCFB_ModePolicy@2@@CryptoPP@@@CryptoPP@@@2@VCFB_CipherAbstractPolicy@2@@2@@CryptoPP@@WBI@AEPAXI@Z 00401bbc f i dlltest.obj
 0001:00000bc4       ??0?$CipherModeFinalTemplate_CipherHolder@V?$BlockCipherFinal@$0A@VBase@DES_EDE3@CryptoPP@@@CryptoPP@@VECB_OneWay@2@@CryptoPP@@QAE@XZ 00401bc4 f i dlltest.obj
 0001:00000c18       ??_E?$CipherModeFinalTemplate_CipherHolder@V?$BlockCipherFinal@$0A@VBase@DES_EDE3@CryptoPP@@@CryptoPP@@VECB_OneWay@2@@CryptoPP@@W3AEPAXI@Z 00401c18 f i dlltest.obj
 0001:00000c20       ??_E?$CipherModeFinalTemplate_CipherHolder@V?$BlockCipherFinal@$0A@VBase@DES_EDE3@CryptoPP@@@CryptoPP@@V?$ConcretePolicyHolder@VEmpty@CryptoPP@@V?$CFB_RequireFullDataBlocks@V?$CFB_EncryptionTemplate@V?$AbstractPolicyHolder@VCFB_CipherAbstractPolicy@CryptoPP@@VCFB_ModePolicy@2@@CryptoPP@@@CryptoPP@@@2@VCFB_CipherAbstractPolicy@2@@2@@CryptoPP@@UAEPAXI@Z 00401c20 f i dlltest.obj
 0001:00000c20       ??_G?$CipherModeFinalTemplate_CipherHolder@V?$BlockCipherFinal@$0A@VBase@DES_EDE3@CryptoPP@@@CryptoPP@@V?$ConcretePolicyHolder@VEmpty@CryptoPP@@V?$CFB_RequireFullDataBlocks@V?$CFB_EncryptionTemplate@V?$AbstractPolicyHolder@VCFB_CipherAbstractPolicy@CryptoPP@@VCFB_ModePolicy@2@@CryptoPP@@@CryptoPP@@@2@VCFB_CipherAbstractPolicy@2@@2@@CryptoPP@@UAEPAXI@Z 00401c20 f i dlltest.obj
 0001:00000c3d       ??_E?$CipherModeFinalTemplate_CipherHolder@V?$BlockCipherFinal@$0A@VBase@DES_EDE3@CryptoPP@@@CryptoPP@@V?$ConcretePolicyHolder@VEmpty@CryptoPP@@V?$CFB_RequireFullDataBlocks@V?$CFB_DecryptionTemplate@V?$AbstractPolicyHolder@VCFB_CipherAbstractPolicy@CryptoPP@@VCFB_ModePolicy@2@@CryptoPP@@@CryptoPP@@@2@VCFB_CipherAbstractPolicy@2@@2@@CryptoPP@@UAEPAXI@Z 00401c3d f i dlltest.obj
 0001:00000c3d       ??_G?$CipherModeFinalTemplate_CipherHolder@V?$BlockCipherFinal@$0A@VBase@DES_EDE3@CryptoPP@@@CryptoPP@@V?$ConcretePolicyHolder@VEmpty@CryptoPP@@V?$CFB_RequireFullDataBlocks@V?$CFB_DecryptionTemplate@V?$AbstractPolicyHolder@VCFB_CipherAbstractPolicy@CryptoPP@@VCFB_ModePolicy@2@@CryptoPP@@@CryptoPP@@@2@VCFB_CipherAbstractPolicy@2@@2@@CryptoPP@@UAEPAXI@Z 00401c3d f i dlltest.obj
 0001:00000c5a       ??_G?$CipherModeFinalTemplate_CipherHolder@V?$BlockCipherFinal@$0A@VBase@DES_EDE3@CryptoPP@@@CryptoPP@@VECB_OneWay@2@@CryptoPP@@UAEPAXI@Z 00401c5a f i dlltest.obj
 0001:00000c5a       ??_E?$CipherModeFinalTemplate_CipherHolder@V?$BlockCipherFinal@$0A@VBase@DES_EDE3@CryptoPP@@@CryptoPP@@VECB_OneWay@2@@CryptoPP@@UAEPAXI@Z 00401c5a f i dlltest.obj
 0001:00000c77       ??0?$AlgorithmImpl@V?$DL_SignerBase@VInteger@CryptoPP@@@CryptoPP@@UDSA@2@@CryptoPP@@QAE@XZ 00401c77 f i dlltest.obj
 0001:00000c83       ??0?$AlgorithmImpl@V?$DL_VerifierBase@VInteger@CryptoPP@@@CryptoPP@@UDSA@2@@CryptoPP@@QAE@XZ 00401c83 f i dlltest.obj
 0001:00000c8f       ??1sentry@?$basic_ostream@DU?$char_traits@D@std@@@std@@QAE@XZ 00401c8f f i dlltest.obj
 0001:00000cd8       ?_Grow@?$basic_string@DU?$char_traits@D@std@@V?$allocator@D@2@@std@@IAE_NI_N@Z 00401cd8 f i dlltest.obj
 0001:00000d36       ??$?6U?$char_traits@D@std@@@std@@YAAAV?$basic_ostream@DU?$char_traits@D@std@@@0@AAV10@PBD@Z 00401d36 f i dlltest.obj
 0001:00000e80       ??1?$DL_ObjectImpl@V?$DL_SignerBase@VInteger@CryptoPP@@@CryptoPP@@U?$DL_SignatureSchemeOptions@UDSA@CryptoPP@@UDL_Keys_DSA@2@V?$DL_Algorithm_GDSA@VInteger@CryptoPP@@@2@VDL_SignatureMessageEncodingMethod_DSA@2@VSHA1@2@@2@V?$DL_PrivateKey_WithSignaturePairwiseConsistencyTest@V?$DL_PrivateKey_GFP@VDL_GroupParameters_DSA@CryptoPP@@@CryptoPP@@UDSA@2@@2@@CryptoPP@@UAE@XZ 00401e80 f i dlltest.obj
 0001:00000e89       ??1?$DL_ObjectImpl@V?$DL_VerifierBase@VInteger@CryptoPP@@@CryptoPP@@U?$DL_SignatureSchemeOptions@UDSA@CryptoPP@@UDL_Keys_DSA@2@V?$DL_Algorithm_GDSA@VInteger@CryptoPP@@@2@VDL_SignatureMessageEncodingMethod_DSA@2@VSHA1@2@@2@V?$DL_PublicKey_GFP@VDL_GroupParameters_DSA@CryptoPP@@@2@@CryptoPP@@UAE@XZ 00401e89 f i dlltest.obj
 0001:00000e92       ?put@?$basic_ostream@DU?$char_traits@D@std@@@std@@QAEAAV12@D@Z 00401e92 f i dlltest.obj
 0001:00000f38       ?endl@std@@YAAAV?$basic_ostream@DU?$char_traits@D@std@@@1@AAV21@@Z 00401f38 f i dlltest.obj
 0001:00000f51       ??0?$DL_ObjectImplBase@V?$DL_SignerBase@VInteger@CryptoPP@@@CryptoPP@@U?$DL_SignatureSchemeOptions@UDSA@CryptoPP@@UDL_Keys_DSA@2@V?$DL_Algorithm_GDSA@VInteger@CryptoPP@@@2@VDL_SignatureMessageEncodingMethod_DSA@2@VSHA1@2@@2@V?$DL_PrivateKey_WithSignaturePairwiseConsistencyTest@V?$DL_PrivateKey_GFP@VDL_GroupParameters_DSA@CryptoPP@@@CryptoPP@@UDSA@2@@2@@CryptoPP@@QAE@XZ 00401f51 f i dlltest.obj
 0001:00000f68       ??0?$DL_ObjectImplBase@V?$DL_VerifierBase@VInteger@CryptoPP@@@CryptoPP@@U?$DL_SignatureSchemeOptions@UDSA@CryptoPP@@UDL_Keys_DSA@2@V?$DL_Algorithm_GDSA@VInteger@CryptoPP@@@2@VDL_SignatureMessageEncodingMethod_DSA@2@VSHA1@2@@2@V?$DL_PublicKey_GFP@VDL_GroupParameters_DSA@CryptoPP@@@2@@CryptoPP@@QAE@XZ 00401f68 f i dlltest.obj
 0001:00000f7f       ?assign@?$basic_string@DU?$char_traits@D@std@@V?$allocator@D@2@@std@@QAEAAV12@ABV12@II@Z 00401f7f f i dlltest.obj
 0001:0000100e       ?assign@?$basic_string@DU?$char_traits@D@std@@V?$allocator@D@2@@std@@QAEAAV12@PBDI@Z 0040200e f i dlltest.obj
 0001:0000107d       ??1?$DL_SignerImpl@U?$DL_SignatureSchemeOptions@UDSA@CryptoPP@@UDL_Keys_DSA@2@V?$DL_Algorithm_GDSA@VInteger@CryptoPP@@@2@VDL_SignatureMessageEncodingMethod_DSA@2@VSHA1@2@@CryptoPP@@@CryptoPP@@UAE@XZ 0040207d f i dlltest.obj
 0001:00001086       ??1?$DL_VerifierImpl@U?$DL_SignatureSchemeOptions@UDSA@CryptoPP@@UDL_Keys_DSA@2@V?$DL_Algorithm_GDSA@VInteger@CryptoPP@@@2@VDL_SignatureMessageEncodingMethod_DSA@2@VSHA1@2@@CryptoPP@@@CryptoPP@@UAE@XZ 00402086 f i dlltest.obj
 0001:0000108f       ??0?$DL_ObjectImpl@V?$DL_SignerBase@VInteger@CryptoPP@@@CryptoPP@@U?$DL_SignatureSchemeOptions@UDSA@CryptoPP@@UDL_Keys_DSA@2@V?$DL_Algorithm_GDSA@VInteger@CryptoPP@@@2@VDL_SignatureMessageEncodingMethod_DSA@2@VSHA1@2@@2@V?$DL_PrivateKey_WithSignaturePairwiseConsistencyTest@V?$DL_PrivateKey_GFP@VDL_GroupParameters_DSA@CryptoPP@@@CryptoPP@@UDSA@2@@2@@CryptoPP@@QAE@XZ 0040208f f i dlltest.obj
 0001:0000109b       ??0?$DL_ObjectImpl@V?$DL_VerifierBase@VInteger@CryptoPP@@@CryptoPP@@U?$DL_SignatureSchemeOptions@UDSA@CryptoPP@@UDL_Keys_DSA@2@V?$DL_Algorithm_GDSA@VInteger@CryptoPP@@@2@VDL_SignatureMessageEncodingMethod_DSA@2@VSHA1@2@@2@V?$DL_PublicKey_GFP@VDL_GroupParameters_DSA@CryptoPP@@@2@@CryptoPP@@QAE@XZ 0040209b f i dlltest.obj
 0001:000010a7       ?assign@?$basic_string@DU?$char_traits@D@std@@V?$allocator@D@2@@std@@QAEAAV12@PBD@Z 004020a7 f i dlltest.obj
 0001:000010c4       ??1?$PK_FinalTemplate@V?$DL_SignerImpl@U?$DL_SignatureSchemeOptions@UDSA@CryptoPP@@UDL_Keys_DSA@2@V?$DL_Algorithm_GDSA@VInteger@CryptoPP@@@2@VDL_SignatureMessageEncodingMethod_DSA@2@VSHA1@2@@CryptoPP@@@CryptoPP@@@CryptoPP@@UAE@XZ 004020c4 f i dlltest.obj
 0001:000010cd       ??1?$PK_FinalTemplate@V?$DL_VerifierImpl@U?$DL_SignatureSchemeOptions@UDSA@CryptoPP@@UDL_Keys_DSA@2@V?$DL_Algorithm_GDSA@VInteger@CryptoPP@@@2@VDL_SignatureMessageEncodingMethod_DSA@2@VSHA1@2@@CryptoPP@@@CryptoPP@@@CryptoPP@@UAE@XZ 004020cd f i dlltest.obj
 0001:000010d6       ??0?$basic_string@DU?$char_traits@D@std@@V?$allocator@D@2@@std@@QAE@PBD@Z 004020d6 f i dlltest.obj
 0001:000010f8       ?memcpy_s@CryptoPP@@YGXPAXIPBXI@Z 004020f8 f i dlltest.obj
 0001:00001156       ??0?$DL_SignerImpl@U?$DL_SignatureSchemeOptions@UDSA@CryptoPP@@UDL_Keys_DSA@2@V?$DL_Algorithm_GDSA@VInteger@CryptoPP@@@2@VDL_SignatureMessageEncodingMethod_DSA@2@VSHA1@2@@CryptoPP@@@CryptoPP@@QAE@XZ 00402156 f i dlltest.obj
 0001:00001176       ?AccessPrivateKey@?$DL_ObjectImplBase@V?$DL_SignerBase@VInteger@CryptoPP@@@CryptoPP@@U?$DL_SignatureSchemeOptions@UDSA@CryptoPP@@UDL_Keys_DSA@2@V?$DL_Algorithm_GDSA@VInteger@CryptoPP@@@2@VDL_SignatureMessageEncodingMethod_DSA@2@VSHA1@2@@2@V?$DL_PrivateKey_WithSignaturePairwiseConsistencyTest@V?$DL_PrivateKey_GFP@VDL_GroupParameters_DSA@CryptoPP@@@CryptoPP@@UDSA@2@@2@@CryptoPP@@UAEAAVPrivateKey@2@XZ 00402176 f i dlltest.obj
 0001:00001183       ?AccessKeyInterface@?$DL_ObjectImplBase@V?$DL_SignerBase@VInteger@CryptoPP@@@CryptoPP@@U?$DL_SignatureSchemeOptions@UDSA@CryptoPP@@UDL_Keys_DSA@2@V?$DL_Algorithm_GDSA@VInteger@CryptoPP@@@2@VDL_SignatureMessageEncodingMethod_DSA@2@VSHA1@2@@2@V?$DL_PrivateKey_WithSignaturePairwiseConsistencyTest@V?$DL_PrivateKey_GFP@VDL_GroupParameters_DSA@CryptoPP@@@CryptoPP@@UDSA@2@@2@@CryptoPP@@MAEAAV?$DL_PrivateKey@VInteger@CryptoPP@@@2@XZ 00402183 f i dlltest.obj
 0001:00001187       ?GetKeyInterface@?$DL_ObjectImplBase@V?$DL_SignerBase@VInteger@CryptoPP@@@CryptoPP@@U?$DL_SignatureSchemeOptions@UDSA@CryptoPP@@UDL_Keys_DSA@2@V?$DL_Algorithm_GDSA@VInteger@CryptoPP@@@2@VDL_SignatureMessageEncodingMethod_DSA@2@VSHA1@2@@2@V?$DL_PrivateKey_WithSignaturePairwiseConsistencyTest@V?$DL_PrivateKey_GFP@VDL_GroupParameters_DSA@CryptoPP@@@CryptoPP@@UDSA@2@@2@@CryptoPP@@MBEABV?$DL_PrivateKey@VInteger@CryptoPP@@@2@XZ 00402187 f i dlltest.obj
 0001:0000118b       ?GetDigestSize@?$DL_ObjectImplBase@V?$DL_SignerBase@VInteger@CryptoPP@@@CryptoPP@@U?$DL_SignatureSchemeOptions@UDSA@CryptoPP@@UDL_Keys_DSA@2@V?$DL_Algorithm_GDSA@VInteger@CryptoPP@@@2@VDL_SignatureMessageEncodingMethod_DSA@2@VSHA1@2@@2@V?$DL_PrivateKey_WithSignaturePairwiseConsistencyTest@V?$DL_PrivateKey_GFP@VDL_GroupParameters_DSA@CryptoPP@@@CryptoPP@@UDSA@2@@2@@CryptoPP@@MBEIXZ 0040218b f i dlltest.obj
 0001:0000118f       ?MaxRecoverableLength@?$DL_SignatureSchemeBase@VPK_Signer@CryptoPP@@V?$DL_PrivateKey@VInteger@CryptoPP@@@2@@CryptoPP@@UBEIXZ 0040218f f i dlltest.obj
 0001:000011c3       ?MaxRecoverableLengthFromSignatureLength@?$DL_SignatureSchemeBase@VPK_Signer@CryptoPP@@V?$DL_PrivateKey@VInteger@CryptoPP@@@2@@CryptoPP@@UBEII@Z 004021c3 f i dlltest.obj
 0001:000011c8       ?IsProbabilistic@?$DL_SignatureSchemeBase@VPK_Signer@CryptoPP@@V?$DL_PrivateKey@VInteger@CryptoPP@@@2@@CryptoPP@@UBE_NXZ 004021c8 f i dlltest.obj
 0001:000011cb       ?RecoverablePartFirst@?$DL_SignatureSchemeBase@VPK_Signer@CryptoPP@@V?$DL_PrivateKey@VInteger@CryptoPP@@@2@@CryptoPP@@UBE_NXZ 004021cb f i dlltest.obj
 0001:000011d7       ??_E?$DL_SignerImpl@U?$DL_SignatureSchemeOptions@UDSA@CryptoPP@@UDL_Keys_DSA@2@V?$DL_Algorithm_GDSA@VInteger@CryptoPP@@@2@VDL_SignatureMessageEncodingMethod_DSA@2@VSHA1@2@@CryptoPP@@@CryptoPP@@W3AEPAXI@Z 004021d7 f i dlltest.obj
 0001:000011df       ?GetHashIdentifier@?$DL_ObjectImpl@V?$DL_SignerBase@VInteger@CryptoPP@@@CryptoPP@@U?$DL_SignatureSchemeOptions@UDSA@CryptoPP@@UDL_Keys_DSA@2@V?$DL_Algorithm_GDSA@VInteger@CryptoPP@@@2@VDL_SignatureMessageEncodingMethod_DSA@2@VSHA1@2@@2@V?$DL_PrivateKey_WithSignaturePairwiseConsistencyTest@V?$DL_PrivateKey_GFP@VDL_GroupParameters_DSA@CryptoPP@@@CryptoPP@@UDSA@2@@2@@CryptoPP@@MBE?AU?$pair@PBEI@std@@XZ 004021df f i dlltest.obj
 0001:000011ed       ?SignatureLength@?$DL_SignatureSchemeBase@VPK_Signer@CryptoPP@@V?$DL_PrivateKey@VInteger@CryptoPP@@@2@@CryptoPP@@UBEIXZ 004021ed f i dlltest.obj
 0001:0000123b       ?NewSignatureAccumulator@?$DL_SignerImpl@U?$DL_SignatureSchemeOptions@UDSA@CryptoPP@@UDL_Keys_DSA@2@V?$DL_Algorithm_GDSA@VInteger@CryptoPP@@@2@VDL_SignatureMessageEncodingMethod_DSA@2@VSHA1@2@@CryptoPP@@@CryptoPP@@UBEPAVPK_MessageAccumulator@2@AAVRandomNumberGenerator@2@@Z 0040223b f i dlltest.obj
 0001:000012a1       ?AccessHash@?$PK_MessageAccumulatorImpl@VSHA1@CryptoPP@@@CryptoPP@@UAEAAVHashTransformation@2@XZ 004022a1 f i dlltest.obj
 0001:000012a5       ??1?$auto_ptr@VPK_MessageAccumulatorBase@CryptoPP@@@std@@QAE@XZ 004022a5 f i dlltest.obj
 0001:000012b2       ??_E?$PK_MessageAccumulatorImpl@VSHA1@CryptoPP@@@CryptoPP@@UAEPAXI@Z 004022b2 f i dlltest.obj
 0001:000012b2       ??_G?$PK_MessageAccumulatorImpl@VSHA1@CryptoPP@@@CryptoPP@@UAEPAXI@Z 004022b2 f i dlltest.obj
 0001:000012cf       ??1?$PK_MessageAccumulatorImpl@VSHA1@CryptoPP@@@CryptoPP@@UAE@XZ 004022cf f i dlltest.obj
 0001:0000130c       ?GetSignatureAlgorithm@?$DL_ObjectImpl@V?$DL_SignerBase@VInteger@CryptoPP@@@CryptoPP@@U?$DL_SignatureSchemeOptions@UDSA@CryptoPP@@UDL_Keys_DSA@2@V?$DL_Algorithm_GDSA@VInteger@CryptoPP@@@2@VDL_SignatureMessageEncodingMethod_DSA@2@VSHA1@2@@2@V?$DL_PrivateKey_WithSignaturePairwiseConsistencyTest@V?$DL_PrivateKey_GFP@VDL_GroupParameters_DSA@CryptoPP@@@CryptoPP@@UDSA@2@@2@@CryptoPP@@MBEABV?$DL_ElgamalLikeSignatureAlgorithm@VInteger@CryptoPP@@@2@XZ 0040230c f i dlltest.obj
 0001:00001318       ?Ref@?$Singleton@V?$DL_Algorithm_GDSA@VInteger@CryptoPP@@@CryptoPP@@U?$NewObject@V?$DL_Algorithm_GDSA@VInteger@CryptoPP@@@CryptoPP@@@2@$0A@@CryptoPP@@QBEABV?$DL_Algorithm_GDSA@VInteger@CryptoPP@@@2@XZ 00402318 f i dlltest.obj
 0001:0000137a       ?GetMessageEncodingInterface@?$DL_ObjectImpl@V?$DL_SignerBase@VInteger@CryptoPP@@@CryptoPP@@U?$DL_SignatureSchemeOptions@UDSA@CryptoPP@@UDL_Keys_DSA@2@V?$DL_Algorithm_GDSA@VInteger@CryptoPP@@@2@VDL_SignatureMessageEncodingMethod_DSA@2@VSHA1@2@@2@V?$DL_PrivateKey_WithSignaturePairwiseConsistencyTest@V?$DL_PrivateKey_GFP@VDL_GroupParameters_DSA@CryptoPP@@@CryptoPP@@UDSA@2@@2@@CryptoPP@@MBEABVPK_SignatureMessageEncodingMethod@2@XZ 0040237a f i dlltest.obj
 0001:00001386       ?Ref@?$Singleton@VDL_SignatureMessageEncodingMethod_DSA@CryptoPP@@U?$NewObject@VDL_SignatureMessageEncodingMethod_DSA@CryptoPP@@@2@$0A@@CryptoPP@@QBEABVDL_SignatureMessageEncodingMethod_DSA@2@XZ 00402386 f i dlltest.obj
 0001:000013dc       ??R?$NewObject@VDL_SignatureMessageEncodingMethod_DSA@CryptoPP@@@CryptoPP@@QBEPAVDL_SignatureMessageEncodingMethod_DSA@1@XZ 004023dc f i dlltest.obj
 0001:00001402       ?MinRepresentativeBitLength@PK_SignatureMessageEncodingMethod@CryptoPP@@UBEIII@Z 00402402 f i dlltest.obj
 0001:00001407       ?MaxRecoverableLength@PK_SignatureMessageEncodingMethod@CryptoPP@@UBEIIII@Z 00402407 f i dlltest.obj
 0001:0000140c       ?ProcessSemisignature@PK_SignatureMessageEncodingMethod@CryptoPP@@UBEXAAVHashTransformation@2@PBEI@Z 0040240c f i dlltest.obj
 0001:0000140f       ?ProcessRecoverableMessage@PK_SignatureMessageEncodingMethod@CryptoPP@@UBEXAAVHashTransformation@2@PBEI1IAAV?$SecBlock@EV?$AllocatorWithCleanup@E$0A@@CryptoPP@@@2@@Z 0040240f f i dlltest.obj
 0001:00001417       ??_GDL_SignatureMessageEncodingMethod_DSA@CryptoPP@@UAEPAXI@Z 00402417 f i dlltest.obj
 0001:00001417       ??_EDL_SignatureMessageEncodingMethod_DSA@CryptoPP@@UAEPAXI@Z 00402417 f i dlltest.obj
 0001:00001435       ?SignAndRestart@?$DL_SignerBase@VInteger@CryptoPP@@@CryptoPP@@UBEIAAVRandomNumberGenerator@2@AAVPK_MessageAccumulator@2@PAE_N@Z 00402435 f i dlltest.obj
 0001:00001708       ??GCryptoPP@@YG?AVInteger@0@ABV10@0@Z 00402708 f i dlltest.obj
 0001:00001726       ?MessageRepresentativeBitLength@?$DL_SignatureSchemeBase@VPK_Signer@CryptoPP@@V?$DL_PrivateKey@VInteger@CryptoPP@@@2@@CryptoPP@@IBEIXZ 00402726 f i dlltest.obj
 0001:00001743       ??_G?$DL_SignerImpl@U?$DL_SignatureSchemeOptions@UDSA@CryptoPP@@UDL_Keys_DSA@2@V?$DL_Algorithm_GDSA@VInteger@CryptoPP@@@2@VDL_SignatureMessageEncodingMethod_DSA@2@VSHA1@2@@CryptoPP@@@CryptoPP@@UAEPAXI@Z 00402743 f i dlltest.obj
 0001:00001743       ??_E?$DL_SignerImpl@U?$DL_SignatureSchemeOptions@UDSA@CryptoPP@@UDL_Keys_DSA@2@V?$DL_Algorithm_GDSA@VInteger@CryptoPP@@@2@VDL_SignatureMessageEncodingMethod_DSA@2@VSHA1@2@@CryptoPP@@@CryptoPP@@UAEPAXI@Z 00402743 f i dlltest.obj
 0001:00001760       ?AlgorithmName@?$AlgorithmImpl@V?$DL_SignerBase@VInteger@CryptoPP@@@CryptoPP@@UDSA@2@@CryptoPP@@UBE?AV?$basic_string@DU?$char_traits@D@std@@V?$allocator@D@2@@std@@XZ 00402760 f i dlltest.obj
 0001:0000177e       ??0?$DL_VerifierImpl@U?$DL_SignatureSchemeOptions@UDSA@CryptoPP@@UDL_Keys_DSA@2@V?$DL_Algorithm_GDSA@VInteger@CryptoPP@@@2@VDL_SignatureMessageEncodingMethod_DSA@2@VSHA1@2@@CryptoPP@@@CryptoPP@@QAE@XZ 0040277e f i dlltest.obj
 0001:0000179e       ?AccessPublicKey@?$DL_ObjectImplBase@V?$DL_VerifierBase@VInteger@CryptoPP@@@CryptoPP@@U?$DL_SignatureSchemeOptions@UDSA@CryptoPP@@UDL_Keys_DSA@2@V?$DL_Algorithm_GDSA@VInteger@CryptoPP@@@2@VDL_SignatureMessageEncodingMethod_DSA@2@VSHA1@2@@2@V?$DL_PublicKey_GFP@VDL_GroupParameters_DSA@CryptoPP@@@2@@CryptoPP@@UAEAAVPublicKey@2@XZ 0040279e f i dlltest.obj
 0001:000017ab       ?AccessKeyInterface@?$DL_ObjectImplBase@V?$DL_VerifierBase@VInteger@CryptoPP@@@CryptoPP@@U?$DL_SignatureSchemeOptions@UDSA@CryptoPP@@UDL_Keys_DSA@2@V?$DL_Algorithm_GDSA@VInteger@CryptoPP@@@2@VDL_SignatureMessageEncodingMethod_DSA@2@VSHA1@2@@2@V?$DL_PublicKey_GFP@VDL_GroupParameters_DSA@CryptoPP@@@2@@CryptoPP@@MAEAAV?$DL_PublicKey@VInteger@CryptoPP@@@2@XZ 004027ab f i dlltest.obj
 0001:000017af       ?GetKeyInterface@?$DL_ObjectImplBase@V?$DL_VerifierBase@VInteger@CryptoPP@@@CryptoPP@@U?$DL_SignatureSchemeOptions@UDSA@CryptoPP@@UDL_Keys_DSA@2@V?$DL_Algorithm_GDSA@VInteger@CryptoPP@@@2@VDL_SignatureMessageEncodingMethod_DSA@2@VSHA1@2@@2@V?$DL_PublicKey_GFP@VDL_GroupParameters_DSA@CryptoPP@@@2@@CryptoPP@@MBEABV?$DL_PublicKey@VInteger@CryptoPP@@@2@XZ 004027af f i dlltest.obj
 0001:000017b3       ?GetDigestSize@?$DL_ObjectImplBase@V?$DL_VerifierBase@VInteger@CryptoPP@@@CryptoPP@@U?$DL_SignatureSchemeOptions@UDSA@CryptoPP@@UDL_Keys_DSA@2@V?$DL_Algorithm_GDSA@VInteger@CryptoPP@@@2@VDL_SignatureMessageEncodingMethod_DSA@2@VSHA1@2@@2@V?$DL_PublicKey_GFP@VDL_GroupParameters_DSA@CryptoPP@@@2@@CryptoPP@@MBEIXZ 004027b3 f i dlltest.obj
 0001:000017b7       ?MaxRecoverableLength@?$DL_SignatureSchemeBase@VPK_Verifier@CryptoPP@@V?$DL_PublicKey@VInteger@CryptoPP@@@2@@CryptoPP@@UBEIXZ 004027b7 f i dlltest.obj
 0001:000017eb       ?MaxRecoverableLengthFromSignatureLength@?$DL_SignatureSchemeBase@VPK_Verifier@CryptoPP@@V?$DL_PublicKey@VInteger@CryptoPP@@@2@@CryptoPP@@UBEII@Z 004027eb f i dlltest.obj
 0001:000017f0       ?IsProbabilistic@?$DL_SignatureSchemeBase@VPK_Verifier@CryptoPP@@V?$DL_PublicKey@VInteger@CryptoPP@@@2@@CryptoPP@@UBE_NXZ 004027f0 f i dlltest.obj
 0001:000017f3       ?RecoverablePartFirst@?$DL_SignatureSchemeBase@VPK_Verifier@CryptoPP@@V?$DL_PublicKey@VInteger@CryptoPP@@@2@@CryptoPP@@UBE_NXZ 004027f3 f i dlltest.obj
 0001:000017ff       ??_E?$DL_VerifierImpl@U?$DL_SignatureSchemeOptions@UDSA@CryptoPP@@UDL_Keys_DSA@2@V?$DL_Algorithm_GDSA@VInteger@CryptoPP@@@2@VDL_SignatureMessageEncodingMethod_DSA@2@VSHA1@2@@CryptoPP@@@CryptoPP@@W3AEPAXI@Z 004027ff f i dlltest.obj
 0001:00001807       ?GetHashIdentifier@?$DL_ObjectImpl@V?$DL_VerifierBase@VInteger@CryptoPP@@@CryptoPP@@U?$DL_SignatureSchemeOptions@UDSA@CryptoPP@@UDL_Keys_DSA@2@V?$DL_Algorithm_GDSA@VInteger@CryptoPP@@@2@VDL_SignatureMessageEncodingMethod_DSA@2@VSHA1@2@@2@V?$DL_PublicKey_GFP@VDL_GroupParameters_DSA@CryptoPP@@@2@@CryptoPP@@MBE?AU?$pair@PBEI@std@@XZ 00402807 f i dlltest.obj
 0001:00001815       ?SignatureLength@?$DL_SignatureSchemeBase@VPK_Verifier@CryptoPP@@V?$DL_PublicKey@VInteger@CryptoPP@@@2@@CryptoPP@@UBEIXZ 00402815 f i dlltest.obj
 0001:00001863       ?NewVerificationAccumulator@?$DL_VerifierImpl@U?$DL_SignatureSchemeOptions@UDSA@CryptoPP@@UDL_Keys_DSA@2@V?$DL_Algorithm_GDSA@VInteger@CryptoPP@@@2@VDL_SignatureMessageEncodingMethod_DSA@2@VSHA1@2@@CryptoPP@@@CryptoPP@@UBEPAVPK_MessageAccumulator@2@XZ 00402863 f i dlltest.obj
 0001:000018b3       ?GetSignatureAlgorithm@?$DL_ObjectImpl@V?$DL_VerifierBase@VInteger@CryptoPP@@@CryptoPP@@U?$DL_SignatureSchemeOptions@UDSA@CryptoPP@@UDL_Keys_DSA@2@V?$DL_Algorithm_GDSA@VInteger@CryptoPP@@@2@VDL_SignatureMessageEncodingMethod_DSA@2@VSHA1@2@@2@V?$DL_PublicKey_GFP@VDL_GroupParameters_DSA@CryptoPP@@@2@@CryptoPP@@MBEABV?$DL_ElgamalLikeSignatureAlgorithm@VInteger@CryptoPP@@@2@XZ 004028b3 f i dlltest.obj
 0001:000018bf       ?GetMessageEncodingInterface@?$DL_ObjectImpl@V?$DL_VerifierBase@VInteger@CryptoPP@@@CryptoPP@@U?$DL_SignatureSchemeOptions@UDSA@CryptoPP@@UDL_Keys_DSA@2@V?$DL_Algorithm_GDSA@VInteger@CryptoPP@@@2@VDL_SignatureMessageEncodingMethod_DSA@2@VSHA1@2@@2@V?$DL_PublicKey_GFP@VDL_GroupParameters_DSA@CryptoPP@@@2@@CryptoPP@@MBEABVPK_SignatureMessageEncodingMethod@2@XZ 004028bf f i dlltest.obj
 0001:000018cb       ?VerifyAndRestart@?$DL_VerifierBase@VInteger@CryptoPP@@@CryptoPP@@UBE_NAAVPK_MessageAccumulator@2@@Z 004028cb f i dlltest.obj
 0001:00001a20       ?MessageRepresentativeBitLength@?$DL_SignatureSchemeBase@VPK_Verifier@CryptoPP@@V?$DL_PublicKey@VInteger@CryptoPP@@@2@@CryptoPP@@IBEIXZ 00402a20 f i dlltest.obj
 0001:00001a3d       ?RecoverAndRestart@?$DL_VerifierBase@VInteger@CryptoPP@@@CryptoPP@@UBE?AUDecodingResult@2@PAEAAVPK_MessageAccumulator@2@@Z 00402a3d f i dlltest.obj
 0001:00001c16       ??_G?$DL_VerifierImpl@U?$DL_SignatureSchemeOptions@UDSA@CryptoPP@@UDL_Keys_DSA@2@V?$DL_Algorithm_GDSA@VInteger@CryptoPP@@@2@VDL_SignatureMessageEncodingMethod_DSA@2@VSHA1@2@@CryptoPP@@@CryptoPP@@UAEPAXI@Z 00402c16 f i dlltest.obj
 0001:00001c16       ??_E?$DL_VerifierImpl@U?$DL_SignatureSchemeOptions@UDSA@CryptoPP@@UDL_Keys_DSA@2@V?$DL_Algorithm_GDSA@VInteger@CryptoPP@@@2@VDL_SignatureMessageEncodingMethod_DSA@2@VSHA1@2@@CryptoPP@@@CryptoPP@@UAEPAXI@Z 00402c16 f i dlltest.obj
 0001:00001c33       ?AlgorithmName@?$AlgorithmImpl@V?$DL_VerifierBase@VInteger@CryptoPP@@@CryptoPP@@UDSA@2@@CryptoPP@@UBE?AV?$basic_string@DU?$char_traits@D@std@@V?$allocator@D@2@@std@@XZ 00402c33 f i dlltest.obj
 0001:00001c51       ?RecoverablePartFirst@PK_SignatureMessageEncodingMethod@CryptoPP@@UBE_NXZ 00402c51 f i dlltest.obj
 0001:00001c8b       ?RecoverMessageFromRepresentative@PK_SignatureMessageEncodingMethod@CryptoPP@@UBE?AUDecodingResult@2@AAVHashTransformation@2@U?$pair@PBEI@std@@_NPAEI3@Z 00402c8b f i dlltest.obj
 0001:00001cc5       ?RecoverMessageFromSemisignature@PK_SignatureMessageEncodingMethod@CryptoPP@@UBE?AUDecodingResult@2@AAVHashTransformation@2@U?$pair@PBEI@std@@PBEI2IPAE@Z 00402cc5 f i dlltest.obj
 0001:00001cff       ?Assign@?$SecBlock@EV?$AllocatorWithCleanup@E$0A@@CryptoPP@@@CryptoPP@@QAEXPBEI@Z 00402cff f i dlltest.obj
 0001:00001d22       ?Assign@ConstByteArrayParameter@CryptoPP@@QAEXPBEI_N@Z 00402d22 f i dlltest.obj
 0001:00001d54       ??0?$PK_FinalTemplate@V?$DL_SignerImpl@U?$DL_SignatureSchemeOptions@UDSA@CryptoPP@@UDL_Keys_DSA@2@V?$DL_Algorithm_GDSA@VInteger@CryptoPP@@@2@VDL_SignatureMessageEncodingMethod_DSA@2@VSHA1@2@@CryptoPP@@@CryptoPP@@@CryptoPP@@QAE@ABVCryptoMaterial@1@@Z 00402d54 f i dlltest.obj
 0001:00001d91       ?InputRecoverableMessage@?$DL_SignerBase@VInteger@CryptoPP@@@CryptoPP@@UBEXAAVPK_MessageAccumulator@2@PBEI@Z 00402d91 f i dlltest.obj
 0001:00001ddb       ?AllowNonrecoverablePart@?$DL_SignatureSchemeBase@VPK_Signer@CryptoPP@@V?$DL_PrivateKey@VInteger@CryptoPP@@@2@@CryptoPP@@UBE_NXZ 00402ddb f i dlltest.obj
 0001:00001de7       ?AllowNonrecoverablePart@PK_SignatureMessageEncodingMethod@CryptoPP@@QBE_NXZ 00402de7 f i dlltest.obj
 0001:00001e21       ??0?$PK_FinalTemplate@V?$DL_VerifierImpl@U?$DL_SignatureSchemeOptions@UDSA@CryptoPP@@UDL_Keys_DSA@2@V?$DL_Algorithm_GDSA@VInteger@CryptoPP@@@2@VDL_SignatureMessageEncodingMethod_DSA@2@VSHA1@2@@CryptoPP@@@CryptoPP@@@CryptoPP@@QAE@ABVCryptoMaterial@1@@Z 00402e21 f i dlltest.obj
 0001:00001e5e       ?InputSignature@?$DL_VerifierBase@VInteger@CryptoPP@@@CryptoPP@@UBEXAAVPK_MessageAccumulator@2@PBEI@Z 00402e5e f i dlltest.obj
 0001:00001ee0       ?AllowNonrecoverablePart@?$DL_SignatureSchemeBase@VPK_Verifier@CryptoPP@@V?$DL_PublicKey@VInteger@CryptoPP@@@2@@CryptoPP@@UBE_NXZ 00402ee0 f i dlltest.obj
 0001:00001eec       ??$?0V?$basic_string@DU?$char_traits@D@std@@V?$allocator@D@2@@std@@@ConstByteArrayParameter@CryptoPP@@QAE@ABV?$basic_string@DU?$char_traits@D@std@@V?$allocator@D@2@@std@@_N@Z 00402eec f i dlltest.obj
 0001:00001f3c       ??$?0V?$basic_string@DU?$char_traits@D@std@@V?$allocator@D@2@@std@@@StringStore@CryptoPP@@QAE@ABV?$basic_string@DU?$char_traits@D@std@@V?$allocator@D@2@@std@@@Z 00402f3c f i dlltest.obj
 0001:00001fc6       ??_EStringStore@CryptoPP@@W3AEPAXI@Z 00402fc6 f i dlltest.obj
 0001:00001fce       ??_GStringStore@CryptoPP@@UAEPAXI@Z 00402fce f i dlltest.obj
 0001:00001fce       ??_EStringStore@CryptoPP@@UAEPAXI@Z 00402fce f i dlltest.obj
 0001:00001feb       ?FIPS140_SampleApplication@@YGXXZ 00402feb f   dlltest.obj
 0001:000027a6       _main                      004037a6 f   dlltest.obj
 0001:000027ae       ?AlgorithmName@?$AlgorithmImpl@V?$ConcretePolicyHolder@VEmpty@CryptoPP@@V?$CFB_RequireFullDataBlocks@V?$CFB_EncryptionTemplate@V?$AbstractPolicyHolder@VCFB_CipherAbstractPolicy@CryptoPP@@VCFB_ModePolicy@2@@CryptoPP@@@CryptoPP@@@2@VCFB_CipherAbstractPolicy@2@@CryptoPP@@V?$CipherModeFinalTemplate_CipherHolder@V?$BlockCipherFinal@$0A@VBase@DES_EDE3@CryptoPP@@@CryptoPP@@V?$ConcretePolicyHolder@VEmpty@CryptoPP@@V?$CFB_RequireFullDataBlocks@V?$CFB_EncryptionTemplate@V?$AbstractPolicyHolder@VCFB_CipherAbstractPolicy@CryptoPP@@VCFB_ModePolicy@2@@CryptoPP@@@CryptoPP@@@2@VCFB_CipherAbstractPolicy@2@@2@@2@@CryptoPP@@UBE?AV?$basic_string@DU?$char_traits@D@std@@V?$allocator@D@2@@std@@XZ 004037ae f i dlltest.obj
 0001:000027c6       ?StaticAlgorithmName@?$CipherModeFinalTemplate_CipherHolder@V?$BlockCipherFinal@$0A@VBase@DES_EDE3@CryptoPP@@@CryptoPP@@V?$ConcretePolicyHolder@VEmpty@CryptoPP@@V?$CFB_RequireFullDataBlocks@V?$CFB_EncryptionTemplate@V?$AbstractPolicyHolder@VCFB_CipherAbstractPolicy@CryptoPP@@VCFB_ModePolicy@2@@CryptoPP@@@CryptoPP@@@2@VCFB_CipherAbstractPolicy@2@@2@@CryptoPP@@SA?AV?$basic_string@DU?$char_traits@D@std@@V?$allocator@D@2@@std@@XZ 004037c6 f i dlltest.obj
 0001:00002844       ??$?HDU?$char_traits@D@std@@V?$allocator@D@1@@std@@YA?AV?$basic_string@DU?$char_traits@D@std@@V?$allocator@D@2@@0@ABV10@PBD@Z 00403844 f i dlltest.obj
 0001:000028aa       ?append@?$basic_string@DU?$char_traits@D@std@@V?$allocator@D@2@@std@@QAEAAV12@PBDI@Z 004038aa f i dlltest.obj
 0001:0000293a       ?append@?$basic_string@DU?$char_traits@D@std@@V?$allocator@D@2@@std@@QAEAAV12@ABV12@II@Z 0040393a f i dlltest.obj
 0001:000029cf       ??0?$basic_string@DU?$char_traits@D@std@@V?$allocator@D@2@@std@@QAE@ABV01@@Z 004039cf f i dlltest.obj
 0001:000029f5       ?AlgorithmName@?$AlgorithmImpl@V?$ConcretePolicyHolder@VEmpty@CryptoPP@@V?$CFB_RequireFullDataBlocks@V?$CFB_DecryptionTemplate@V?$AbstractPolicyHolder@VCFB_CipherAbstractPolicy@CryptoPP@@VCFB_ModePolicy@2@@CryptoPP@@@CryptoPP@@@2@VCFB_CipherAbstractPolicy@2@@CryptoPP@@V?$CipherModeFinalTemplate_CipherHolder@V?$BlockCipherFinal@$0A@VBase@DES_EDE3@CryptoPP@@@CryptoPP@@V?$ConcretePolicyHolder@VEmpty@CryptoPP@@V?$CFB_RequireFullDataBlocks@V?$CFB_DecryptionTemplate@V?$AbstractPolicyHolder@VCFB_CipherAbstractPolicy@CryptoPP@@VCFB_ModePolicy@2@@CryptoPP@@@CryptoPP@@@2@VCFB_CipherAbstractPolicy@2@@2@@2@@CryptoPP@@UBE?AV?$basic_string@DU?$char_traits@D@std@@V?$allocator@D@2@@std@@XZ 004039f5 f i dlltest.obj
 0001:00002a0d       ?StaticAlgorithmName@?$CipherModeFinalTemplate_CipherHolder@V?$BlockCipherFinal@$0A@VBase@DES_EDE3@CryptoPP@@@CryptoPP@@V?$ConcretePolicyHolder@VEmpty@CryptoPP@@V?$CFB_RequireFullDataBlocks@V?$CFB_DecryptionTemplate@V?$AbstractPolicyHolder@VCFB_CipherAbstractPolicy@CryptoPP@@VCFB_ModePolicy@2@@CryptoPP@@@CryptoPP@@@2@VCFB_CipherAbstractPolicy@2@@2@@CryptoPP@@SA?AV?$basic_string@DU?$char_traits@D@std@@V?$allocator@D@2@@std@@XZ 00403a0d f i dlltest.obj
 0001:00002a8b       ?AlgorithmName@?$AlgorithmImpl@VECB_OneWay@CryptoPP@@V?$CipherModeFinalTemplate_CipherHolder@V?$BlockCipherFinal@$0A@VBase@DES_EDE3@CryptoPP@@@CryptoPP@@VECB_OneWay@2@@2@@CryptoPP@@UBE?AV?$basic_string@DU?$char_traits@D@std@@V?$allocator@D@2@@std@@XZ 00403a8b f i dlltest.obj
 0001:00002aa3       ?StaticAlgorithmName@?$CipherModeFinalTemplate_CipherHolder@V?$BlockCipherFinal@$0A@VBase@DES_EDE3@CryptoPP@@@CryptoPP@@VECB_OneWay@2@@CryptoPP@@SA?AV?$basic_string@DU?$char_traits@D@std@@V?$allocator@D@2@@std@@XZ 00403aa3 f i dlltest.obj
 0001:00002b21       ??1?$simple_ptr@VDL_SignatureMessageEncodingMethod_DSA@CryptoPP@@@CryptoPP@@QAE@XZ 00403b21 f i dlltest.obj
 0001:00002b36       ??1Enc@Rijndael@CryptoPP@@UAE@XZ 00403b36 f   cryptopp:cryptopp.dll
 0001:00002b3c       ??1ECB_OneWay@CryptoPP@@UAE@XZ 00403b3c f   cryptopp:cryptopp.dll
 0001:00002b42       ??1Base@DES_EDE3@CryptoPP@@UAE@XZ 00403b42 f   cryptopp:cryptopp.dll
 0001:00002b48       ??1?$CFB_EncryptionTemplate@V?$AbstractPolicyHolder@VCFB_CipherAbstractPolicy@CryptoPP@@VCFB_ModePolicy@2@@CryptoPP@@@CryptoPP@@UAE@XZ 00403b48 f   cryptopp:cryptopp.dll
 0001:00002b4e       ??1?$CFB_DecryptionTemplate@V?$AbstractPolicyHolder@VCFB_CipherAbstractPolicy@CryptoPP@@VCFB_ModePolicy@2@@CryptoPP@@@CryptoPP@@UAE@XZ 00403b4e f   cryptopp:cryptopp.dll
 0001:00002b54       ?allocate@?$AllocatorWithCleanup@E$0A@@CryptoPP@@QAEPAEIPBX@Z 00403b54 f   cryptopp:cryptopp.dll
 0001:00002b5a       ?deallocate@?$AllocatorWithCleanup@E$0A@@CryptoPP@@QAEXPAXI@Z 00403b5a f   cryptopp:cryptopp.dll
 0001:00002b60       ?reallocate@?$AllocatorWithCleanup@E$0A@@CryptoPP@@QAEPAEPAEII_N@Z 00403b60 f   cryptopp:cryptopp.dll
 0001:00002b66       ??0Enc@Rijndael@CryptoPP@@QAE@XZ 00403b66 f   cryptopp:cryptopp.dll
 0001:00002b6c       ??0ECB_OneWay@CryptoPP@@QAE@XZ 00403b6c f   cryptopp:cryptopp.dll
 0001:00002b72       ?CipherResynchronize@CFB_ModePolicy@CryptoPP@@MAEXPBEI@Z 00403b72 f   cryptopp:cryptopp.dll
 0001:00002b78       ?CipherSetKey@?$ModePolicyCommonTemplate@VCFB_CipherAbstractPolicy@CryptoPP@@@CryptoPP@@EAEXABVNameValuePairs@2@PBEI@Z 00403b78 f   cryptopp:cryptopp.dll
 0001:00002b7e       ?Iterate@CFB_ModePolicy@CryptoPP@@MAEXPAEPBEW4CipherDir@2@I@Z 00403b7e f   cryptopp:cryptopp.dll
 0001:00002b84       ?CanIterate@CFB_ModePolicy@CryptoPP@@MBE_NXZ 00403b84 f   cryptopp:cryptopp.dll
 0001:00002b8a       ?TransformRegister@CFB_ModePolicy@CryptoPP@@MAEXXZ 00403b8a f   cryptopp:cryptopp.dll
 0001:00002b90       ?GetRegisterBegin@CFB_ModePolicy@CryptoPP@@MAEPAEXZ 00403b90 f   cryptopp:cryptopp.dll
 0001:00002b96       ?GetBytesPerIteration@CFB_ModePolicy@CryptoPP@@MBEIXZ 00403b96 f   cryptopp:cryptopp.dll
 0001:00002b9c       ?GetAlignment@?$ModePolicyCommonTemplate@VCFB_CipherAbstractPolicy@CryptoPP@@@CryptoPP@@EBEIXZ 00403b9c f   cryptopp:cryptopp.dll
 0001:00002ba2       ?IsForwardTransformation@?$CFB_EncryptionTemplate@V?$AbstractPolicyHolder@VCFB_CipherAbstractPolicy@CryptoPP@@VCFB_ModePolicy@2@@CryptoPP@@@CryptoPP@@EBE_NXZ 00403ba2 f   cryptopp:cryptopp.dll
 0001:00002ba8       ?IsSelfInverting@?$CFB_CipherTemplate@V?$AbstractPolicyHolder@VCFB_CipherAbstractPolicy@CryptoPP@@VCFB_ModePolicy@2@@CryptoPP@@@CryptoPP@@UBE_NXZ 00403ba8 f   cryptopp:cryptopp.dll
 0001:00002bae       ?Seek@StreamTransformation@CryptoPP@@UAEX_K@Z 00403bae f   cryptopp:cryptopp.dll
 0001:00002bb4       ?IsRandomAccess@?$CFB_CipherTemplate@V?$AbstractPolicyHolder@VCFB_CipherAbstractPolicy@CryptoPP@@VCFB_ModePolicy@2@@CryptoPP@@@CryptoPP@@UBE_NXZ 00403bb4 f   cryptopp:cryptopp.dll
 0001:00002bba       ?MinLastBlockSize@StreamTransformation@CryptoPP@@UBEIXZ 00403bba f   cryptopp:cryptopp.dll
 0001:00002bc0       ?ProcessLastBlock@StreamTransformation@CryptoPP@@UAEXPAEPBEI@Z 00403bc0 f   cryptopp:cryptopp.dll
 0001:00002bc6       ?ProcessData@?$CFB_CipherTemplate@V?$AbstractPolicyHolder@VCFB_CipherAbstractPolicy@CryptoPP@@VCFB_ModePolicy@2@@CryptoPP@@@CryptoPP@@UAEXPAEPBEI@Z 00403bc6 f   cryptopp:cryptopp.dll
 0001:00002bcc       ?OptimalDataAlignment@?$CFB_CipherTemplate@V?$AbstractPolicyHolder@VCFB_CipherAbstractPolicy@CryptoPP@@VCFB_ModePolicy@2@@CryptoPP@@@CryptoPP@@UBEIXZ 00403bcc f   cryptopp:cryptopp.dll
 0001:00002bd2       ?GetOptimalBlockSizeUsed@StreamTransformation@CryptoPP@@UBEIXZ 00403bd2 f   cryptopp:cryptopp.dll
 0001:00002bd8       ?OptimalBlockSize@?$CFB_CipherTemplate@V?$AbstractPolicyHolder@VCFB_CipherAbstractPolicy@CryptoPP@@VCFB_ModePolicy@2@@CryptoPP@@@CryptoPP@@UBEIXZ 00403bd8 f   cryptopp:cryptopp.dll
 0001:00002bde       ?AlgorithmName@Algorithm@CryptoPP@@UBE?AV?$basic_string@DU?$char_traits@D@std@@V?$allocator@D@2@@std@@XZ 00403bde f   cryptopp:cryptopp.dll
 0001:00002be4       ?Clone@Clonable@CryptoPP@@UBEPAV12@XZ 00403be4 f   cryptopp:cryptopp.dll
 0001:00002bea       ?CombineMessageAndShiftRegister@?$CFB_EncryptionTemplate@V?$AbstractPolicyHolder@VCFB_CipherAbstractPolicy@CryptoPP@@VCFB_ModePolicy@2@@CryptoPP@@@CryptoPP@@EAEXPAE0PBEI@Z 00403bea f   cryptopp:cryptopp.dll
 0001:00002bf0       ?ResizeBuffers@CFB_ModePolicy@CryptoPP@@MAEXXZ 00403bf0 f   cryptopp:cryptopp.dll
 0001:00002bf6       ?SetFeedbackSize@CFB_ModePolicy@CryptoPP@@MAEXI@Z 00403bf6 f   cryptopp:cryptopp.dll
 0001:00002bfc       ?UncheckedSetKey@?$CFB_CipherTemplate@V?$AbstractPolicyHolder@VCFB_CipherAbstractPolicy@CryptoPP@@VCFB_ModePolicy@2@@CryptoPP@@@CryptoPP@@MAEXPBEIABVNameValuePairs@2@@Z 00403bfc f   cryptopp:cryptopp.dll
 0001:00002c02       ?GetAlgorithm@SymmetricCipher@CryptoPP@@MBEABVAlgorithm@2@XZ 00403c02 f   cryptopp:cryptopp.dll
 0001:00002c08       ?GetNextIV@SimpleKeyingInterface@CryptoPP@@UAEXAAVRandomNumberGenerator@2@PAE@Z 00403c08 f   cryptopp:cryptopp.dll
 0001:00002c0e       ?Resynchronize@?$CFB_CipherTemplate@V?$AbstractPolicyHolder@VCFB_CipherAbstractPolicy@CryptoPP@@VCFB_ModePolicy@2@@CryptoPP@@@CryptoPP@@UAEXPBEH@Z 00403c0e f   cryptopp:cryptopp.dll
 0001:00002c14       ?MaxIVLength@SimpleKeyingInterface@CryptoPP@@UBEIXZ 00403c14 f   cryptopp:cryptopp.dll
 0001:00002c1a       ?MinIVLength@SimpleKeyingInterface@CryptoPP@@UBEIXZ 00403c1a f   cryptopp:cryptopp.dll
 0001:00002c20       ?IVSize@CipherModeBase@CryptoPP@@UBEIXZ 00403c20 f   cryptopp:cryptopp.dll
 0001:00002c26       ?IVRequirement@CFB_ModePolicy@CryptoPP@@UBE?AW4IV_Requirement@SimpleKeyingInterface@2@XZ 00403c26 f   cryptopp:cryptopp.dll
 0001:00002c2c       ?SetKey@SimpleKeyingInterface@CryptoPP@@UAEXPBEIABVNameValuePairs@2@@Z 00403c2c f   cryptopp:cryptopp.dll
 0001:00002c32       ?IsValidKeyLength@CipherModeBase@CryptoPP@@UBE_NI@Z 00403c32 f   cryptopp:cryptopp.dll
 0001:00002c38       ?GetValidKeyLength@CipherModeBase@CryptoPP@@UBEII@Z 00403c38 f   cryptopp:cryptopp.dll
 0001:00002c3e       ?DefaultKeyLength@CipherModeBase@CryptoPP@@UBEIXZ 00403c3e f   cryptopp:cryptopp.dll
 0001:00002c44       ?MaxKeyLength@CipherModeBase@CryptoPP@@UBEIXZ 00403c44 f   cryptopp:cryptopp.dll
 0001:00002c4a       ?MinKeyLength@CipherModeBase@CryptoPP@@UBEIXZ 00403c4a f   cryptopp:cryptopp.dll
 0001:00002c50       ??0?$CFB_EncryptionTemplate@V?$AbstractPolicyHolder@VCFB_CipherAbstractPolicy@CryptoPP@@VCFB_ModePolicy@2@@CryptoPP@@@CryptoPP@@QAE@XZ 00403c50 f   cryptopp:cryptopp.dll
 0001:00002c56       ?IsForwardTransformation@?$CFB_DecryptionTemplate@V?$AbstractPolicyHolder@VCFB_CipherAbstractPolicy@CryptoPP@@VCFB_ModePolicy@2@@CryptoPP@@@CryptoPP@@EBE_NXZ 00403c56 f   cryptopp:cryptopp.dll
 0001:00002c5c       ?CombineMessageAndShiftRegister@?$CFB_DecryptionTemplate@V?$AbstractPolicyHolder@VCFB_CipherAbstractPolicy@CryptoPP@@VCFB_ModePolicy@2@@CryptoPP@@@CryptoPP@@EAEXPAE0PBEI@Z 00403c5c f   cryptopp:cryptopp.dll
 0001:00002c62       ??0?$CFB_DecryptionTemplate@V?$AbstractPolicyHolder@VCFB_CipherAbstractPolicy@CryptoPP@@VCFB_ModePolicy@2@@CryptoPP@@@CryptoPP@@QAE@XZ 00403c62 f   cryptopp:cryptopp.dll
 0001:00002c68       ??1Store@CryptoPP@@UAE@XZ  00403c68 f   cryptopp:cryptopp.dll
 0001:00002c6e       ??0Base@DES_EDE3@CryptoPP@@QAE@XZ 00403c6e f   cryptopp:cryptopp.dll
 0001:00002c74       ?AdvancedProcessBlocks@Enc@Rijndael@CryptoPP@@UBEIPBE0PAEII@Z 00403c74 f   cryptopp:cryptopp.dll
 0001:00002c7a       ?OptimalNumberOfParallelBlocks@BlockTransformation@CryptoPP@@UBEIXZ 00403c7a f   cryptopp:cryptopp.dll
 0001:00002c80       ?IsPermutation@BlockTransformation@CryptoPP@@UBE_NXZ 00403c80 f   cryptopp:cryptopp.dll
 0001:00002c86       ?OptimalDataAlignment@BlockTransformation@CryptoPP@@UBEIXZ 00403c86 f   cryptopp:cryptopp.dll
 0001:00002c8c       ?BlockSize@?$BlockCipherImpl@URijndael_Info@CryptoPP@@VBlockCipher@2@@CryptoPP@@UBEIXZ 00403c8c f   cryptopp:cryptopp.dll
 0001:00002c92       ?ProcessAndXorBlock@Enc@Rijndael@CryptoPP@@UBEXPBE0PAE@Z 00403c92 f   cryptopp:cryptopp.dll
 0001:00002c98       ?AlgorithmName@?$AlgorithmImpl@V?$SimpleKeyingInterfaceImpl@V?$TwoBases@VBlockCipher@CryptoPP@@URijndael_Info@2@@CryptoPP@@V12@@CryptoPP@@V12@@CryptoPP@@UBE?AV?$basic_string@DU?$char_traits@D@std@@V?$allocator@D@2@@std@@XZ 00403c98 f   cryptopp:cryptopp.dll
 0001:00002c9e       ?UncheckedSetKey@Base@Rijndael@CryptoPP@@UAEXPBEIABVNameValuePairs@3@@Z 00403c9e f   cryptopp:cryptopp.dll
 0001:00002ca4       ?GetAlgorithm@BlockCipher@CryptoPP@@MBEABVAlgorithm@2@XZ 00403ca4 f   cryptopp:cryptopp.dll
 0001:00002caa       ?Resynchronize@SimpleKeyingInterface@CryptoPP@@UAEXPBEH@Z 00403caa f   cryptopp:cryptopp.dll
 0001:00002cb0       ?IVSize@?$SimpleKeyingInterfaceImpl@V?$TwoBases@VBlockCipher@CryptoPP@@URijndael_Info@2@@CryptoPP@@V12@@CryptoPP@@UBEIXZ 00403cb0 f   cryptopp:cryptopp.dll
 0001:00002cb6       ?IVRequirement@?$SimpleKeyingInterfaceImpl@V?$TwoBases@VBlockCipher@CryptoPP@@URijndael_Info@2@@CryptoPP@@V12@@CryptoPP@@UBE?AW4IV_Requirement@SimpleKeyingInterface@2@XZ 00403cb6 f   cryptopp:cryptopp.dll
 0001:00002cbc       ?IsValidKeyLength@SimpleKeyingInterface@CryptoPP@@UBE_NI@Z 00403cbc f   cryptopp:cryptopp.dll
 0001:00002cc2       ?GetValidKeyLength@?$SimpleKeyingInterfaceImpl@V?$TwoBases@VBlockCipher@CryptoPP@@URijndael_Info@2@@CryptoPP@@V12@@CryptoPP@@UBEII@Z 00403cc2 f   cryptopp:cryptopp.dll
 0001:00002cc8       ?DefaultKeyLength@?$SimpleKeyingInterfaceImpl@V?$TwoBases@VBlockCipher@CryptoPP@@URijndael_Info@2@@CryptoPP@@V12@@CryptoPP@@UBEIXZ 00403cc8 f   cryptopp:cryptopp.dll
 0001:00002cce       ?MaxKeyLength@?$SimpleKeyingInterfaceImpl@V?$TwoBases@VBlockCipher@CryptoPP@@URijndael_Info@2@@CryptoPP@@V12@@CryptoPP@@UBEIXZ 00403cce f   cryptopp:cryptopp.dll
 0001:00002cd4       ?MinKeyLength@?$SimpleKeyingInterfaceImpl@V?$TwoBases@VBlockCipher@CryptoPP@@URijndael_Info@2@@CryptoPP@@V12@@CryptoPP@@UBEIXZ 00403cd4 f   cryptopp:cryptopp.dll
 0001:00002cda       ??1PK_SignatureScheme@CryptoPP@@UAE@XZ 00403cda f   cryptopp:cryptopp.dll
 0001:00002ce0       ??0Algorithm@CryptoPP@@QAE@_N@Z 00403ce0 f   cryptopp:cryptopp.dll
 0001:00002ce6       ?AdvancedProcessBlocks@BlockTransformation@CryptoPP@@UBEIPBE0PAEII@Z 00403ce6 f   cryptopp:cryptopp.dll
 0001:00002cec       ?BlockSize@?$BlockCipherImpl@UDES_EDE3_Info@CryptoPP@@VBlockCipher@2@@CryptoPP@@UBEIXZ 00403cec f   cryptopp:cryptopp.dll
 0001:00002cf2       ?ProcessAndXorBlock@Base@DES_EDE3@CryptoPP@@UBEXPBE0PAE@Z 00403cf2 f   cryptopp:cryptopp.dll
 0001:00002cf8       ?AlgorithmName@?$AlgorithmImpl@V?$SimpleKeyingInterfaceImpl@V?$TwoBases@VBlockCipher@CryptoPP@@UDES_EDE3_Info@2@@CryptoPP@@V12@@CryptoPP@@V12@@CryptoPP@@UBE?AV?$basic_string@DU?$char_traits@D@std@@V?$allocator@D@2@@std@@XZ 00403cf8 f   cryptopp:cryptopp.dll
 0001:00002cfe       ?UncheckedSetKey@Base@DES_EDE3@CryptoPP@@UAEXPBEIABVNameValuePairs@3@@Z 00403cfe f   cryptopp:cryptopp.dll
 0001:00002d04       ?IVSize@?$SimpleKeyingInterfaceImpl@V?$TwoBases@VBlockCipher@CryptoPP@@UDES_EDE3_Info@2@@CryptoPP@@V12@@CryptoPP@@UBEIXZ 00403d04 f   cryptopp:cryptopp.dll
 0001:00002d0a       ?IVRequirement@?$SimpleKeyingInterfaceImpl@V?$TwoBases@VBlockCipher@CryptoPP@@UDES_EDE3_Info@2@@CryptoPP@@V12@@CryptoPP@@UBE?AW4IV_Requirement@SimpleKeyingInterface@2@XZ 00403d0a f   cryptopp:cryptopp.dll
 0001:00002d10       ?GetValidKeyLength@?$SimpleKeyingInterfaceImpl@V?$TwoBases@VBlockCipher@CryptoPP@@UDES_EDE3_Info@2@@CryptoPP@@V12@@CryptoPP@@UBEII@Z 00403d10 f   cryptopp:cryptopp.dll
 0001:00002d16       ?DefaultKeyLength@?$SimpleKeyingInterfaceImpl@V?$TwoBases@VBlockCipher@CryptoPP@@UDES_EDE3_Info@2@@CryptoPP@@V12@@CryptoPP@@UBEIXZ 00403d16 f   cryptopp:cryptopp.dll
 0001:00002d1c       ?MaxKeyLength@?$SimpleKeyingInterfaceImpl@V?$TwoBases@VBlockCipher@CryptoPP@@UDES_EDE3_Info@2@@CryptoPP@@V12@@CryptoPP@@UBEIXZ 00403d1c f   cryptopp:cryptopp.dll
 0001:00002d22       ?MinKeyLength@?$SimpleKeyingInterfaceImpl@V?$TwoBases@VBlockCipher@CryptoPP@@UDES_EDE3_Info@2@@CryptoPP@@V12@@CryptoPP@@UBEIXZ 00403d22 f   cryptopp:cryptopp.dll
 0001:00002d28       ?MoveInto@?$AlgorithmParametersTemplate@VConstByteArrayParameter@CryptoPP@@@CryptoPP@@UBEXPAX@Z 00403d28 f   cryptopp:cryptopp.dll
 0001:00002d2e       ?AssignValue@?$AlgorithmParametersTemplate@VConstByteArrayParameter@CryptoPP@@@CryptoPP@@UBEXPBDABVtype_info@@PAX@Z 00403d2e f   cryptopp:cryptopp.dll
 0001:00002d34       ??0?$AlgorithmParametersTemplate@VConstByteArrayParameter@CryptoPP@@@CryptoPP@@QAE@PBDABVConstByteArrayParameter@1@_N@Z 00403d34 f   cryptopp:cryptopp.dll
 0001:00002d3a       ??1?$AlgorithmParametersTemplate@VConstByteArrayParameter@CryptoPP@@@CryptoPP@@UAE@XZ 00403d3a f   cryptopp:cryptopp.dll
 0001:00002d40       ??0Enc@Rijndael@CryptoPP@@QAE@ABV012@@Z 00403d40 f   cryptopp:cryptopp.dll
 0001:00002d46       ??0Base@DES_EDE3@CryptoPP@@QAE@ABV012@@Z 00403d46 f   cryptopp:cryptopp.dll
 0001:00002d4c       ??1AlgorithmParameters@CryptoPP@@UAE@XZ 00403d4c f   cryptopp:cryptopp.dll
 0001:00002d52       ??0AlgorithmParameters@CryptoPP@@QAE@ABV01@@Z 00403d52 f   cryptopp:cryptopp.dll
 0001:00002d58       ??0AlgorithmParameters@CryptoPP@@QAE@XZ 00403d58 f   cryptopp:cryptopp.dll
 0001:00002d5e       ??_D?$DL_PrivateKey_WithSignaturePairwiseConsistencyTest@V?$DL_PrivateKey_GFP@VDL_GroupParameters_DSA@CryptoPP@@@CryptoPP@@UDSA@2@@CryptoPP@@QAEXXZ 00403d5e f   cryptopp:cryptopp.dll
 0001:00002d64       ??_D?$DL_PublicKey_GFP@VDL_GroupParameters_DSA@CryptoPP@@@CryptoPP@@QAEXXZ 00403d64 f   cryptopp:cryptopp.dll
 0001:00002d6a       ?IsForwardTransformation@BlockOrientedCipherModeBase@CryptoPP@@UBE_NXZ 00403d6a f   cryptopp:cryptopp.dll
 0001:00002d70       ?IsSelfInverting@BlockOrientedCipherModeBase@CryptoPP@@UBE_NXZ 00403d70 f   cryptopp:cryptopp.dll
 0001:00002d76       ?IsRandomAccess@BlockOrientedCipherModeBase@CryptoPP@@UBE_NXZ 00403d76 f   cryptopp:cryptopp.dll
 0001:00002d7c       ?ProcessData@ECB_OneWay@CryptoPP@@UAEXPAEPBEI@Z 00403d7c f   cryptopp:cryptopp.dll
 0001:00002d82       ?OptimalDataAlignment@CipherModeBase@CryptoPP@@UBEIXZ 00403d82 f   cryptopp:cryptopp.dll
 0001:00002d88       ?OptimalBlockSize@ECB_OneWay@CryptoPP@@UBEIXZ 00403d88 f   cryptopp:cryptopp.dll
 0001:00002d8e       ?MandatoryBlockSize@BlockOrientedCipherModeBase@CryptoPP@@UBEIXZ 00403d8e f   cryptopp:cryptopp.dll
 0001:00002d94       ?ResizeBuffers@BlockOrientedCipherModeBase@CryptoPP@@MAEXXZ 00403d94 f   cryptopp:cryptopp.dll
 0001:00002d9a       ?SetFeedbackSize@CipherModeBase@CryptoPP@@MAEXI@Z 00403d9a f   cryptopp:cryptopp.dll
 0001:00002da0       ?UncheckedSetKey@BlockOrientedCipherModeBase@CryptoPP@@UAEXPBEIABVNameValuePairs@2@@Z 00403da0 f   cryptopp:cryptopp.dll
 0001:00002da6       ?Resynchronize@BlockOrientedCipherModeBase@CryptoPP@@UAEXPBEH@Z 00403da6 f   cryptopp:cryptopp.dll
 0001:00002dac       ?IVRequirement@ECB_OneWay@CryptoPP@@UBE?AW4IV_Requirement@SimpleKeyingInterface@2@XZ 00403dac f   cryptopp:cryptopp.dll
 0001:00002db2       ?SetKey@ECB_OneWay@CryptoPP@@UAEXPBEIABVNameValuePairs@2@@Z 00403db2 f   cryptopp:cryptopp.dll
 0001:00002db8       ??0?$DL_PrivateKey_WithSignaturePairwiseConsistencyTest@V?$DL_PrivateKey_GFP@VDL_GroupParameters_DSA@CryptoPP@@@CryptoPP@@UDSA@2@@CryptoPP@@QAE@XZ 00403db8 f   cryptopp:cryptopp.dll
 0001:00002dbe       ??0?$DL_PublicKey_GFP@VDL_GroupParameters_DSA@CryptoPP@@@CryptoPP@@QAE@XZ 00403dbe f   cryptopp:cryptopp.dll
 0001:00002dc4       ??0Exception@CryptoPP@@QAE@ABV01@@Z 00403dc4 f   cryptopp:cryptopp.dll
 0001:00002dca       ??0InvalidArgument@CryptoPP@@QAE@ABV01@@Z 00403dca f   cryptopp:cryptopp.dll
 0001:00002dd0       ??1InvalidArgument@CryptoPP@@UAE@XZ 00403dd0 f   cryptopp:cryptopp.dll
 0001:00002dd6       ??0InvalidArgument@CryptoPP@@QAE@ABV?$basic_string@DU?$char_traits@D@std@@V?$allocator@D@2@@std@@@Z 00403dd6 f   cryptopp:cryptopp.dll
 0001:00002ddc       ?GetPrivateKey@PrivateKeyAlgorithm@CryptoPP@@UBEABVPrivateKey@2@XZ 00403ddc f   cryptopp:cryptopp.dll
 0001:00002de2       ?GetMaterial@PrivateKeyAlgorithm@CryptoPP@@UBEABVCryptoMaterial@2@XZ 00403de2 f   cryptopp:cryptopp.dll
 0001:00002de8       ?AccessMaterial@PrivateKeyAlgorithm@CryptoPP@@UAEAAVCryptoMaterial@2@XZ 00403de8 f   cryptopp:cryptopp.dll
 0001:00002dee       ?SignMessageWithRecovery@PK_Signer@CryptoPP@@UBEIAAVRandomNumberGenerator@2@PBEI1IPAE@Z 00403dee f   cryptopp:cryptopp.dll
 0001:00002df4       ?SignMessage@PK_Signer@CryptoPP@@UBEIAAVRandomNumberGenerator@2@PBEIPAE@Z 00403df4 f   cryptopp:cryptopp.dll
 0001:00002dfa       ?Sign@PK_Signer@CryptoPP@@UBEIAAVRandomNumberGenerator@2@PAVPK_MessageAccumulator@2@PAE@Z 00403dfa f   cryptopp:cryptopp.dll
 0001:00002e00       ?SignatureUpfront@PK_SignatureScheme@CryptoPP@@UBE_NXZ 00403e00 f   cryptopp:cryptopp.dll
 0001:00002e06       ?MaxSignatureLength@PK_SignatureScheme@CryptoPP@@UBEII@Z 00403e06 f   cryptopp:cryptopp.dll
 0001:00002e0c       ?VerifyTruncatedDigest@HashTransformation@CryptoPP@@UAE_NPBEI0I@Z 00403e0c f   cryptopp:cryptopp.dll
 0001:00002e12       ?TruncatedVerify@HashTransformation@CryptoPP@@UAE_NPBEI@Z 00403e12 f   cryptopp:cryptopp.dll
 0001:00002e18       ?CalculateTruncatedDigest@HashTransformation@CryptoPP@@UAEXPAEIPBEI@Z 00403e18 f   cryptopp:cryptopp.dll
 0001:00002e1e       ?TruncatedFinal@PK_MessageAccumulator@CryptoPP@@UAEXPAEI@Z 00403e1e f   cryptopp:cryptopp.dll
 0001:00002e24       ?VerifyDigest@HashTransformation@CryptoPP@@UAE_NPBE0I@Z 00403e24 f   cryptopp:cryptopp.dll
 0001:00002e2a       ?Verify@HashTransformation@CryptoPP@@UAE_NPBE@Z 00403e2a f   cryptopp:cryptopp.dll
 0001:00002e30       ?CalculateDigest@HashTransformation@CryptoPP@@UAEXPAEPBEI@Z 00403e30 f   cryptopp:cryptopp.dll
 0001:00002e36       ?OptimalDataAlignment@HashTransformation@CryptoPP@@UBEIXZ 00403e36 f   cryptopp:cryptopp.dll
 0001:00002e3c       ?OptimalBlockSize@HashTransformation@CryptoPP@@UBEIXZ 00403e3c f   cryptopp:cryptopp.dll
 0001:00002e42       ?BlockSize@HashTransformation@CryptoPP@@UBEIXZ 00403e42 f   cryptopp:cryptopp.dll
 0001:00002e48       ?DigestSize@PK_MessageAccumulator@CryptoPP@@UBEIXZ 00403e48 f   cryptopp:cryptopp.dll
 0001:00002e4e       ?Restart@HashTransformation@CryptoPP@@UAEXXZ 00403e4e f   cryptopp:cryptopp.dll
 0001:00002e54       ?Final@HashTransformation@CryptoPP@@UAEXPAE@Z 00403e54 f   cryptopp:cryptopp.dll
 0001:00002e5a       ?CreateUpdateSpace@HashTransformation@CryptoPP@@UAEPAEAAI@Z 00403e5a f   cryptopp:cryptopp.dll
 0001:00002e60       ?Update@PK_MessageAccumulatorBase@CryptoPP@@UAEXPBEI@Z 00403e60 f   cryptopp:cryptopp.dll
 0001:00002e66       ??1PK_MessageAccumulatorBase@CryptoPP@@UAE@XZ 00403e66 f   cryptopp:cryptopp.dll
 0001:00002e6c       ??0SHA1@CryptoPP@@QAE@XZ   00403e6c f   cryptopp:cryptopp.dll
 0001:00002e72       ??0PK_MessageAccumulatorBase@CryptoPP@@QAE@XZ 00403e72 f   cryptopp:cryptopp.dll
 0001:00002e78       ??1SHA1@CryptoPP@@UAE@XZ   00403e78 f   cryptopp:cryptopp.dll
 0001:00002e7e       ?VerifyMessageRepresentative@PK_DeterministicSignatureMessageEncodingMethod@CryptoPP@@UBE_NAAVHashTransformation@2@U?$pair@PBEI@std@@_NPAEI@Z 00403e7e f   cryptopp:cryptopp.dll
 0001:00002e84       ?ComputeMessageRepresentative@DL_SignatureMessageEncodingMethod_DSA@CryptoPP@@UBEXAAVRandomNumberGenerator@2@PBEIAAVHashTransformation@2@U?$pair@PBEI@std@@_NPAEI@Z 00403e84 f   cryptopp:cryptopp.dll
 0001:00002e8a       ??0DL_SignatureMessageEncodingMethod_DSA@CryptoPP@@QAE@XZ 00403e8a f   cryptopp:cryptopp.dll
 0001:00002e90       ??1DL_SignatureMessageEncodingMethod_DSA@CryptoPP@@UAE@XZ 00403e90 f   cryptopp:cryptopp.dll
 0001:00002e96       ?Encode@Integer@CryptoPP@@QBEXPAEIW4Signedness@12@@Z 00403e96 f   cryptopp:cryptopp.dll
 0001:00002e9c       ??4Integer@CryptoPP@@QAEAAV01@ABV01@@Z 00403e9c f   cryptopp:cryptopp.dll
 0001:00002ea2       ??0Integer@CryptoPP@@QAE@XZ 00403ea2 f   cryptopp:cryptopp.dll
 0001:00002ea8       ??1Integer@CryptoPP@@UAE@XZ 00403ea8 f   cryptopp:cryptopp.dll
 0001:00002eae       ??0Integer@CryptoPP@@QAE@AAVRandomNumberGenerator@1@ABV01@1W4RandomNumberType@01@11@Z 00403eae f   cryptopp:cryptopp.dll
 0001:00002eb4       ?Zero@Integer@CryptoPP@@SAABV12@XZ 00403eb4 f   cryptopp:cryptopp.dll
 0001:00002eba       ?One@Integer@CryptoPP@@SAABV12@XZ 00403eba f   cryptopp:cryptopp.dll
 0001:00002ec0       ??0Integer@CryptoPP@@QAE@J@Z 00403ec0 f   cryptopp:cryptopp.dll
 0001:00002ec6       ??0Integer@CryptoPP@@QAE@PBEIW4Signedness@01@@Z 00403ec6 f   cryptopp:cryptopp.dll
 0001:00002ecc       ?DoQuickSanityCheck@CryptoMaterial@CryptoPP@@QBEXXZ 00403ecc f   cryptopp:cryptopp.dll
 0001:00002ed2       ?Minus@Integer@CryptoPP@@QBE?AV12@ABV12@@Z 00403ed2 f   cryptopp:cryptopp.dll
 0001:00002ed8       ?BitCount@Integer@CryptoPP@@QBEIXZ 00403ed8 f   cryptopp:cryptopp.dll
 0001:00002ede       ?StaticAlgorithmName@DSA@CryptoPP@@SAPBDXZ 00403ede f   cryptopp:cryptopp.dll
 0001:00002ee4       ?GetPublicKey@PublicKeyAlgorithm@CryptoPP@@UBEABVPublicKey@2@XZ 00403ee4 f   cryptopp:cryptopp.dll
 0001:00002eea       ?GetMaterial@PublicKeyAlgorithm@CryptoPP@@UBEABVCryptoMaterial@2@XZ 00403eea f   cryptopp:cryptopp.dll
 0001:00002ef0       ?AccessMaterial@PublicKeyAlgorithm@CryptoPP@@UAEAAVCryptoMaterial@2@XZ 00403ef0 f   cryptopp:cryptopp.dll
 0001:00002ef6       ?RecoverMessage@PK_Verifier@CryptoPP@@UBE?AUDecodingResult@2@PAEPBEI1I@Z 00403ef6 f   cryptopp:cryptopp.dll
 0001:00002efc       ?Recover@PK_Verifier@CryptoPP@@UBE?AUDecodingResult@2@PAEPAVPK_MessageAccumulator@2@@Z 00403efc f   cryptopp:cryptopp.dll
 0001:00002f02       ?VerifyMessage@PK_Verifier@CryptoPP@@UBE_NPBEI0I@Z 00403f02 f   cryptopp:cryptopp.dll
 0001:00002f08       ?Verify@PK_Verifier@CryptoPP@@UBE_NPAVPK_MessageAccumulator@2@@Z 00403f08 f   cryptopp:cryptopp.dll
 0001:00002f0e       ?NullRNG@CryptoPP@@YAAAVRandomNumberGenerator@1@XZ 00403f0e f   cryptopp:cryptopp.dll
 0001:00002f14       ??0NotImplemented@CryptoPP@@QAE@ABV01@@Z 00403f14 f   cryptopp:cryptopp.dll
 0001:00002f1a       ??1NotImplemented@CryptoPP@@UAE@XZ 00403f1a f   cryptopp:cryptopp.dll
 0001:00002f20       ??0NotImplemented@CryptoPP@@QAE@ABV?$basic_string@DU?$char_traits@D@std@@V?$allocator@D@2@@std@@@Z 00403f20 f   cryptopp:cryptopp.dll
 0001:00002f26       ?Decode@Integer@CryptoPP@@QAEXPBEIW4Signedness@12@@Z 00403f26 f   cryptopp:cryptopp.dll
 0001:00002f2c       ?GetWaitObjects@BufferedTransformation@CryptoPP@@UAEXAAVWaitObjectContainer@2@ABVCallStack@2@@Z 00403f2c f   cryptopp:cryptopp.dll
 0001:00002f32       ?GetMaxWaitObjectCount@BufferedTransformation@CryptoPP@@UBEIXZ 00403f32 f   cryptopp:cryptopp.dll
 0001:00002f38       ?StoreInitialize@StringStore@CryptoPP@@EAEXABVNameValuePairs@2@@Z 00403f38 f   cryptopp:cryptopp.dll
 0001:00002f3e       ?Attach@BufferedTransformation@CryptoPP@@UAEXPAV12@@Z 00403f3e f   cryptopp:cryptopp.dll
 0001:00002f44       ?Detach@BufferedTransformation@CryptoPP@@UAEXPAV12@@Z 00403f44 f   cryptopp:cryptopp.dll
 0001:00002f4a       ?AttachedTransformation@BufferedTransformation@CryptoPP@@UAEPAV12@XZ 00403f4a f   cryptopp:cryptopp.dll
 0001:00002f50       ?AttachedTransformation@BufferedTransformation@CryptoPP@@UBEPBV12@XZ 00403f50 f   cryptopp:cryptopp.dll
 0001:00002f56       ?Attachable@BufferedTransformation@CryptoPP@@UAE_NXZ 00403f56 f   cryptopp:cryptopp.dll
 0001:00002f5c       ?SetRetrievalChannel@BufferedTransformation@CryptoPP@@UAEXABV?$basic_string@DU?$char_traits@D@std@@V?$allocator@D@2@@std@@@Z 00403f5c f   cryptopp:cryptopp.dll
 0001:00002f62       ?ChannelMessageSeriesEnd@?$InputRejecting@VBufferedTransformation@CryptoPP@@@CryptoPP@@UAE_NABV?$basic_string@DU?$char_traits@D@std@@V?$allocator@D@2@@std@@H_N@Z 00403f62 f   cryptopp:cryptopp.dll
 0001:00002f68       ?ChannelFlush@BufferedTransformation@CryptoPP@@UAE_NABV?$basic_string@DU?$char_traits@D@std@@V?$allocator@D@2@@std@@_NH1@Z 00403f68 f   cryptopp:cryptopp.dll
 0001:00002f6e       ?ChannelPutModifiable2@BufferedTransformation@CryptoPP@@UAEIABV?$basic_string@DU?$char_traits@D@std@@V?$allocator@D@2@@std@@PAEIH_N@Z 00403f6e f   cryptopp:cryptopp.dll
 0001:00002f74       ?ChannelPut2@?$InputRejecting@VBufferedTransformation@CryptoPP@@@CryptoPP@@UAEIABV?$basic_string@DU?$char_traits@D@std@@V?$allocator@D@2@@std@@PBEIH_N@Z 00403f74 f   cryptopp:cryptopp.dll
 0001:00002f7a       ?ChannelCreatePutSpace@BufferedTransformation@CryptoPP@@UAEPAEABV?$basic_string@DU?$char_traits@D@std@@V?$allocator@D@2@@std@@AAI@Z 00403f7a f   cryptopp:cryptopp.dll
 0001:00002f80       ?CopyRangeTo2@StringStore@CryptoPP@@UBEIAAVBufferedTransformation@2@AA_K_KABV?$basic_string@DU?$char_traits@D@std@@V?$allocator@D@2@@std@@_N@Z 00403f80 f   cryptopp:cryptopp.dll
 0001:00002f86       ?TransferTo2@StringStore@CryptoPP@@UAEIAAVBufferedTransformation@2@AA_KABV?$basic_string@DU?$char_traits@D@std@@V?$allocator@D@2@@std@@_N@Z 00403f86 f   cryptopp:cryptopp.dll
 0001:00002f8c       ?NumberOfMessageSeries@BufferedTransformation@CryptoPP@@UBEIXZ 00403f8c f   cryptopp:cryptopp.dll
 0001:00002f92       ?NumberOfMessagesInThisSeries@BufferedTransformation@CryptoPP@@UBEIXZ 00403f92 f   cryptopp:cryptopp.dll
 0001:00002f98       ?GetNextMessageSeries@BufferedTransformation@CryptoPP@@UAE_NXZ 00403f98 f   cryptopp:cryptopp.dll
 0001:00002f9e       ?SkipAll@BufferedTransformation@CryptoPP@@UAEXXZ 00403f9e f   cryptopp:cryptopp.dll
 0001:00002fa4       ?SkipMessages@BufferedTransformation@CryptoPP@@UAEII@Z 00403fa4 f   cryptopp:cryptopp.dll
 0001:00002faa       ?GetNextMessage@Store@CryptoPP@@UAE_NXZ 00403faa f   cryptopp:cryptopp.dll
 0001:00002fb0       ?AnyMessages@BufferedTransformation@CryptoPP@@UBE_NXZ 00403fb0 f   cryptopp:cryptopp.dll
 0001:00002fb6       ?NumberOfMessages@Store@CryptoPP@@UBEIXZ 00403fb6 f   cryptopp:cryptopp.dll
 0001:00002fbc       ?TotalBytesRetrievable@BufferedTransformation@CryptoPP@@UBE_KXZ 00403fbc f   cryptopp:cryptopp.dll
 0001:00002fc2       ?Skip@BufferedTransformation@CryptoPP@@UAE_K_K@Z 00403fc2 f   cryptopp:cryptopp.dll
 0001:00002fc8       ?Peek@BufferedTransformation@CryptoPP@@UBEIAAE@Z 00403fc8 f   cryptopp:cryptopp.dll
 0001:00002fce       ?Peek@BufferedTransformation@CryptoPP@@UBEIPAEI@Z 00403fce f   cryptopp:cryptopp.dll
 0001:00002fd4       ?Get@BufferedTransformation@CryptoPP@@UAEIAAE@Z 00403fd4 f   cryptopp:cryptopp.dll
 0001:00002fda       ?Get@BufferedTransformation@CryptoPP@@UAEIPAEI@Z 00403fda f   cryptopp:cryptopp.dll
 0001:00002fe0       ?AnyRetrievable@BufferedTransformation@CryptoPP@@UBE_NXZ 00403fe0 f   cryptopp:cryptopp.dll
 0001:00002fe6       ?MaxRetrievable@BufferedTransformation@CryptoPP@@UBE_KXZ 00403fe6 f   cryptopp:cryptopp.dll
 0001:00002fec       ?GetAutoSignalPropagation@?$AutoSignaling@V?$InputRejecting@VBufferedTransformation@CryptoPP@@@CryptoPP@@@CryptoPP@@UBEHXZ 00403fec f   cryptopp:cryptopp.dll
 0001:00002ff2       ?SetAutoSignalPropagation@?$AutoSignaling@V?$InputRejecting@VBufferedTransformation@CryptoPP@@@CryptoPP@@@CryptoPP@@UAEXH@Z 00403ff2 f   cryptopp:cryptopp.dll
 0001:00002ff8       ?MessageSeriesEnd@BufferedTransformation@CryptoPP@@UAE_NH_N@Z 00403ff8 f   cryptopp:cryptopp.dll
 0001:00002ffe       ?Flush@BufferedTransformation@CryptoPP@@UAE_N_NH0@Z 00403ffe f   cryptopp:cryptopp.dll
 0001:00003004       ?Initialize@BufferedTransformation@CryptoPP@@UAEXABVNameValuePairs@2@H@Z 00404004 f   cryptopp:cryptopp.dll
 0001:0000300a       ?IsolatedMessageSeriesEnd@?$InputRejecting@VBufferedTransformation@CryptoPP@@@CryptoPP@@UAE_N_N@Z 0040400a f   cryptopp:cryptopp.dll
 0001:00003010       ?IsolatedFlush@?$InputRejecting@VBufferedTransformation@CryptoPP@@@CryptoPP@@UAE_N_N0@Z 00404010 f   cryptopp:cryptopp.dll
 0001:00003016       ?IsolatedInitialize@Store@CryptoPP@@UAEXABVNameValuePairs@2@@Z 00404016 f   cryptopp:cryptopp.dll
 0001:0000301c       ?PutModifiable2@BufferedTransformation@CryptoPP@@UAEIPAEIH_N@Z 0040401c f   cryptopp:cryptopp.dll
 0001:00003022       ?Put2@?$InputRejecting@VBufferedTransformation@CryptoPP@@@CryptoPP@@UAEIPBEIH_N@Z 00404022 f   cryptopp:cryptopp.dll
 0001:00003028       ?CanModifyInput@BufferedTransformation@CryptoPP@@UBE_NXZ 00404028 f   cryptopp:cryptopp.dll
 0001:0000302e       ?CreatePutSpace@BufferedTransformation@CryptoPP@@UAEPAEAAI@Z 0040402e f   cryptopp:cryptopp.dll
 0001:00003034       ??0Store@CryptoPP@@QAE@XZ  00404034 f   cryptopp:cryptopp.dll
 0001:0000303a       ??1?$AutoSeededX917RNG@VRijndael@CryptoPP@@@CryptoPP@@UAE@XZ 0040403a f   cryptopp:cryptopp.dll
 0001:00003040       ?BERDecode@X509PublicKey@CryptoPP@@UAEXAAVBufferedTransformation@2@@Z 00404040 f   cryptopp:cryptopp.dll
 0001:00003046       ?BERDecode@PKCS8PrivateKey@CryptoPP@@UAEXAAVBufferedTransformation@2@@Z 00404046 f   cryptopp:cryptopp.dll
 0001:0000304c       ?DEREncode@PKCS8PrivateKey@CryptoPP@@UBEXAAVBufferedTransformation@2@@Z 0040404c f   cryptopp:cryptopp.dll
 0001:00003052       ??1?$StringSinkTemplate@V?$basic_string@DU?$char_traits@D@std@@V?$allocator@D@2@@std@@@CryptoPP@@UAE@XZ 00404052 f   cryptopp:cryptopp.dll
 0001:00003058       ?DEREncode@X509PublicKey@CryptoPP@@UBEXAAVBufferedTransformation@2@@Z 00404058 f   cryptopp:cryptopp.dll
 0001:0000305e       ??0?$StringSinkTemplate@V?$basic_string@DU?$char_traits@D@std@@V?$allocator@D@2@@std@@@CryptoPP@@QAE@AAV?$basic_string@DU?$char_traits@D@std@@V?$allocator@D@2@@std@@@Z 0040405e f   cryptopp:cryptopp.dll
 0001:00003064       ?Validate@?$DL_PublicKeyImpl@VDL_GroupParameters_DSA@CryptoPP@@@CryptoPP@@UBE_NAAVRandomNumberGenerator@2@I@Z 00404064 f   cryptopp:cryptopp.dll
 0001:0000306a       ?Validate@?$DL_PrivateKeyImpl@VDL_GroupParameters_DSA@CryptoPP@@@CryptoPP@@UBE_NAAVRandomNumberGenerator@2@I@Z 0040406a f   cryptopp:cryptopp.dll
 0001:00003070       ?AssignFrom@?$DL_PublicKeyImpl@VDL_GroupParameters_DSA@CryptoPP@@@CryptoPP@@UAEXABVNameValuePairs@2@@Z 00404070 f   cryptopp:cryptopp.dll
 0001:00003076       ?GenerateRandomWithKeySize@GeneratableCryptoMaterial@CryptoPP@@QAEXAAVRandomNumberGenerator@2@I@Z 00404076 f   cryptopp:cryptopp.dll
 0001:0000307c       ??0?$AutoSeededX917RNG@VRijndael@CryptoPP@@@CryptoPP@@QAE@_N0@Z 0040407c f   cryptopp:cryptopp.dll
 0001:00003082       ?Update@?$IteratedHashBase@IVHashTransformation@CryptoPP@@@CryptoPP@@UAEXPBEI@Z 00404082 f   cryptopp:cryptopp.dll
 0001:00003088       ?ProcessString@StreamTransformation@CryptoPP@@QAEXPAEPBEI@Z 00404088 f   cryptopp:cryptopp.dll
 0001:0000308e       ?SetKeyWithIV@SimpleKeyingInterface@CryptoPP@@QAEXPBEI0@Z 0040408e f   cryptopp:cryptopp.dll
 0001:00003094       ?DoDllPowerUpSelfTest@CryptoPP@@YAXXZ 00404094 f   cryptopp:cryptopp.dll
 0001:0000309a       ?SimulatePowerUpSelfTestFailure@CryptoPP@@YAXXZ 0040409a f   cryptopp:cryptopp.dll
 0001:000030a0       ?GetPowerUpSelfTestStatus@CryptoPP@@YA?AW4PowerUpSelfTestStatus@1@XZ 004040a0 f   cryptopp:cryptopp.dll
 0001:000030a6       ?FIPS_140_2_ComplianceEnabled@CryptoPP@@YA_NXZ 004040a6 f   cryptopp:cryptopp.dll
 0001:000030ac       ?StaticAlgorithmName@CFB_ModePolicy@CryptoPP@@SAPBDXZ 004040ac f   cryptopp:cryptopp.dll
 0001:000030b2       ?StaticAlgorithmName@?$AlgorithmImpl@V?$SimpleKeyingInterfaceImpl@V?$TwoBases@VBlockCipher@CryptoPP@@UDES_EDE3_Info@2@@CryptoPP@@V12@@CryptoPP@@V12@@CryptoPP@@SA?AV?$basic_string@DU?$char_traits@D@std@@V?$allocator@D@2@@std@@XZ 004040b2 f   cryptopp:cryptopp.dll
 0001:000030b8       ?StaticAlgorithmName@ECB_OneWay@CryptoPP@@SAPBDXZ 004040b8 f   cryptopp:cryptopp.dll
 0001:000030be       ?_Incref@facet@locale@std@@QAEXXZ 004040be f i libcpmt:ios.obj
 0001:000030e6       ?_Decref@facet@locale@std@@QAEPAV123@XZ 004040e6 f i libcpmt:ios.obj
 0001:00003121       ??0locale@std@@QAE@ABV01@@Z 00404121 f i libcpmt:ios.obj
 0001:00003137       ??1locale@std@@QAE@XZ      00404137 f i libcpmt:ios.obj
 0001:0000314f       ??4locale@std@@QAEAAV01@ABV01@@Z 0040414f f i libcpmt:ios.obj
 0001:0000317e       ??0_Iosarray@ios_base@std@@QAE@HPAU012@@Z 0040417e f i libcpmt:ios.obj
 0001:00003198       ??0_Fnarray@ios_base@std@@QAE@HP6AXW4event@12@AAV12@H@ZPAU012@@Z 00404198 f i libcpmt:ios.obj
 0001:000031b1       ?register_callback@ios_base@std@@QAEXP6AXW4event@12@AAV12@H@ZH@Z 004041b1 f   libcpmt:ios.obj
 0001:000031de       ??_Glocale@std@@QAEPAXI@Z  004041de f i libcpmt:ios.obj
 0001:000031fa       ?_Callfns@ios_base@std@@AAEXW4event@12@@Z 004041fa f   libcpmt:ios.obj
 0001:0000321c       ?_Addstd@ios_base@std@@QAEXXZ 0040421c f   libcpmt:ios.obj
 0001:0000326d       ?_Tidy@ios_base@std@@AAEXXZ 0040426d f   libcpmt:ios.obj
 0001:000032af       ??$_Allocate@D@std@@YAPADIPAD@Z 004042af f i libcpmt:ios.obj
 0001:000032ba       ?imbue@ios_base@std@@QAE?AVlocale@2@ABV32@@Z 004042ba f   libcpmt:ios.obj
 0001:0000331a       ??1ios_base@std@@UAE@XZ    0040431a f   libcpmt:ios.obj
 0001:0000335a       ??_Gios_base@std@@UAEPAXI@Z 0040435a f i libcpmt:ios.obj
 0001:0000335a       ??_Eios_base@std@@UAEPAXI@Z 0040435a f i libcpmt:ios.obj
 0001:00003376       ??1runtime_error@std@@UAE@XZ 00404376 f i libcpmt:ios.obj
 0001:00003393       ?what@runtime_error@std@@UBEPBDXZ 00404393 f i libcpmt:ios.obj
 0001:000033a1       ??_Gruntime_error@std@@UAEPAXI@Z 004043a1 f i libcpmt:ios.obj
 0001:000033a1       ??_Eruntime_error@std@@UAEPAXI@Z 004043a1 f i libcpmt:ios.obj
 0001:000033bd       ??0runtime_error@std@@QAE@ABV?$basic_string@DU?$char_traits@D@std@@V?$allocator@D@2@@1@@Z 004043bd f i libcpmt:ios.obj
 0001:000033f9       ??0failure@ios_base@std@@QAE@ABV?$basic_string@DU?$char_traits@D@std@@V?$allocator@D@2@@2@@Z 004043f9 f i libcpmt:ios.obj
 0001:00003411       ??_Gfailure@ios_base@std@@UAEPAXI@Z 00404411 f i libcpmt:ios.obj
 0001:00003411       ??_Efailure@ios_base@std@@UAEPAXI@Z 00404411 f i libcpmt:ios.obj
 0001:0000342d       ??1failure@ios_base@std@@UAE@XZ 0040442d f i libcpmt:ios.obj
 0001:00003438       ?clear@ios_base@std@@QAEXH_N@Z 00404438 f   libcpmt:ios.obj
 0001:000034fe       ??0runtime_error@std@@QAE@ABV01@@Z 004044fe f i libcpmt:ios.obj
 0001:00003541       ??0failure@ios_base@std@@QAE@ABV012@@Z 00404541 f i libcpmt:ios.obj
 0001:00003559       ?clear@ios_base@std@@QAEXH@Z 00404559 f i libcpmt:ios.obj
 0001:00003567       ?setstate@ios_base@std@@QAEXH@Z 00404567 f i libcpmt:ios.obj
 0001:00003580       ?exceptions@ios_base@std@@QAEXH@Z 00404580 f i libcpmt:ios.obj
 0001:00003597       ?_Findarr@ios_base@std@@AAEAAU_Iosarray@12@H@Z 00404597 f   libcpmt:ios.obj
 0001:0000363a       ?_Init@ios_base@std@@IAEXXZ 0040463a f   libcpmt:ios.obj
 0001:00003680       ?iword@ios_base@std@@QAEAAJH@Z 00404680 f i libcpmt:ios.obj
 0001:0000368f       ?pword@ios_base@std@@QAEAAPAXH@Z 0040468f f i libcpmt:ios.obj
 0001:0000369e       ?copyfmt@ios_base@std@@QAEAAV12@ABV12@@Z 0040469e f   libcpmt:ios.obj
 0001:0000373d       ??0_Mutex@std@@QAE@XZ      0040473d f   libcpmt:xmutex.obj
 0001:00003755       ??1_Mutex@std@@QAE@XZ      00404755 f   libcpmt:xmutex.obj
 0001:0000376a       ?_Lock@_Mutex@std@@QAEXXZ  0040476a f   libcpmt:xmutex.obj
 0001:00003773       ?_Unlock@_Mutex@std@@QAEXXZ 00404773 f   libcpmt:xmutex.obj
 0001:0000377c       ??0logic_error@std@@QAE@ABV?$basic_string@DU?$char_traits@D@std@@V?$allocator@D@2@@1@@Z 0040477c f i libcpmt:string.obj
 0001:000037b8       ?what@logic_error@std@@UBEPBDXZ 004047b8 f i libcpmt:string.obj
 0001:000037c6       ??1logic_error@std@@UAE@XZ 004047c6 f i libcpmt:string.obj
 0001:000037e3       ??_Elogic_error@std@@UAEPAXI@Z 004047e3 f i libcpmt:string.obj
 0001:000037e3       ??_Glogic_error@std@@UAEPAXI@Z 004047e3 f i libcpmt:string.obj
 0001:000037ff       ??0length_error@std@@QAE@ABV?$basic_string@DU?$char_traits@D@std@@V?$allocator@D@2@@1@@Z 004047ff f i libcpmt:string.obj
 0001:00003817       ??_Elength_error@std@@UAEPAXI@Z 00404817 f i libcpmt:string.obj
 0001:00003817       ??_Glength_error@std@@UAEPAXI@Z 00404817 f i libcpmt:string.obj
 0001:00003833       ??1length_error@std@@UAE@XZ 00404833 f i libcpmt:string.obj
 0001:0000383e       ??0out_of_range@std@@QAE@ABV?$basic_string@DU?$char_traits@D@std@@V?$allocator@D@2@@1@@Z 0040483e f i libcpmt:string.obj
 0001:00003856       ??_Eout_of_range@std@@UAEPAXI@Z 00404856 f i libcpmt:string.obj
 0001:00003856       ??_Gout_of_range@std@@UAEPAXI@Z 00404856 f i libcpmt:string.obj
 0001:00003872       ??1out_of_range@std@@UAE@XZ 00404872 f i libcpmt:string.obj
 0001:0000387d       ?_Xran@_String_base@std@@QBEXXZ 0040487d f   libcpmt:string.obj
 0001:000038bd       ??0logic_error@std@@QAE@ABV01@@Z 004048bd f i libcpmt:string.obj
 0001:00003900       ??0out_of_range@std@@QAE@ABV01@@Z 00404900 f i libcpmt:string.obj
 0001:00003918       ?_Xlen@_String_base@std@@QBEXXZ 00404918 f   libcpmt:string.obj
 0001:00003958       ??0length_error@std@@QAE@ABV01@@Z 00404958 f i libcpmt:string.obj
 0001:00003970       ?uncaught_exception@std@@YA_NXZ 00404970 f   libcpmt:uncaught.obj
 0001:00003975       ?assign@?$char_traits@D@std@@SAPADPADID@Z 00404975 f i libcpmt:cerr.obj
 0001:0000398c       ?_Getctype@_Locinfo@std@@QBE?AU_Ctypevec@@XZ 0040498c f i libcpmt:cerr.obj
 0001:000039af       ??Bid@locale@std@@QAEIXZ   004049af f i libcpmt:cerr.obj
 0001:000039e4       ??1facet@locale@std@@UAE@XZ 004049e4 f i libcpmt:cerr.obj
 0001:000039eb       ??0facet@locale@std@@IAE@I@Z 004049eb f i libcpmt:cerr.obj
 0001:000039fd       ??_Efacet@locale@std@@UAEPAXI@Z 004049fd f i libcpmt:cerr.obj
 0001:000039fd       ??_Gfacet@locale@std@@UAEPAXI@Z 004049fd f i libcpmt:cerr.obj
 0001:00003a1a       ??0ctype_base@std@@QAE@I@Z 00404a1a f i libcpmt:cerr.obj
 0001:00003a2c       ??1ctype_base@std@@UAE@XZ  00404a2c f i libcpmt:cerr.obj
 0001:00003a33       ??_Gctype_base@std@@UAEPAXI@Z 00404a33 f i libcpmt:cerr.obj
 0001:00003a33       ??_Ectype_base@std@@UAEPAXI@Z 00404a33 f i libcpmt:cerr.obj
 0001:00003a4f       ?widen@?$ctype@D@std@@QBEDD@Z 00404a4f f i libcpmt:cerr.obj
 0001:00003a54       ?_Init@?$ctype@D@std@@IAEXABV_Locinfo@2@@Z 00404a54 f i libcpmt:cerr.obj
 0001:00003a79       ?_Tidy@?$ctype@D@std@@IAEXXZ 00404a79 f i libcpmt:cerr.obj
 0001:00003a96       ?setf@ios_base@std@@QAEHH@Z 00404a96 f i libcpmt:cerr.obj
 0001:00003aab       ?getloc@ios_base@std@@QBE?AVlocale@2@XZ 00404aab f i libcpmt:cerr.obj
 0001:00003ac5       ??0ios_base@std@@IAE@XZ    00404ac5 f i libcpmt:cerr.obj
 0001:00003ace       ??1?$basic_ostream@DU?$char_traits@D@std@@@std@@UAE@XZ 00404ace f i libcpmt:cerr.obj
 0001:00003add       ??1?$basic_ios@DU?$char_traits@D@std@@@std@@UAE@XZ 00404add f i libcpmt:cerr.obj
 0001:00003ae8       ?tie@?$basic_ios@DU?$char_traits@D@std@@@std@@QAEPAV?$basic_ostream@DU?$char_traits@D@std@@@2@PAV32@@Z 00404ae8 f i libcpmt:cerr.obj
 0001:00003af5       ??_G?$basic_ios@DU?$char_traits@D@std@@@std@@UAEPAXI@Z 00404af5 f i libcpmt:cerr.obj
 0001:00003af5       ??_E?$basic_ios@DU?$char_traits@D@std@@@std@@UAEPAXI@Z 00404af5 f i libcpmt:cerr.obj
 0001:00003b11       ??0?$basic_ios@DU?$char_traits@D@std@@@std@@IAE@XZ 00404b11 f i libcpmt:cerr.obj
 0001:00003b1a       ?setg@?$basic_streambuf@DU?$char_traits@D@std@@@std@@IAEXPAD00@Z 00404b1a f i libcpmt:cerr.obj
 0001:00003b3a       ?_Init@?$basic_streambuf@DU?$char_traits@D@std@@@std@@IAEXPAPAD0PAH001@Z 00404b3a f i libcpmt:cerr.obj
 0001:00003b65       ??Dconst_iterator@?$basic_string@DU?$char_traits@D@std@@V?$allocator@D@2@@std@@QBEABDXZ 00404b65 f i libcpmt:cerr.obj
 0001:00003b68       ?unshift@?$codecvt@DDH@std@@QBEHAAHPAD1AAPAD@Z 00404b68 f i libcpmt:cerr.obj
 0001:00003b6d       ?setp@?$basic_streambuf@DU?$char_traits@D@std@@@std@@IAEXPAD0@Z 00404b6d f i libcpmt:cerr.obj
 0001:00003b89       ??0const_iterator@?$basic_string@DU?$char_traits@D@std@@V?$allocator@D@2@@std@@QAE@PBD@Z 00404b89 f i libcpmt:cerr.obj
 0001:00003b94       ??0?$ctype@D@std@@QAE@PBF_NI@Z 00404b94 f i libcpmt:cerr.obj
 0001:00003c08       ?do_tolower@?$ctype@D@std@@MBEDD@Z 00404c08 f i libcpmt:cerr.obj
 0001:00003c1c       ?do_tolower@?$ctype@D@std@@MBEPBDPADPBD@Z 00404c1c f i libcpmt:cerr.obj
 0001:00003c47       ?do_toupper@?$ctype@D@std@@MBEDD@Z 00404c47 f i libcpmt:cerr.obj
 0001:00003c5b       ?do_toupper@?$ctype@D@std@@MBEPBDPADPBD@Z 00404c5b f i libcpmt:cerr.obj
 0001:00003c86       ?do_widen@?$ctype@D@std@@MBEDD@Z 00404c86 f i libcpmt:cerr.obj
 0001:00003c8d       ?do_widen@?$ctype@D@std@@MBEPBDPBD0PAD@Z 00404c8d f i libcpmt:cerr.obj
 0001:00003cac       ?do_narrow@?$ctype@D@std@@MBEDDD@Z 00404cac f i libcpmt:cerr.obj
 0001:00003cb3       ?do_narrow@?$ctype@D@std@@MBEPBDPBD0DPAD@Z 00404cb3 f i libcpmt:cerr.obj
 0001:00003cd2       ?_Getcat@?$ctype@D@std@@SAIPAPBVfacet@locale@2@@Z 00404cd2 f i libcpmt:cerr.obj
 0001:00003d1e       ??_E?$ctype@D@std@@MAEPAXI@Z 00404d1e f i libcpmt:cerr.obj
 0001:00003d1e       ??_G?$ctype@D@std@@MAEPAXI@Z 00404d1e f i libcpmt:cerr.obj
 0001:00003d3a       ??1?$ctype@D@std@@MAE@XZ   00404d3a f i libcpmt:cerr.obj
 0001:00003d50       ??_D?$basic_ostream@DU?$char_traits@D@std@@@std@@QAEXXZ 00404d50 f i libcpmt:cerr.obj
 0001:00003d65       ??0_Init_cerr@std@@QAE@XZ  00404d65 f i libcpmt:cerr.obj
 0001:00003d99       ??1?$basic_streambuf@DU?$char_traits@D@std@@@std@@UAE@XZ 00404d99 f i libcpmt:cerr.obj
 0001:00003dc2       ?overflow@?$basic_streambuf@DU?$char_traits@D@std@@@std@@MAEHH@Z 00404dc2 f i libcpmt:cerr.obj
 0001:00003dc8       ?pbackfail@?$basic_streambuf@DU?$char_traits@D@std@@@std@@MAEHH@Z 00404dc8 f i libcpmt:cerr.obj
 0001:00003dce       ?showmanyc@?$basic_streambuf@DU?$char_traits@D@std@@@std@@MAEHXZ 00404dce f i libcpmt:cerr.obj
 0001:00003dd1       ?underflow@?$basic_streambuf@DU?$char_traits@D@std@@@std@@MAEHXZ 00404dd1 f i libcpmt:cerr.obj
 0001:00003dd5       ?setbuf@?$basic_streambuf@DU?$char_traits@D@std@@@std@@MAEPAV12@PADH@Z 00404dd5 f i libcpmt:cerr.obj
 0001:00003dda       ?sync@?$basic_streambuf@DU?$char_traits@D@std@@@std@@MAEHXZ 00404dda f i libcpmt:cerr.obj
 0001:00003ddd       ?imbue@?$basic_streambuf@DU?$char_traits@D@std@@@std@@MAEXABVlocale@2@@Z 00404ddd f i libcpmt:cerr.obj
 0001:00003de0       ?uflow@?$basic_streambuf@DU?$char_traits@D@std@@@std@@MAEHXZ 00404de0 f i libcpmt:cerr.obj
 0001:00003dfd       ?_Gninc@?$basic_streambuf@DU?$char_traits@D@std@@@std@@IAEPADXZ 00404dfd f i libcpmt:cerr.obj
 0001:00003e0d       ?xsgetn@?$basic_streambuf@DU?$char_traits@D@std@@@std@@MAEHPADH@Z 00404e0d f i libcpmt:cerr.obj
 0001:00003e81       ?xsputn@?$basic_streambuf@DU?$char_traits@D@std@@@std@@MAEHPBDH@Z 00404e81 f i libcpmt:cerr.obj
 0001:00003ef7       ?seekoff@?$basic_streambuf@DU?$char_traits@D@std@@@std@@MAE?AV?$fpos@H@2@JHH@Z 00404ef7 f i libcpmt:cerr.obj
 0001:00003f21       ?seekpos@?$basic_streambuf@DU?$char_traits@D@std@@@std@@MAE?AV?$fpos@H@2@V32@H@Z 00404f21 f i libcpmt:cerr.obj
 0001:00003f4b       ??_G?$basic_ostream@DU?$char_traits@D@std@@@std@@UAEPAXI@Z 00404f4b f i libcpmt:cerr.obj
 0001:00003f4b       ??_E?$basic_ostream@DU?$char_traits@D@std@@@std@@UAEPAXI@Z 00404f4b f i libcpmt:cerr.obj
 0001:00003f6a       ??_G?$basic_streambuf@DU?$char_traits@D@std@@@std@@UAEPAXI@Z 00404f6a f i libcpmt:cerr.obj
 0001:00003f6a       ??_E?$basic_streambuf@DU?$char_traits@D@std@@@std@@UAEPAXI@Z 00404f6a f i libcpmt:cerr.obj
 0001:00003f86       ??Diterator@?$basic_string@DU?$char_traits@D@std@@V?$allocator@D@2@@std@@QBEAADXZ 00404f86 f i libcpmt:cerr.obj
 0001:00003f89       ?_Init@?$basic_streambuf@DU?$char_traits@D@std@@@std@@IAEXXZ 00404f89 f i libcpmt:cerr.obj
 0001:00003fcb       ??0iterator@?$basic_string@DU?$char_traits@D@std@@V?$allocator@D@2@@std@@QAE@PAD@Z 00404fcb f i libcpmt:cerr.obj
 0001:00003fd6       ??$use_facet@V?$ctype@D@std@@@std@@YAABV?$ctype@D@0@ABVlocale@0@@Z 00404fd6 f i libcpmt:cerr.obj
 0001:0000407a       ?begin@?$basic_string@DU?$char_traits@D@std@@V?$allocator@D@2@@std@@QAE?AViterator@12@XZ 0040507a f i libcpmt:cerr.obj
 0001:00004091       ??0?$basic_streambuf@DU?$char_traits@D@std@@@std@@IAE@XZ 00405091 f i libcpmt:cerr.obj
 0001:000040e4       ?_Init@?$basic_filebuf@DU?$char_traits@D@std@@@std@@IAEXPAU_iobuf@@W4_Initfl@12@@Z 004050e4 f i libcpmt:cerr.obj
 0001:00004133       ?widen@?$basic_ios@DU?$char_traits@D@std@@@std@@QBEDD@Z 00405133 f i libcpmt:cerr.obj
 0001:0000417a       ??0?$basic_filebuf@DU?$char_traits@D@std@@@std@@QAE@PAU_iobuf@@@Z 0040517a f i libcpmt:cerr.obj
 0001:0000419f       ?setbuf@?$basic_filebuf@DU?$char_traits@D@std@@@std@@MAEPAV?$basic_streambuf@DU?$char_traits@D@std@@@2@PADH@Z 0040519f f i libcpmt:cerr.obj
 0001:000041de       ?sync@?$basic_filebuf@DU?$char_traits@D@std@@@std@@MAEHXZ 004051de f i libcpmt:cerr.obj
 0001:00004209       ?pbackfail@?$basic_filebuf@DU?$char_traits@D@std@@@std@@MAEHH@Z 00405209 f i libcpmt:cerr.obj
 0001:00004293       ?_Gndec@?$basic_streambuf@DU?$char_traits@D@std@@@std@@IAEPADXZ 00405293 f i libcpmt:cerr.obj
 0001:000042a3       ?underflow@?$basic_filebuf@DU?$char_traits@D@std@@@std@@MAEHXZ 004052a3 f i libcpmt:cerr.obj
 0001:000042df       ??_G?$basic_string@DU?$char_traits@D@std@@V?$allocator@D@2@@std@@QAEPAXI@Z 004052df f i libcpmt:cerr.obj
 0001:000042ff       ?init@?$basic_ios@DU?$char_traits@D@std@@@std@@IAEXPAV?$basic_streambuf@DU?$char_traits@D@std@@@2@_N@Z 004052ff f i libcpmt:cerr.obj
 0001:0000434b       ??0?$basic_ostream@DU?$char_traits@D@std@@@std@@QAE@PAV?$basic_streambuf@DU?$char_traits@D@std@@@1@_N@Z 0040534b f i libcpmt:cerr.obj
 0001:000043ad       ?imbue@?$basic_filebuf@DU?$char_traits@D@std@@@std@@MAEXABVlocale@2@@Z 004053ad f i libcpmt:cerr.obj
 0001:000043c6       ?_Initcvt@?$basic_filebuf@DU?$char_traits@D@std@@@std@@IAEXPAV?$codecvt@DDH@2@@Z 004053c6 f i libcpmt:cerr.obj
 0001:00004429       ??$use_facet@V?$codecvt@DDH@std@@@std@@YAABV?$codecvt@DDH@0@ABVlocale@0@@Z 00405429 f i libcpmt:cerr.obj
 0001:000044cd       ?_Getcat@?$codecvt@DDH@std@@SAIPAPBVfacet@locale@2@@Z 004054cd f i libcpmt:cerr.obj
 0001:00004537       ??1codecvt_base@std@@UAE@XZ 00405537 f i libcpmt:cerr.obj
 0001:0000453e       ?do_always_noconv@codecvt_base@std@@MBE_NXZ 0040553e f i libcpmt:cerr.obj
 0001:00004541       ?do_max_length@codecvt_base@std@@MBEHXZ 00405541 f i libcpmt:cerr.obj
 0001:00004545       ?do_encoding@codecvt_base@std@@MBEHXZ 00405545 f i libcpmt:cerr.obj
 0001:00004549       ?do_in@?$codecvt@DDH@std@@MBEHAAHPBD1AAPBDPAD3AAPAD@Z 00405549 f i libcpmt:cerr.obj
 0001:00004563       ?do_out@?$codecvt@DDH@std@@MBEHAAHPBD1AAPBDPAD3AAPAD@Z 00405563 f i libcpmt:cerr.obj
 0001:0000457d       ?do_unshift@?$codecvt@DDH@std@@MBEHAAHPAD1AAPAD@Z 0040557d f i libcpmt:cerr.obj
 0001:00004583       ?do_length@?$codecvt@DDH@std@@MBEHABHPBD1I@Z 00405583 f i libcpmt:cerr.obj
 0001:00004598       ??_E?$codecvt@DDH@std@@MAEPAXI@Z 00405598 f i libcpmt:cerr.obj
 0001:00004598       ??_G?$codecvt@DDH@std@@MAEPAXI@Z 00405598 f i libcpmt:cerr.obj
 0001:000045b4       ??1?$codecvt@DDH@std@@MAE@XZ 004055b4 f i libcpmt:cerr.obj
 0001:000045bb       ?append@?$basic_string@DU?$char_traits@D@std@@V?$allocator@D@2@@std@@QAEAAV12@ID@Z 004055bb f i libcpmt:cerr.obj
 0001:0000461b       ?assign@?$basic_string@DU?$char_traits@D@std@@V?$allocator@D@2@@std@@QAEAAV12@ID@Z 0040561b f i libcpmt:cerr.obj
 0001:00004666       ?uflow@?$basic_filebuf@DU?$char_traits@D@std@@@std@@MAEHXZ 00405666 f i libcpmt:cerr.obj
 0001:000047cc       ??0?$basic_string@DU?$char_traits@D@std@@V?$allocator@D@2@@std@@QAE@ID@Z 004057cc f i libcpmt:cerr.obj
 0001:000047f2       ?_Endwrite@?$basic_filebuf@DU?$char_traits@D@std@@@std@@IAE_NXZ 004057f2 f i libcpmt:cerr.obj
 0001:000048e4       ?overflow@?$basic_filebuf@DU?$char_traits@D@std@@@std@@MAEHH@Z 004058e4 f i libcpmt:cerr.obj
 0001:00004a76       ?seekoff@?$basic_filebuf@DU?$char_traits@D@std@@@std@@MAE?AV?$fpos@H@2@JHH@Z 00405a76 f i libcpmt:cerr.obj
 0001:00004b8f       ?seekpos@?$basic_filebuf@DU?$char_traits@D@std@@@std@@MAE?AV?$fpos@H@2@V32@H@Z 00405b8f f i libcpmt:cerr.obj
 0001:00004c72       ?close@?$basic_filebuf@DU?$char_traits@D@std@@@std@@QAEPAV12@XZ 00405c72 f i libcpmt:cerr.obj
 0001:00004cbf       ??1?$basic_filebuf@DU?$char_traits@D@std@@@std@@UAE@XZ 00405cbf f i libcpmt:cerr.obj
 0001:00004d0b       ??_E?$basic_filebuf@DU?$char_traits@D@std@@@std@@UAEPAXI@Z 00405d0b f i libcpmt:cerr.obj
 0001:00004d0b       ??_G?$basic_filebuf@DU?$char_traits@D@std@@@std@@UAEPAXI@Z 00405d0b f i libcpmt:cerr.obj
 0001:00004d27       ??0_Init_cout@std@@QAE@XZ  00405d27 f i libcpmt:cout.obj
 0001:00004d7c       ??0_Init_locks@std@@QAE@XZ 00405d7c f   libcpmt:xlock.obj
 0001:00004dab       ??1_Init_locks@std@@QAE@XZ 00405dab f   libcpmt:xlock.obj
 0001:00004dd4       ??0_Lockit@std@@QAE@XZ     00405dd4 f   libcpmt:xlock.obj
 0001:00004de9       ??0_Lockit@std@@QAE@H@Z    00405de9 f   libcpmt:xlock.obj
 0001:00004e0c       ??1_Lockit@std@@QAE@XZ     00405e0c f   libcpmt:xlock.obj
 0001:00004e20       ??2@YAPAXIPAX@Z            00405e20 f i libcpmt:locale0.obj
 0001:00004e25       ??3@YAXPAX0@Z              00405e25 f i libcpmt:locale0.obj
 0001:00004e26       ?compare@?$char_traits@D@std@@SAHPBD0I@Z 00405e26 f i libcpmt:locale0.obj
 0001:00004e2b       ??0locale@std@@QAE@W4_Uninitialized@1@@Z 00405e2b f i libcpmt:locale0.obj
 0001:00004e30       ??0locale@std@@AAE@PAV_Locimp@01@@Z 00405e30 f i libcpmt:locale0.obj
 0001:00004e3b       ??0_Fac_node@std@@QAE@PAU01@PAVfacet@locale@1@@Z 00405e3b f i libcpmt:locale0.obj
 0001:00004e4d       ??1_Fac_node@std@@QAE@XZ   00405e4d f i libcpmt:locale0.obj
 0001:00004e62       ??_G_Fac_node@std@@QAEPAXI@Z 00405e62 f i libcpmt:locale0.obj
 0001:00004e7e       __Deletegloballocale       00405e7e f   libcpmt:locale0.obj
 0001:00004ebd       __Getgloballocale          00405ebd f   libcpmt:locale0.obj
 0001:00004ec3       __Setgloballocale          00405ec3 f   libcpmt:locale0.obj
 0001:00004ee8       ?_Getfacet@locale@std@@QBEPBVfacet@12@I@Z 00405ee8 f   libcpmt:locale0.obj
 0001:00004f1d       __Fac_tidy                 00405f1d f   libcpmt:locale0.obj
 0001:00004f60       ?_Register@facet@locale@std@@QAEXXZ 00405f60 f   libcpmt:locale0.obj
 0001:00004f99       ?compare@?$basic_string@DU?$char_traits@D@std@@V?$allocator@D@2@@std@@QBEHIIPBDI@Z 00405f99 f i libcpmt:locale0.obj
 0001:00005003       ?compare@?$basic_string@DU?$char_traits@D@std@@V?$allocator@D@2@@std@@QBEHABV12@@Z 00406003 f i libcpmt:locale0.obj
 0001:00005027       ?compare@?$basic_string@DU?$char_traits@D@std@@V?$allocator@D@2@@std@@QBEHPBD@Z 00406027 f i libcpmt:locale0.obj
 0001:00005049       ??1_Locimp@locale@std@@MAE@XZ 00406049 f   libcpmt:locale0.obj
 0001:000050d1       ??1_Locinfo@std@@QAE@XZ    004060d1 f   libcpmt:locale0.obj
 0001:00005128       ??_E_Locimp@locale@std@@MAEPAXI@Z 00406128 f i libcpmt:locale0.obj
 0001:00005128       ??_G_Locimp@locale@std@@MAEPAXI@Z 00406128 f i libcpmt:locale0.obj
 0001:00005144       ?name@locale@std@@QBE?AV?$basic_string@DU?$char_traits@D@std@@V?$allocator@D@2@@2@XZ 00406144 f i libcpmt:locale0.obj
 0001:00005161       ??8locale@std@@QBE_NABV01@@Z 00406161 f   libcpmt:locale0.obj
 0001:00005236       ??4?$basic_string@DU?$char_traits@D@std@@V?$allocator@D@2@@std@@QAEAAV01@PBD@Z 00406236 f i libcpmt:locale0.obj
 0001:0000523b       ??0_Locimp@locale@std@@AAE@_N@Z 0040623b f   libcpmt:locale0.obj
 0001:0000528b       ??0_Locinfo@std@@QAE@PBD@Z 0040628b f   libcpmt:locale0.obj
 0001:00005315       ?_Init@locale@std@@CAPAV_Locimp@12@XZ 00406315 f   libcpmt:locale0.obj
 0001:000053b7       ??0locale@std@@QAE@XZ      004063b7 f   libcpmt:locale0.obj
 0001:000053d0       ?classic@locale@std@@SAABV12@XZ 004063d0 f   libcpmt:locale0.obj
 0001:000053db       ?empty@locale@std@@SA?AV12@XZ 004063db f   libcpmt:locale0.obj
 0001:00005422       __Once                     00406422 f   libcpmt:xmtx.obj
 0001:00005459       __Mtxinit                  00406459 f   libcpmt:xmtx.obj
 0001:00005464       __Mtxdst                   00406464 f   libcpmt:xmtx.obj
 0001:0000546f       __Mtxlock                  0040646f f   libcpmt:xmtx.obj
 0001:0000547a       __Mtxunlock                0040647a f   libcpmt:xmtx.obj
 0001:00005485       __Tolower_lk               00406485 f   libcpmt:_tolower.obj
 0001:0000556e       __Getctype                 0040656e f   libcpmt:_tolower.obj
 0001:00005639       __Tolower                  00406639 f   libcpmt:_tolower.obj
 0001:000056e5       __Toupper_lk               004066e5 f   libcpmt:_toupper.obj
 0001:000057c5       __Toupper                  004067c5 f   libcpmt:_toupper.obj
 0001:00005871       __Atexit                   00406871 f   libcpmt:iosptrs.obj
 0001:00005891       ??1_Init_atexit@@QAE@XZ    00406891 f i libcpmt:iosptrs.obj
 0001:000058c0       _strlen                    004068c0 f   LIBCMT:strlen.obj
 0001:00005950       _memcpy                    00406950 f   LIBCMT:memcpy.obj
 0001:00005c90       _memmove                   00406c90 f   LIBCMT:memmove.obj
 0001:00005fcd       __purecall                 00406fcd f   LIBCMT:purevirt.obj
 0001:00005fe1       __set_purecall_handler     00406fe1 f   LIBCMT:purevirt.obj
 0001:00005ff1       ??1type_info@@UAE@XZ       00406ff1 f   LIBCMT:typinfo.obj
 0001:00006037       ??_Etype_info@@UAEPAXI@Z   00407037 f i LIBCMT:typinfo.obj
 0001:00006037       ??_Gtype_info@@UAEPAXI@Z   00407037 f i LIBCMT:typinfo.obj
 0001:00006053       ??8type_info@@QBEHABV0@@Z  00407053 f   LIBCMT:typinfo.obj
 0001:0000606e       ??9type_info@@QBEHABV0@@Z  0040706e f   LIBCMT:typinfo.obj
 0001:0000608a       ?before@type_info@@QBEHABV1@@Z 0040708a f   LIBCMT:typinfo.obj
 0001:000060a9       ?raw_name@type_info@@QBEPBDXZ 004070a9 f   LIBCMT:typinfo.obj
 0001:000060ad       ??0type_info@@AAE@ABV0@@Z  004070ad f   LIBCMT:typinfo.obj
 0001:000060b8       ??4type_info@@AAEAAV0@ABV0@@Z 004070b8 f   LIBCMT:typinfo.obj
 0001:000060bd       ?_JumpToContinuation@@YGXPAXPAUEHRegistrationNode@@@Z 004070bd f   LIBCMT:trnsctrl.obj
 0001:000060ed       ?_CallMemberFunction0@@YGXPAX0@Z 004070ed f   LIBCMT:trnsctrl.obj
 0001:000060f4       ?_CallMemberFunction1@@YGXPAX00@Z 004070f4 f   LIBCMT:trnsctrl.obj
 0001:000060fb       ?_CallMemberFunction2@@YGXPAX00H@Z 004070fb f   LIBCMT:trnsctrl.obj
 0001:00006102       ?_UnwindNestedFrames@@YGXPAUEHRegistrationNode@@PAUEHExceptionRecord@@@Z 00407102 f   LIBCMT:trnsctrl.obj
 0001:00006154       ___CxxFrameHandler         00407154 f   LIBCMT:trnsctrl.obj
 0001:0000618a       ___CxxLongjmpUnwind@4      0040718a f   LIBCMT:trnsctrl.obj
 0001:000061df       ?_CallSETranslator@@YAHPAUEHExceptionRecord@@PAUEHRegistrationNode@@PAX2PBU_s_FuncInfo@@H1@Z 004071df f   LIBCMT:trnsctrl.obj
 0001:00006358       ?_GetRangeOfTrysToCheck@@YAPBU_s_TryBlockMapEntry@@PBU_s_FuncInfo@@HHPAI1@Z 00407358 f   LIBCMT:trnsctrl.obj
 0001:000063d2       ?_CreateFrameInfo@@YAPAUFrameInfo@@PAU1@PAX@Z 004073d2 f   LIBCMT:trnsctrl.obj
 0001:000063fa       ?IsExceptionObjectToBeDestroyed@@YAHPAX@Z 004073fa f   LIBCMT:trnsctrl.obj
 0001:0000641b       ?_FindAndUnlinkFrame@@YAXPAUFrameInfo@@@Z 0040741b f   LIBCMT:trnsctrl.obj
 0001:00006467       ?_CallCatchBlock2@@YAPAXPAUEHRegistrationNode@@PBU_s_FuncInfo@@PAXHK@Z 00407467 f   LIBCMT:trnsctrl.obj
 0001:000064c0       __global_unwind2           004074c0 f   LIBCMT:exsup.obj
 0001:00006502       __local_unwind2            00407502 f   LIBCMT:exsup.obj
 0001:0000655a       __NLG_Return2              0040755a     LIBCMT:exsup.obj
 0001:0000656a       __abnormal_termination     0040756a f   LIBCMT:exsup.obj
 0001:0000658d       __NLG_Notify1              0040758d f   LIBCMT:exsup.obj
 0001:00006596       __NLG_Notify               00407596 f   LIBCMT:exsup.obj
 0001:000065a9       __NLG_Dispatch             004075a9     LIBCMT:exsup.obj
 0001:000065b0       __EH_prolog                004075b0 f   LIBCMT:ehprolog.obj
 0001:000065cf       __CxxThrowException@8      004075cf f   LIBCMT:throw.obj
 0001:00006609       ??0exception@@QAE@XZ       00407609 f   LIBCMT:stdexcpt.obj
 0001:0000661a       ??0exception@@QAE@ABQBD@Z  0040761a f   LIBCMT:stdexcpt.obj
 0001:00006657       ??0exception@@QAE@ABV0@@Z  00407657 f   LIBCMT:stdexcpt.obj
 0001:000066a1       ??1exception@@UAE@XZ       004076a1 f   LIBCMT:stdexcpt.obj
 0001:000066b7       ?what@exception@@UBEPBDXZ  004076b7 f   LIBCMT:stdexcpt.obj
 0001:000066c4       ??0bad_cast@@QAE@PBD@Z     004076c4 f   LIBCMT:stdexcpt.obj
 0001:000066dd       ??0bad_cast@@QAE@ABV0@@Z   004076dd f   LIBCMT:stdexcpt.obj
 0001:000066f5       ??1bad_cast@@UAE@XZ        004076f5 f   LIBCMT:stdexcpt.obj
 0001:00006700       ??0bad_typeid@@QAE@PBD@Z   00407700 f   LIBCMT:stdexcpt.obj
 0001:00006719       ??0bad_typeid@@QAE@ABV0@@Z 00407719 f   LIBCMT:stdexcpt.obj
 0001:00006731       ??1bad_typeid@@UAE@XZ      00407731 f   LIBCMT:stdexcpt.obj
 0001:0000673c       ??0__non_rtti_object@@QAE@PBD@Z 0040773c f   LIBCMT:stdexcpt.obj
 0001:00006754       ??0__non_rtti_object@@QAE@ABV0@@Z 00407754 f   LIBCMT:stdexcpt.obj
 0001:0000676c       ??1__non_rtti_object@@UAE@XZ 0040776c f   LIBCMT:stdexcpt.obj
 0001:00006777       ??_Gexception@@UAEPAXI@Z   00407777 f i LIBCMT:stdexcpt.obj
 0001:00006777       ??_Eexception@@UAEPAXI@Z   00407777 f i LIBCMT:stdexcpt.obj
 0001:00006793       ??4exception@@QAEAAV0@ABV0@@Z 00407793 f   LIBCMT:stdexcpt.obj
 0001:000067b2       ??_Gbad_cast@@UAEPAXI@Z    004077b2 f i LIBCMT:stdexcpt.obj
 0001:000067b2       ??_Ebad_cast@@UAEPAXI@Z    004077b2 f i LIBCMT:stdexcpt.obj
 0001:000067ce       ??_Gbad_typeid@@UAEPAXI@Z  004077ce f i LIBCMT:stdexcpt.obj
 0001:000067ce       ??_Ebad_typeid@@UAEPAXI@Z  004077ce f i LIBCMT:stdexcpt.obj
 0001:000067ea       ??_E__non_rtti_object@@UAEPAXI@Z 004077ea f i LIBCMT:stdexcpt.obj
 0001:000067ea       ??_G__non_rtti_object@@UAEPAXI@Z 004077ea f i LIBCMT:stdexcpt.obj
 0001:00006886       ___onexitinit              00407886 f   LIBCMT:onexit.obj
 0001:000068ae       __onexit                   004078ae f   LIBCMT:onexit.obj
 0001:000068e6       _atexit                    004078e6 f   LIBCMT:onexit.obj
 0001:000068f8       _abort                     004078f8 f   LIBCMT:abort.obj
 0001:00006910       _memcmp                    00407910 f   LIBCMT:memcmp.obj
 0001:000069f9       @__security_check_cookie@4 004079f9 f   LIBCMT:secchk.obj
 0001:00006a07       __EH_prolog2               00407a07 f   LIBCMT:ehprolg2.obj
 0001:00006a3e       __amsg_exit                00407a3e f   LIBCMT:crt0.obj
 0001:00006add       _mainCRTStartup            00407add f   LIBCMT:crt0.obj
 0001:00006d0a       ___FrameUnwindToState      00407d0a f   LIBCMT:frame.obj
 0001:00006e08       ___DestructExceptionObject 00407e08 f   LIBCMT:frame.obj
 0001:00006e6c       ?__uncaught_exception@@YA_NXZ 00407e6c f   LIBCMT:frame.obj
 0001:00006e7f       ___CxxRegisterExceptionObject 00407e7f f   LIBCMT:frame.obj
 0001:00006f22       ___CxxDetectRethrow        00407f22 f   LIBCMT:frame.obj
 0001:00006f5a       ___CxxUnregisterExceptionObject 00407f5a f   LIBCMT:frame.obj
 0001:00006ff8       ___CxxQueryExceptionSize   00407ff8 f   LIBCMT:frame.obj
 0001:00006ffc       ___CxxCallUnwindDtor       00407ffc f   LIBCMT:frame.obj
 0001:0000702a       ___CxxCallUnwindVecDtor    0040802a f   LIBCMT:frame.obj
 0001:000073a1       ___CxxExceptionFilter      004083a1 f   LIBCMT:frame.obj
 0001:000077ef       ___InternalCxxFrameHandler 004087ef f   LIBCMT:frame.obj
 0001:000078a0       _memset                    004088a0 f   LIBCMT:memset.obj
 0001:00007900       ??_V@YAXPAX@Z              00408900 f   LIBCMT:delete2.obj
 0001:00007905       _free                      00408905 f   LIBCMT:free.obj
 0001:00007976       _setvbuf                   00408976 f   LIBCMT:setvbuf.obj
 0001:00007a52       __flush                    00408a52 f   LIBCMT:fflush.obj
 0001:00007aaf       __fflush_lk                00408aaf f   LIBCMT:fflush.obj
 0001:00007bb2       _fflush                    00408bb2 f   LIBCMT:fflush.obj
 0001:00007c02       __flushall                 00408c02 f   LIBCMT:fflush.obj
 0001:00007c0b       __ungetc_lk                00408c0b f   LIBCMT:ungetc.obj
 0001:00007c77       _ungetc                    00408c77 f   LIBCMT:ungetc.obj
 0001:00007cbc       _fgetc                     00408cbc f   LIBCMT:fgetc.obj
 0001:00007d0c       _getc                      00408d0c f   LIBCMT:fgetc.obj
 0001:00007d5c       __fwrite_lk                00408d5c f   LIBCMT:fwrite.obj
 0001:00007e63       _fwrite                    00408e63 f   LIBCMT:fwrite.obj
 0001:00007eaf       _fputc                     00408eaf f   LIBCMT:fputc.obj
 0001:00007f07       _putc                      00408f07 f   LIBCMT:fputc.obj
 0001:00007f5f       _fgetpos                   00408f5f f   LIBCMT:fgetpos.obj
 0001:00007f81       __fseek_lk                 00408f81 f   LIBCMT:fseek.obj
 0001:00008010       _fseek                     00409010 f   LIBCMT:fseek.obj
 0001:00008059       _fsetpos                   00409059 f   LIBCMT:fsetpos.obj
 0001:00008071       __fclose_lk                00409071 f   LIBCMT:fclose.obj
 0001:000080bd       _fclose                    004090bd f   LIBCMT:fclose.obj
 0001:0000810e       ___iob_func                0040910e f   LIBCMT:_file.obj
 0001:00008114       ___initstdio               00409114 f   LIBCMT:_file.obj
 0001:000081bd       ___endstdio                004091bd f   LIBCMT:_file.obj
 0001:000081d1       __lock_file                004091d1 f   LIBCMT:_file.obj
 0001:00008200       __lock_file2               00409200 f   LIBCMT:_file.obj
 0001:00008223       __unlock_file              00409223 f   LIBCMT:_file.obj
 0001:00008252       __unlock_file2             00409252 f   LIBCMT:_file.obj
 0001:00008275       ____setlc_active_func      00409275 f   LIBCMT:setlocal.obj
 0001:0000827b       ____unguarded_readlc_active_add_func 0040927b f   LIBCMT:setlocal.obj
 0001:00008281       ___freetlocinfo            00409281 f   LIBCMT:setlocal.obj
 0001:00008412       ___init_dummy              00409412 f   LIBCMT:setlocal.obj
 0001:00008415       __strcats                  00409415 f   LIBCMT:setlocal.obj
 0001:00008439       ___lc_strtolc              00409439 f   LIBCMT:setlocal.obj
 0001:00008515       ___lc_lctostr              00409515 f   LIBCMT:setlocal.obj
 0001:00008563       ___updatetlocinfo          00409563 f   LIBCMT:setlocal.obj
 0001:0000865d       __expandlocale             0040965d f   LIBCMT:setlocal.obj
 0001:00008c21       _setlocale                 00409c21 f   LIBCMT:setlocal.obj
 0001:00008d97       ___crtLCMapStringA         00409d97 f   LIBCMT:a_map.obj
 0001:00009153       ___pwctype_func            0040a153 f   LIBCMT:ctype.obj
 0001:00009159       ___pctype_func             0040a159 f   LIBCMT:ctype.obj
 0001:0000915f       _isalpha                   0040a15f f   LIBCMT:_ctype.obj
 0001:0000919e       _isupper                   0040a19e f   LIBCMT:_ctype.obj
 0001:000091d8       _islower                   0040a1d8 f   LIBCMT:_ctype.obj
 0001:00009212       _isdigit                   0040a212 f   LIBCMT:_ctype.obj
 0001:0000924c       _isxdigit                  0040a24c f   LIBCMT:_ctype.obj
 0001:0000928b       _isspace                   0040a28b f   LIBCMT:_ctype.obj
 0001:000092c5       _ispunct                   0040a2c5 f   LIBCMT:_ctype.obj
 0001:000092ff       _isalnum                   0040a2ff f   LIBCMT:_ctype.obj
 0001:0000933e       _isprint                   0040a33e f   LIBCMT:_ctype.obj
 0001:0000937d       _isgraph                   0040a37d f   LIBCMT:_ctype.obj
 0001:000093bc       _iscntrl                   0040a3bc f   LIBCMT:_ctype.obj
 0001:000093f6       ___isascii                 0040a3f6 f   LIBCMT:_ctype.obj
 0001:00009403       ___toascii                 0040a403 f   LIBCMT:_ctype.obj
 0001:0000940b       ___iscsymf                 0040a40b f   LIBCMT:_ctype.obj
 0001:00009425       ___iscsym                  0040a425 f   LIBCMT:_ctype.obj
 0001:0000943f       ___init_ctype              0040a43f f   LIBCMT:initctyp.obj
 0001:00009629       ____mb_cur_max_func        0040a629 f   LIBCMT:initctyp.obj
 0001:0000962f       ____lc_codepage_func       0040a62f f   LIBCMT:initctyp.obj
 0001:00009648       ____lc_collate_cp_func     0040a648 f   LIBCMT:initctyp.obj
 0001:00009661       ____lc_handle_func         0040a661 f   LIBCMT:initctyp.obj
 0001:0000967a       __mtinitlocks              0040a67a f   LIBCMT:mlock.obj
 0001:000096c3       __mtdeletelocks            0040a6c3 f   LIBCMT:mlock.obj
 0001:00009718       __unlock                   0040a718 f   LIBCMT:mlock.obj
 0001:0000972d       __lockerr_exit             0040a72d f   LIBCMT:mlock.obj
 0001:00009745       __mtinitlocknum            0040a745 f   LIBCMT:mlock.obj
 0001:000097e5       __lock                     0040a7e5 f   LIBCMT:mlock.obj
 0001:00009816       __heap_alloc               0040a816 f   LIBCMT:malloc.obj
 0001:00009891       __nh_malloc                0040a891 f   LIBCMT:malloc.obj
 0001:000098bd       _malloc                    0040a8bd f   LIBCMT:malloc.obj
 0001:000098d0       __SEH_prolog               0040a8d0 f   LIBCMT:sehprolg.obj
 0001:0000990b       __SEH_epilog               0040a90b f   LIBCMT:sehprolg.obj
 0001:00009924       __except_handler3          0040a924 f   LIBCMT:exsup3.obj
 0001:00009a0a       __seh_longjmp_unwind@4     0040aa0a f   LIBCMT:exsup3.obj
 0001:00009a30       _strcmp                    0040aa30 f   LIBCMT:strcmp.obj
 0001:00009ab8       ___crtTlsAlloc@4           0040aab8 f   LIBCMT:tidtable.obj
 0001:00009ac1       __mtterm                   0040aac1 f   LIBCMT:tidtable.obj
 0001:00009ade       __initptd                  0040aade f   LIBCMT:tidtable.obj
 0001:00009af1       __getptd                   0040aaf1 f   LIBCMT:tidtable.obj
 0001:00009b62       __freefls@4                0040ab62 f   LIBCMT:tidtable.obj
 0001:00009ca9       __freeptd                  0040aca9 f   LIBCMT:tidtable.obj
 0001:00009cd8       ___threadid                0040acd8 f   LIBCMT:tidtable.obj
 0001:00009cde       ___threadhandle            0040acde f   LIBCMT:tidtable.obj
 0001:00009ce4       __mtinit                   0040ace4 f   LIBCMT:tidtable.obj
 0001:00009dd3       ?terminate@@YAXXZ          0040add3 f   LIBCMT:hooks.obj
 0001:00009e08       ?unexpected@@YAXXZ         0040ae08 f   LIBCMT:hooks.obj
 0001:00009e20       ?_inconsistency@@YAXXZ     0040ae20 f   LIBCMT:hooks.obj
 0001:00009e50       __CallSettingFrame@12      0040ae50 f   LIBCMT:lowhelpr.obj
 0001:00009e77       __NLG_Return               0040ae77     LIBCMT:lowhelpr.obj
 0001:00009e9c       ?__CxxUnhandledExceptionFilter@@YGJPAU_EXCEPTION_POINTERS@@@Z 0040ae9c f   LIBCMT:unhandld.obj
 0001:00009eea       ?__CxxSetUnhandledExceptionFilter@@YAHXZ 0040aeea f   LIBCMT:unhandld.obj
 0001:00009efd       ?__CxxRestoreUnhandledExceptionFilter@@YAXXZ 0040aefd f   LIBCMT:unhandld.obj
 0001:00009f10       _strcpy                    0040af10 f   LIBCMT:strcat.obj
 0001:00009f20       _strcat                    0040af20 f   LIBCMT:strcat.obj
 0001:0000a008       _realloc                   0040b008 f   LIBCMT:realloc.obj
 0001:0000a1b5       ___crtExitProcess          0040b1b5 f   LIBCMT:crt0dat.obj
 0001:0000a1e5       __lockexit                 0040b1e5 f   LIBCMT:crt0dat.obj
 0001:0000a1ee       __unlockexit               0040b1ee f   LIBCMT:crt0dat.obj
 0001:0000a22d       __cinit                    0040b22d f   LIBCMT:crt0dat.obj
 0001:0000a35a       _exit                      0040b35a f   LIBCMT:crt0dat.obj
 0001:0000a36b       __exit                     0040b36b f   LIBCMT:crt0dat.obj
 0001:0000a37c       __cexit                    0040b37c f   LIBCMT:crt0dat.obj
 0001:0000a38b       __c_exit                   0040b38b f   LIBCMT:crt0dat.obj
 0001:0000a39a       __msize                    0040b39a f   LIBCMT:msize.obj
 0001:0000a4cd       ___fpecode                 0040b4cd f   LIBCMT:winsig.obj
 0001:0000a4d6       ___pxcptinfoptrs           0040b4d6 f   LIBCMT:winsig.obj
 0001:0000a4df       _signal                    0040b4df f   LIBCMT:winsig.obj
 0001:0000a680       _raise                     0040b680 f   LIBCMT:winsig.obj
 0001:0000a7f9       __NMSG_WRITE               0040b7f9 f   LIBCMT:crt0msg.obj
 0001:0000a970       __GET_RTERRMSG             0040b970 f   LIBCMT:crt0msg.obj
 0001:0000a99a       __FF_MSGBANNER             0040b99a f   LIBCMT:crt0msg.obj
 0001:0000a9d3       ___security_init_cookie    0040b9d3 f   LIBCMT:seccinit.obj
 0001:0000aa39       ___security_error_handler  0040ba39 f   LIBCMT:secfail.obj
 0001:0000ab81       __set_security_error_handler 0040bb81 f   LIBCMT:secfail.obj
 0001:0000ab91       ___buffer_overrun          0040bb91 f   LIBCMT:secfail.obj
 0001:0000ab9d       ___set_buffer_overrun_handler 0040bb9d f   LIBCMT:secfail.obj
 0001:0000abd9       __XcptFilter               0040bbd9 f   LIBCMT:winxfltr.obj
 0001:0000ad3d       ___CppXcptFilter           0040bd3d f   LIBCMT:winxfltr.obj
 0001:0000ad58       __setenvp                  0040bd58 f   LIBCMT:stdenvp.obj
 0001:0000af8b       __setargv                  0040bf8b f   LIBCMT:stdargv.obj
 0001:0000b02d       ___crtGetEnvironmentStringsA 0040c02d f   LIBCMT:a_env.obj
 0001:0000b14f       __ioinit                   0040c14f f   LIBCMT:ioinit.obj
 0001:0000b34d       __ioterm                   0040c34d f   LIBCMT:ioinit.obj
 0001:0000b399       __RTC_Initialize           0040c399 f   LIBCMT:initsect.obj
 0001:0000b3dd       __RTC_Terminate            0040c3dd f   LIBCMT:initsect.obj
 0001:0000b421       ___heap_select             0040c421 f   LIBCMT:heapinit.obj
 0001:0000b43b       __heap_init                0040c43b f   LIBCMT:heapinit.obj
 0001:0000b48c       __heap_term                0040c48c f   LIBCMT:heapinit.obj
 0001:0000b50b       __get_heap_handle          0040c50b f   LIBCMT:heapinit.obj
 0001:0000b520       __alloca_probe             0040c520     LIBCMT:chkstk.obj
 0001:0000b520       __chkstk                   0040c520 f   LIBCMT:chkstk.obj
 0001:0000b55d       ?_ValidateRead@@YAHPBXI@Z  0040c55d f   LIBCMT:validate.obj
 0001:0000b579       ?_ValidateWrite@@YAHPAXI@Z 0040c579 f   LIBCMT:validate.obj
 0001:0000b595       ?_ValidateExecute@@YAHP6GHXZ@Z 0040c595 f   LIBCMT:validate.obj
 0001:0000b5ad       __get_sbh_threshold        0040c5ad f   LIBCMT:sbheap.obj
 0001:0000b5c2       ___sbh_heap_init           0040c5c2 f   LIBCMT:sbheap.obj
 0001:0000b60a       ___sbh_find_block          0040c60a f   LIBCMT:sbheap.obj
 0001:0000b635       ___sbh_free_block          0040c635 f   LIBCMT:sbheap.obj
 0001:0000b94d       ___sbh_alloc_new_region    0040c94d f   LIBCMT:sbheap.obj
 0001:0000ba04       ___sbh_alloc_new_group     0040ca04 f   LIBCMT:sbheap.obj
 0001:0000bb0a       ___sbh_resize_block        0040cb0a f   LIBCMT:sbheap.obj
 0001:0000bde9       ___sbh_heapmin             0040cde9 f   LIBCMT:sbheap.obj
 0001:0000beba       ___sbh_heap_check          0040ceba f   LIBCMT:sbheap.obj
 0001:0000c1d3       __set_sbh_threshold        0040d1d3 f   LIBCMT:sbheap.obj
 0001:0000c22e       ___sbh_alloc_block         0040d22e f   LIBCMT:sbheap.obj
 0001:0000c52a       __freebuf                  0040d52a f   LIBCMT:_freebuf.obj
 0001:0000c555       __write_lk                 0040d555 f   LIBCMT:write.obj
 0001:0000c723       __write                    0040d723 f   LIBCMT:write.obj
 0001:0000c7ce       __commit                   0040d7ce f   LIBCMT:commit.obj
 0001:0000c88a       __getbuf                   0040d88a f   LIBCMT:_getbuf.obj
 0001:0000c8ce       __filbuf                   0040d8ce f   LIBCMT:_filbuf.obj
 0001:0000c9af       __flsbuf                   0040d9af f   LIBCMT:_flsbuf.obj
 0001:0000cac8       __ftelli64_lk              0040dac8 f   LIBCMT:ftelli64.obj
 0001:0000cc5d       __ftelli64                 0040dc5d f   LIBCMT:ftelli64.obj
 0001:0000cca4       __errno                    0040dca4 f   LIBCMT:dosmap.obj
 0001:0000ccad       ___doserrno                0040dcad f   LIBCMT:dosmap.obj
 0001:0000ccb6       __dosmaperr                0040dcb6 f   LIBCMT:dosmap.obj
 0001:0000cd29       __lseek_lk                 0040dd29 f   LIBCMT:lseek.obj
 0001:0000cd9d       __lseek                    0040dd9d f   LIBCMT:lseek.obj
 0001:0000ce48       __ftell_lk                 0040de48 f   LIBCMT:ftell.obj
 0001:0000cfaa       _ftell                     0040dfaa f   LIBCMT:ftell.obj
 0001:0000cfeb       __fseeki64_lk              0040dfeb f   LIBCMT:fseeki64.obj
 0001:0000d07e       __fseeki64                 0040e07e f   LIBCMT:fseeki64.obj
 0001:0000d0ca       __close_lk                 0040e0ca f   LIBCMT:close.obj
 0001:0000d14d       __close                    0040e14d f   LIBCMT:close.obj
 0001:0000d1e8       _calloc                    0040e1e8 f   LIBCMT:calloc.obj
 0001:0000d2a3       __fcloseall                0040e2a3 f   LIBCMT:closeall.obj
 0001:0000d33e       __Getdays                  0040e33e f   LIBCMT:strftime.obj
 0001:0000d3bd       __Getmonths                0040e3bd f   LIBCMT:strftime.obj
 0001:0000d452       __Gettnames                0040e452 f   LIBCMT:strftime.obj
 0001:0000de44       __Strftime_mt              0040ee44 f   LIBCMT:strftime.obj
 0001:0000df09       __Strftime                 0040ef09 f   LIBCMT:strftime.obj
 0001:0000df3b       _strftime                  0040ef3b f   LIBCMT:strftime.obj
 0001:0000df56       _localeconv                0040ef56 f   LIBCMT:lconv.obj
 0001:0000e2c3       ___free_lc_time            0040f2c3 f   LIBCMT:inittime.obj
 0001:0000e453       ___init_time               0040f453 f   LIBCMT:inittime.obj
 0001:0000e4e5       ___free_lconv_num          0040f4e5 f   LIBCMT:initnum.obj
 0001:0000e544       ___init_numeric            0040f544 f   LIBCMT:initnum.obj
 0001:0000e744       ___free_lconv_mon          0040f744 f   LIBCMT:initmon.obj
 0001:0000e81d       ___init_monetary           0040f81d f   LIBCMT:initmon.obj
 0001:0000ea5c       ___init_collate            0040fa5c f   LIBCMT:initcoll.obj
 0001:0000ea60       _strcspn                   0040fa60 f   LIBCMT:strcspn.obj
 0001:0000eab0       _strncpy                   0040fab0 f   LIBCMT:strncpy.obj
 0001:0000f313       ___get_qualified_locale    00410313 f   LIBCMT:getqloc.obj
 0001:0000f4c8       ___crtGetStringTypeA       004104c8 f   LIBCMT:a_str.obj
 0001:0000f690       _strncmp                   00410690 f   LIBCMT:strncmp.obj
 0001:0000f6d0       _strpbrk                   004106d0 f   LIBCMT:strpbrk.obj
 0001:0000f710       ___ansicp                  00410710 f   LIBCMT:convrtcp.obj
 0001:0000f753       ___convertcp               00410753 f   LIBCMT:convrtcp.obj
 0001:0000f91c       __resetstkoflw             0041091c f   LIBCMT:resetstk.obj
 0001:0000f9ff       ___isctype_mt              004109ff f   LIBCMT:isctype.obj
 0001:0000fa76       __isctype                  00410a76 f   LIBCMT:isctype.obj
 0001:0000fa9d       ___getlocaleinfo           00410a9d f   LIBCMT:inithelp.obj
 0001:0000fbd4       ___crtInitCritSecAndSpinCount 00410bd4 f   LIBCMT:initcrit.obj
 0001:0000fc5f       ?_set_new_handler@@YAP6AHI@ZP6AHI@Z@Z 00410c5f f   LIBCMT:handler.obj
 0001:0000fc83       ?_query_new_handler@@YAP6AHI@ZXZ 00410c83 f   LIBCMT:handler.obj
 0001:0000fc89       __callnewh                 00410c89 f   LIBCMT:handler.obj
 0001:0000fca4       __ValidateEH3RN            00410ca4 f   LIBCMT:eh3valid.obj
 0001:000100f7       ___updatetmbcinfo          004110f7 f   LIBCMT:mbctype.obj
 0001:000102f6       __getmbcp                  004112f6 f   LIBCMT:mbctype.obj
 0001:00010306       __setmbcp                  00411306 f   LIBCMT:mbctype.obj
 0001:00010456       ___initmbctable            00411456 f   LIBCMT:mbctype.obj
 0001:00010474       ___crtMessageBoxA          00411474 f   LIBCMT:crtmbox.obj
 0001:0001056d       __lseeki64_lk              0041156d f   LIBCMT:lseeki64.obj
 0001:000105f0       __lseeki64                 004115f0 f   LIBCMT:lseeki64.obj
 0001:000106ae       __set_osfhnd               004116ae f   LIBCMT:osfinfo.obj
 0001:0001072a       __free_osfhnd              0041172a f   LIBCMT:osfinfo.obj
 0001:000107a9       __get_osfhandle            004117a9 f   LIBCMT:osfinfo.obj
 0001:000107ea       __lock_fhandle             004117ea f   LIBCMT:osfinfo.obj
 0001:0001088a       __unlock_fhandle           0041188a f   LIBCMT:osfinfo.obj
 0001:000108ac       __alloc_osfhnd             004118ac f   LIBCMT:osfinfo.obj
 0001:00010a28       __open_osfhandle           00411a28 f   LIBCMT:osfinfo.obj
 0001:00010aef       __read_lk                  00411aef f   LIBCMT:read.obj
 0001:00010cca       __read                     00411cca f   LIBCMT:read.obj
 0001:00010d75       __isatty                   00411d75 f   LIBCMT:isatty.obj
 0001:00011386       ___tzset                   00412386 f   LIBCMT:tzset.obj
 0001:000113d2       __tzset                    004123d2 f   LIBCMT:tzset.obj
 0001:00011407       __isindst                  00412407 f   LIBCMT:tzset.obj
 0001:00011450       ___ascii_stricmp           00412450 f   LIBCMT:_stricmp.obj
 0001:0001149e       __stricmp                  0041249e f   LIBCMT:stricmp.obj
 0001:00011507       _atol                      00412507 f   LIBCMT:atox.obj
 0001:0001158f       _atoi                      0041258f f   LIBCMT:atox.obj
 0001:00011594       __atoi64                   00412594 f   LIBCMT:atox.obj
 0001:0001163b       __strnicmp                 0041263b f   LIBCMT:strnicmp.obj
 0001:000116f8       __itoa                     004126f8 f   LIBCMT:xtoa.obj
 0001:00011722       __ltoa                     00412722 f   LIBCMT:xtoa.obj
 0001:00011749       __ultoa                    00412749 f   LIBCMT:xtoa.obj
 0001:000117d0       __i64toa                   004127d0 f   LIBCMT:xtoa.obj
 0001:00011801       __ui64toa                  00412801 f   LIBCMT:xtoa.obj
 0001:0001181c       ___crtGetLocaleInfoW       0041281c f   LIBCMT:w_loc.obj
 0001:0001194c       ___crtGetLocaleInfoA       0041294c f   LIBCMT:a_loc.obj
 0001:00011a8c       __getenv_lk                00412a8c f   LIBCMT:getenv.obj
 0001:00011b0d       _getenv                    00412b0d f   LIBCMT:getenv.obj
 0001:00011b4c       __tolower                  00412b4c f   LIBCMT:tolower.obj
 0001:00011b54       ___tolower_mt              00412b54 f   LIBCMT:tolower.obj
 0001:00011c1c       _tolower                   00412c1c f   LIBCMT:tolower.obj
 0001:00011c40       __allmul                   00412c40 f   LIBCMT:llmul.obj
 0001:00011c80       ___ascii_strnicmp          00412c80 f   LIBCMT:_strnicm.obj
 0001:00011cf0       __aulldvrm                 00412cf0 f   LIBCMT:ulldvrm.obj
 0001:00011d85       __mbsnbicoll               00412d85 f   LIBCMT:mbsnbico.obj
 0001:00011dd3       ___wtomb_environ           00412dd3 f   LIBCMT:wtombenv.obj
 0001:00011e7f       ___crtCompareStringA       00412e7f f   LIBCMT:a_cmp.obj
 0001:000122b1       ___crtsetenv               004132b1 f   LIBCMT:setenv.obj
 0001:00012486       __strdup                   00413486 f   LIBCMT:strdup.obj
 0001:000124b1       __mbschr                   004134b1 f   LIBCMT:mbschr.obj
 0001:00012540       _strchr                    00413540 f   LIBCMT:strchr.obj
 0001:00012546       ___from_strstr_to_strchr   00413546     LIBCMT:strchr.obj
 0001:000125fe       _InterlockedIncrement@4    004135fe f   kernel32:KERNEL32.dll
 0001:00012604       _InterlockedDecrement@4    00413604 f   kernel32:KERNEL32.dll
 0001:0001260a       _Sleep@4                   0041360a f   kernel32:KERNEL32.dll
 0001:00012610       _InterlockedExchange@8     00413610 f   kernel32:KERNEL32.dll
 0001:00012616       _InitializeCriticalSection@4 00413616 f   kernel32:KERNEL32.dll
 0001:0001261c       _DeleteCriticalSection@4   0041361c f   kernel32:KERNEL32.dll
 0001:00012622       _EnterCriticalSection@4    00413622 f   kernel32:KERNEL32.dll
 0001:00012628       _LeaveCriticalSection@4    00413628 f   kernel32:KERNEL32.dll
 0001:0001262e       _RtlUnwind@16              0041362e f   kernel32:KERNEL32.dll
 0001:00012634       _RaiseException@16         00413634 f   kernel32:KERNEL32.dll
 0001:0001263a       _ExitProcess@4             0041363a f   kernel32:KERNEL32.dll
 0001:00012640       _GetModuleHandleA@4        00413640 f   kernel32:KERNEL32.dll
 0001:00012646       _GetCommandLineA@0         00413646 f   kernel32:KERNEL32.dll
 0001:0001264c       _GetVersionExA@4           0041364c f   kernel32:KERNEL32.dll
 0001:00012652       _HeapFree@12               00413652 f   kernel32:KERNEL32.dll
 0001:00012658       _LCMapStringA@24           00413658 f   kernel32:KERNEL32.dll
 0001:0001265e       _WideCharToMultiByte@32    0041365e f   kernel32:KERNEL32.dll
 0001:00012664       _MultiByteToWideChar@24    00413664 f   kernel32:KERNEL32.dll
 0001:0001266a       _GetLastError@0            0041366a f   kernel32:KERNEL32.dll
 0001:00012670       _LCMapStringW@24           00413670 f   kernel32:KERNEL32.dll
 0001:00012676       _GetCPInfo@8               00413676 f   kernel32:KERNEL32.dll
 0001:0001267c       _FatalAppExitA@8           0041367c f   kernel32:KERNEL32.dll
 0001:00012682       _HeapAlloc@12              00413682 f   kernel32:KERNEL32.dll
 0001:00012688       _TlsAlloc@0                00413688 f   kernel32:KERNEL32.dll
 0001:0001268e       _SetLastError@4            0041368e f   kernel32:KERNEL32.dll
 0001:00012694       _GetCurrentThreadId@0      00413694 f   kernel32:KERNEL32.dll
 0001:0001269a       _GetCurrentThread@0        0041369a f   kernel32:KERNEL32.dll
 0001:000126a0       _TlsFree@4                 004136a0 f   kernel32:KERNEL32.dll
 0001:000126a6       _TlsSetValue@8             004136a6 f   kernel32:KERNEL32.dll
 0001:000126ac       _TlsGetValue@4             004136ac f   kernel32:KERNEL32.dll
 0001:000126b2       _GetProcAddress@8          004136b2 f   kernel32:KERNEL32.dll
 0001:000126b8       _SetUnhandledExceptionFilter@4 004136b8 f   kernel32:KERNEL32.dll
 0001:000126be       _HeapReAlloc@16            004136be f   kernel32:KERNEL32.dll
 0001:000126c4       _TerminateProcess@8        004136c4 f   kernel32:KERNEL32.dll
 0001:000126ca       _GetCurrentProcess@0       004136ca f   kernel32:KERNEL32.dll
 0001:000126d0       _HeapSize@12               004136d0 f   kernel32:KERNEL32.dll
 0001:000126d6       _SetConsoleCtrlHandler@8   004136d6 f   kernel32:KERNEL32.dll
 0001:000126dc       _WriteFile@20              004136dc f   kernel32:KERNEL32.dll
 0001:000126e2       _GetStdHandle@4            004136e2 f   kernel32:KERNEL32.dll
 0001:000126e8       _GetModuleFileNameA@12     004136e8 f   kernel32:KERNEL32.dll
 0001:000126ee       _QueryPerformanceCounter@4 004136ee f   kernel32:KERNEL32.dll
 0001:000126f4       _GetTickCount@0            004136f4 f   kernel32:KERNEL32.dll
 0001:000126fa       _GetCurrentProcessId@0     004136fa f   kernel32:KERNEL32.dll
 0001:00012700       _GetSystemTimeAsFileTime@4 00413700 f   kernel32:KERNEL32.dll
 0001:00012706       _UnhandledExceptionFilter@4 00413706 f   kernel32:KERNEL32.dll
 0001:0001270c       _FreeEnvironmentStringsA@4 0041370c f   kernel32:KERNEL32.dll
 0001:00012712       _GetEnvironmentStrings@0   00413712 f   kernel32:KERNEL32.dll
 0001:00012718       _FreeEnvironmentStringsW@4 00413718 f   kernel32:KERNEL32.dll
 0001:0001271e       _GetEnvironmentStringsW@0  0041371e f   kernel32:KERNEL32.dll
 0001:00012724       _SetHandleCount@4          00413724 f   kernel32:KERNEL32.dll
 0001:0001272a       _GetFileType@4             0041372a f   kernel32:KERNEL32.dll
 0001:00012730       _GetStartupInfoA@4         00413730 f   kernel32:KERNEL32.dll
 0001:00012736       _HeapDestroy@4             00413736 f   kernel32:KERNEL32.dll
 0001:0001273c       _HeapCreate@12             0041373c f   kernel32:KERNEL32.dll
 0001:00012742       _VirtualFree@12            00413742 f   kernel32:KERNEL32.dll
 0001:00012748       _IsBadReadPtr@8            00413748 f   kernel32:KERNEL32.dll
 0001:0001274e       _IsBadWritePtr@8           0041374e f   kernel32:KERNEL32.dll
 0001:00012754       _IsBadCodePtr@4            00413754 f   kernel32:KERNEL32.dll
 0001:0001275a       _VirtualAlloc@16           0041375a f   kernel32:KERNEL32.dll
 0001:00012760       _FlushFileBuffers@4        00413760 f   kernel32:KERNEL32.dll
 0001:00012766       _SetFilePointer@16         00413766 f   kernel32:KERNEL32.dll
 0001:0001276c       _CloseHandle@4             0041376c f   kernel32:KERNEL32.dll
 0001:00012772       _GetTimeFormatA@24         00413772 f   kernel32:KERNEL32.dll
 0001:00012778       _GetDateFormatA@24         00413778 f   kernel32:KERNEL32.dll
 0001:0001277e       _GetUserDefaultLCID@0      0041377e f   kernel32:KERNEL32.dll
 0001:00012784       _GetLocaleInfoA@16         00413784 f   kernel32:KERNEL32.dll
 0001:0001278a       _EnumSystemLocalesA@8      0041378a f   kernel32:KERNEL32.dll
 0001:00012790       _IsValidLocale@8           00413790 f   kernel32:KERNEL32.dll
 0001:00012796       _IsValidCodePage@4         00413796 f   kernel32:KERNEL32.dll
 0001:0001279c       _GetStringTypeA@20         0041379c f   kernel32:KERNEL32.dll
 0001:000127a2       _GetStringTypeW@16         004137a2 f   kernel32:KERNEL32.dll
 0001:000127a8       _VirtualProtect@16         004137a8 f   kernel32:KERNEL32.dll
 0001:000127ae       _GetSystemInfo@4           004137ae f   kernel32:KERNEL32.dll
 0001:000127b4       _VirtualQuery@12           004137b4 f   kernel32:KERNEL32.dll
 0001:000127ba       _GetACP@0                  004137ba f   kernel32:KERNEL32.dll
 0001:000127c0       _GetOEMCP@0                004137c0 f   kernel32:KERNEL32.dll
 0001:000127c6       _LoadLibraryA@4            004137c6 f   kernel32:KERNEL32.dll
 0001:000127cc       _SetStdHandle@8            004137cc f   kernel32:KERNEL32.dll
 0001:000127d2       _ReadFile@20               004137d2 f   kernel32:KERNEL32.dll
 0001:000127d8       _GetTimeZoneInformation@4  004137d8 f   kernel32:KERNEL32.dll
 0001:000127de       _GetLocaleInfoW@16         004137de f   kernel32:KERNEL32.dll
 0001:000127e4       _CompareStringA@24         004137e4 f   kernel32:KERNEL32.dll
 0001:000127ea       _CompareStringW@24         004137ea f   kernel32:KERNEL32.dll
 0001:000127f0       _SetEnvironmentVariableA@8 004137f0 f   kernel32:KERNEL32.dll
 0002:00000000       __imp__CompareStringW@24   00415000     kernel32:KERNEL32.dll
 0002:00000004       __imp__CompareStringA@24   00415004     kernel32:KERNEL32.dll
 0002:00000008       __imp__GetLocaleInfoW@16   00415008     kernel32:KERNEL32.dll
 0002:0000000c       __imp__GetTimeZoneInformation@4 0041500c     kernel32:KERNEL32.dll
 0002:00000010       __imp__ReadFile@20         00415010     kernel32:KERNEL32.dll
 0002:00000014       __imp__SetStdHandle@8      00415014     kernel32:KERNEL32.dll
 0002:00000018       __imp__LoadLibraryA@4      00415018     kernel32:KERNEL32.dll
 0002:0000001c       __imp__GetOEMCP@0          0041501c     kernel32:KERNEL32.dll
 0002:00000020       __imp__GetACP@0            00415020     kernel32:KERNEL32.dll
 0002:00000024       __imp__VirtualQuery@12     00415024     kernel32:KERNEL32.dll
 0002:00000028       __imp__GetSystemInfo@4     00415028     kernel32:KERNEL32.dll
 0002:0000002c       __imp__VirtualProtect@16   0041502c     kernel32:KERNEL32.dll
 0002:00000030       __imp__GetStringTypeW@16   00415030     kernel32:KERNEL32.dll
 0002:00000034       __imp__GetStringTypeA@20   00415034     kernel32:KERNEL32.dll
 0002:00000038       __imp__IsValidCodePage@4   00415038     kernel32:KERNEL32.dll
 0002:0000003c       __imp__IsValidLocale@8     0041503c     kernel32:KERNEL32.dll
 0002:00000040       __imp__EnumSystemLocalesA@8 00415040     kernel32:KERNEL32.dll
 0002:00000044       __imp__GetLocaleInfoA@16   00415044     kernel32:KERNEL32.dll
 0002:00000048       __imp__GetUserDefaultLCID@0 00415048     kernel32:KERNEL32.dll
 0002:0000004c       __imp__GetDateFormatA@24   0041504c     kernel32:KERNEL32.dll
 0002:00000050       __imp__GetTimeFormatA@24   00415050     kernel32:KERNEL32.dll
 0002:00000054       __imp__CloseHandle@4       00415054     kernel32:KERNEL32.dll
 0002:00000058       __imp__SetFilePointer@16   00415058     kernel32:KERNEL32.dll
 0002:0000005c       __imp__FlushFileBuffers@4  0041505c     kernel32:KERNEL32.dll
 0002:00000060       __imp__VirtualAlloc@16     00415060     kernel32:KERNEL32.dll
 0002:00000064       __imp__IsBadCodePtr@4      00415064     kernel32:KERNEL32.dll
 0002:00000068       __imp__IsBadWritePtr@8     00415068     kernel32:KERNEL32.dll
 0002:0000006c       __imp__IsBadReadPtr@8      0041506c     kernel32:KERNEL32.dll
 0002:00000070       __imp__VirtualFree@12      00415070     kernel32:KERNEL32.dll
 0002:00000074       __imp__HeapCreate@12       00415074     kernel32:KERNEL32.dll
 0002:00000078       __imp__HeapDestroy@4       00415078     kernel32:KERNEL32.dll
 0002:0000007c       __imp__GetStartupInfoA@4   0041507c     kernel32:KERNEL32.dll
 0002:00000080       __imp__GetFileType@4       00415080     kernel32:KERNEL32.dll
 0002:00000084       __imp__SetHandleCount@4    00415084     kernel32:KERNEL32.dll
 0002:00000088       __imp__GetEnvironmentStringsW@0 00415088     kernel32:KERNEL32.dll
 0002:0000008c       __imp__FreeEnvironmentStringsW@4 0041508c     kernel32:KERNEL32.dll
 0002:00000090       __imp__GetEnvironmentStrings@0 00415090     kernel32:KERNEL32.dll
 0002:00000094       __imp__FreeEnvironmentStringsA@4 00415094     kernel32:KERNEL32.dll
 0002:00000098       __imp__UnhandledExceptionFilter@4 00415098     kernel32:KERNEL32.dll
 0002:0000009c       __imp__GetSystemTimeAsFileTime@4 0041509c     kernel32:KERNEL32.dll
 0002:000000a0       __imp__GetCurrentProcessId@0 004150a0     kernel32:KERNEL32.dll
 0002:000000a4       __imp__GetTickCount@0      004150a4     kernel32:KERNEL32.dll
 0002:000000a8       __imp__QueryPerformanceCounter@4 004150a8     kernel32:KERNEL32.dll
 0002:000000ac       __imp__GetModuleFileNameA@12 004150ac     kernel32:KERNEL32.dll
 0002:000000b0       __imp__GetStdHandle@4      004150b0     kernel32:KERNEL32.dll
 0002:000000b4       __imp__WriteFile@20        004150b4     kernel32:KERNEL32.dll
 0002:000000b8       __imp__SetConsoleCtrlHandler@8 004150b8     kernel32:KERNEL32.dll
 0002:000000bc       __imp__HeapSize@12         004150bc     kernel32:KERNEL32.dll
 0002:000000c0       __imp__GetCurrentProcess@0 004150c0     kernel32:KERNEL32.dll
 0002:000000c4       __imp__TerminateProcess@8  004150c4     kernel32:KERNEL32.dll
 0002:000000c8       __imp__HeapReAlloc@16      004150c8     kernel32:KERNEL32.dll
 0002:000000cc       __imp__SetUnhandledExceptionFilter@4 004150cc     kernel32:KERNEL32.dll
 0002:000000d0       __imp__GetProcAddress@8    004150d0     kernel32:KERNEL32.dll
 0002:000000d4       __imp__TlsGetValue@4       004150d4     kernel32:KERNEL32.dll
 0002:000000d8       __imp__TlsSetValue@8       004150d8     kernel32:KERNEL32.dll
 0002:000000dc       __imp__TlsFree@4           004150dc     kernel32:KERNEL32.dll
 0002:000000e0       __imp__GetCurrentThread@0  004150e0     kernel32:KERNEL32.dll
 0002:000000e4       __imp__GetCurrentThreadId@0 004150e4     kernel32:KERNEL32.dll
 0002:000000e8       __imp__SetLastError@4      004150e8     kernel32:KERNEL32.dll
 0002:000000ec       __imp__TlsAlloc@0          004150ec     kernel32:KERNEL32.dll
 0002:000000f0       __imp__HeapAlloc@12        004150f0     kernel32:KERNEL32.dll
 0002:000000f4       __imp__FatalAppExitA@8     004150f4     kernel32:KERNEL32.dll
 0002:000000f8       __imp__GetCPInfo@8         004150f8     kernel32:KERNEL32.dll
 0002:000000fc       __imp__LCMapStringW@24     004150fc     kernel32:KERNEL32.dll
 0002:00000100       __imp__GetLastError@0      00415100     kernel32:KERNEL32.dll
 0002:00000104       __imp__MultiByteToWideChar@24 00415104     kernel32:KERNEL32.dll
 0002:00000108       __imp__WideCharToMultiByte@32 00415108     kernel32:KERNEL32.dll
 0002:0000010c       __imp__LCMapStringA@24     0041510c     kernel32:KERNEL32.dll
 0002:00000110       __imp__HeapFree@12         00415110     kernel32:KERNEL32.dll
 0002:00000114       __imp__GetVersionExA@4     00415114     kernel32:KERNEL32.dll
 0002:00000118       __imp__GetCommandLineA@0   00415118     kernel32:KERNEL32.dll
 0002:0000011c       __imp__GetModuleHandleA@4  0041511c     kernel32:KERNEL32.dll
 0002:00000120       __imp__ExitProcess@4       00415120     kernel32:KERNEL32.dll
 0002:00000124       __imp__RaiseException@16   00415124     kernel32:KERNEL32.dll
 0002:00000128       __imp__RtlUnwind@16        00415128     kernel32:KERNEL32.dll
 0002:0000012c       __imp__LeaveCriticalSection@4 0041512c     kernel32:KERNEL32.dll
 0002:00000130       __imp__EnterCriticalSection@4 00415130     kernel32:KERNEL32.dll
 0002:00000134       __imp__DeleteCriticalSection@4 00415134     kernel32:KERNEL32.dll
 0002:00000138       __imp__InitializeCriticalSection@4 00415138     kernel32:KERNEL32.dll
 0002:0000013c       __imp__InterlockedExchange@8 0041513c     kernel32:KERNEL32.dll
 0002:00000140       __imp__Sleep@4             00415140     kernel32:KERNEL32.dll
 0002:00000144       __imp__InterlockedDecrement@4 00415144     kernel32:KERNEL32.dll
 0002:00000148       __imp__InterlockedIncrement@4 00415148     kernel32:KERNEL32.dll
 0002:0000014c       __imp__SetEnvironmentVariableA@8 0041514c     kernel32:KERNEL32.dll
 0002:00000150       \177KERNEL32_NULL_THUNK_DATA 00415150     kernel32:KERNEL32.dll
 0002:00000154       __imp_??0?$AlgorithmParametersTemplate@VConstByteArrayParameter@CryptoPP@@@CryptoPP@@QAE@PBDABVConstByteArrayParameter@1@_N@Z 00415154     cryptopp:cryptopp.dll
 0002:00000158       __imp_??1?$AlgorithmParametersTemplate@VConstByteArrayParameter@CryptoPP@@@CryptoPP@@UAE@XZ 00415158     cryptopp:cryptopp.dll
 0002:0000015c       __imp_??0Enc@Rijndael@CryptoPP@@QAE@ABV012@@Z 0041515c     cryptopp:cryptopp.dll
 0002:00000160       __imp_??0Base@DES_EDE3@CryptoPP@@QAE@ABV012@@Z 00415160     cryptopp:cryptopp.dll
 0002:00000164       __imp_??1AlgorithmParameters@CryptoPP@@UAE@XZ 00415164     cryptopp:cryptopp.dll
 0002:00000168       __imp_??0AlgorithmParameters@CryptoPP@@QAE@ABV01@@Z 00415168     cryptopp:cryptopp.dll
 0002:0000016c       __imp_??0AlgorithmParameters@CryptoPP@@QAE@XZ 0041516c     cryptopp:cryptopp.dll
 0002:00000170       __imp_??_D?$DL_PrivateKey_WithSignaturePairwiseConsistencyTest@V?$DL_PrivateKey_GFP@VDL_GroupParameters_DSA@CryptoPP@@@CryptoPP@@UDSA@2@@CryptoPP@@QAEXXZ 00415170     cryptopp:cryptopp.dll
 0002:00000174       __imp_??_D?$DL_PublicKey_GFP@VDL_GroupParameters_DSA@CryptoPP@@@CryptoPP@@QAEXXZ 00415174     cryptopp:cryptopp.dll
 0002:00000178       __imp_?IsForwardTransformation@BlockOrientedCipherModeBase@CryptoPP@@UBE_NXZ 00415178     cryptopp:cryptopp.dll
 0002:0000017c       __imp_?IsSelfInverting@BlockOrientedCipherModeBase@CryptoPP@@UBE_NXZ 0041517c     cryptopp:cryptopp.dll
 0002:00000180       __imp_?IsRandomAccess@BlockOrientedCipherModeBase@CryptoPP@@UBE_NXZ 00415180     cryptopp:cryptopp.dll
 0002:00000184       __imp_?ProcessData@ECB_OneWay@CryptoPP@@UAEXPAEPBEI@Z 00415184     cryptopp:cryptopp.dll
 0002:00000188       __imp_?OptimalDataAlignment@CipherModeBase@CryptoPP@@UBEIXZ 00415188     cryptopp:cryptopp.dll
 0002:0000018c       __imp_?OptimalBlockSize@ECB_OneWay@CryptoPP@@UBEIXZ 0041518c     cryptopp:cryptopp.dll
 0002:00000190       __imp_?MandatoryBlockSize@BlockOrientedCipherModeBase@CryptoPP@@UBEIXZ 00415190     cryptopp:cryptopp.dll
 0002:00000194       __imp_?ResizeBuffers@BlockOrientedCipherModeBase@CryptoPP@@MAEXXZ 00415194     cryptopp:cryptopp.dll
 0002:00000198       __imp_?SetFeedbackSize@CipherModeBase@CryptoPP@@MAEXI@Z 00415198     cryptopp:cryptopp.dll
 0002:0000019c       __imp_?UncheckedSetKey@BlockOrientedCipherModeBase@CryptoPP@@UAEXPBEIABVNameValuePairs@2@@Z 0041519c     cryptopp:cryptopp.dll
 0002:000001a0       __imp_?Resynchronize@BlockOrientedCipherModeBase@CryptoPP@@UAEXPBEH@Z 004151a0     cryptopp:cryptopp.dll
 0002:000001a4       __imp_?IVRequirement@ECB_OneWay@CryptoPP@@UBE?AW4IV_Requirement@SimpleKeyingInterface@2@XZ 004151a4     cryptopp:cryptopp.dll
 0002:000001a8       __imp_?SetKey@ECB_OneWay@CryptoPP@@UAEXPBEIABVNameValuePairs@2@@Z 004151a8     cryptopp:cryptopp.dll
 0002:000001ac       __imp_??0?$DL_PrivateKey_WithSignaturePairwiseConsistencyTest@V?$DL_PrivateKey_GFP@VDL_GroupParameters_DSA@CryptoPP@@@CryptoPP@@UDSA@2@@CryptoPP@@QAE@XZ 004151ac     cryptopp:cryptopp.dll
 0002:000001b0       __imp_??0?$DL_PublicKey_GFP@VDL_GroupParameters_DSA@CryptoPP@@@CryptoPP@@QAE@XZ 004151b0     cryptopp:cryptopp.dll
 0002:000001b4       __imp_??0Exception@CryptoPP@@QAE@ABV01@@Z 004151b4     cryptopp:cryptopp.dll
 0002:000001b8       __imp_??0InvalidArgument@CryptoPP@@QAE@ABV01@@Z 004151b8     cryptopp:cryptopp.dll
 0002:000001bc       __imp_??1InvalidArgument@CryptoPP@@UAE@XZ 004151bc     cryptopp:cryptopp.dll
 0002:000001c0       __imp_??0InvalidArgument@CryptoPP@@QAE@ABV?$basic_string@DU?$char_traits@D@std@@V?$allocator@D@2@@std@@@Z 004151c0     cryptopp:cryptopp.dll
 0002:000001c4       __imp_?GetPrivateKey@PrivateKeyAlgorithm@CryptoPP@@UBEABVPrivateKey@2@XZ 004151c4     cryptopp:cryptopp.dll
 0002:000001c8       __imp_?GetMaterial@PrivateKeyAlgorithm@CryptoPP@@UBEABVCryptoMaterial@2@XZ 004151c8     cryptopp:cryptopp.dll
 0002:000001cc       __imp_?AccessMaterial@PrivateKeyAlgorithm@CryptoPP@@UAEAAVCryptoMaterial@2@XZ 004151cc     cryptopp:cryptopp.dll
 0002:000001d0       __imp_?SignMessageWithRecovery@PK_Signer@CryptoPP@@UBEIAAVRandomNumberGenerator@2@PBEI1IPAE@Z 004151d0     cryptopp:cryptopp.dll
 0002:000001d4       __imp_?SignMessage@PK_Signer@CryptoPP@@UBEIAAVRandomNumberGenerator@2@PBEIPAE@Z 004151d4     cryptopp:cryptopp.dll
 0002:000001d8       __imp_?Sign@PK_Signer@CryptoPP@@UBEIAAVRandomNumberGenerator@2@PAVPK_MessageAccumulator@2@PAE@Z 004151d8     cryptopp:cryptopp.dll
 0002:000001dc       __imp_?SignatureUpfront@PK_SignatureScheme@CryptoPP@@UBE_NXZ 004151dc     cryptopp:cryptopp.dll
 0002:000001e0       __imp_?MaxSignatureLength@PK_SignatureScheme@CryptoPP@@UBEII@Z 004151e0     cryptopp:cryptopp.dll
 0002:000001e4       __imp_?VerifyTruncatedDigest@HashTransformation@CryptoPP@@UAE_NPBEI0I@Z 004151e4     cryptopp:cryptopp.dll
 0002:000001e8       __imp_?TruncatedVerify@HashTransformation@CryptoPP@@UAE_NPBEI@Z 004151e8     cryptopp:cryptopp.dll
 0002:000001ec       __imp_?CalculateTruncatedDigest@HashTransformation@CryptoPP@@UAEXPAEIPBEI@Z 004151ec     cryptopp:cryptopp.dll
 0002:000001f0       __imp_?TruncatedFinal@PK_MessageAccumulator@CryptoPP@@UAEXPAEI@Z 004151f0     cryptopp:cryptopp.dll
 0002:000001f4       __imp_?VerifyDigest@HashTransformation@CryptoPP@@UAE_NPBE0I@Z 004151f4     cryptopp:cryptopp.dll
 0002:000001f8       __imp_?Verify@HashTransformation@CryptoPP@@UAE_NPBE@Z 004151f8     cryptopp:cryptopp.dll
 0002:000001fc       __imp_?CalculateDigest@HashTransformation@CryptoPP@@UAEXPAEPBEI@Z 004151fc     cryptopp:cryptopp.dll
 0002:00000200       __imp_?OptimalDataAlignment@HashTransformation@CryptoPP@@UBEIXZ 00415200     cryptopp:cryptopp.dll
 0002:00000204       __imp_?OptimalBlockSize@HashTransformation@CryptoPP@@UBEIXZ 00415204     cryptopp:cryptopp.dll
 0002:00000208       __imp_?BlockSize@HashTransformation@CryptoPP@@UBEIXZ 00415208     cryptopp:cryptopp.dll
 0002:0000020c       __imp_?DigestSize@PK_MessageAccumulator@CryptoPP@@UBEIXZ 0041520c     cryptopp:cryptopp.dll
 0002:00000210       __imp_?Restart@HashTransformation@CryptoPP@@UAEXXZ 00415210     cryptopp:cryptopp.dll
 0002:00000214       __imp_?Final@HashTransformation@CryptoPP@@UAEXPAE@Z 00415214     cryptopp:cryptopp.dll
 0002:00000218       __imp_?CreateUpdateSpace@HashTransformation@CryptoPP@@UAEPAEAAI@Z 00415218     cryptopp:cryptopp.dll
 0002:0000021c       __imp_?Update@PK_MessageAccumulatorBase@CryptoPP@@UAEXPBEI@Z 0041521c     cryptopp:cryptopp.dll
 0002:00000220       __imp_??1PK_MessageAccumulatorBase@CryptoPP@@UAE@XZ 00415220     cryptopp:cryptopp.dll
 0002:00000224       __imp_??0SHA1@CryptoPP@@QAE@XZ 00415224     cryptopp:cryptopp.dll
 0002:00000228       __imp_??0PK_MessageAccumulatorBase@CryptoPP@@QAE@XZ 00415228     cryptopp:cryptopp.dll
 0002:0000022c       __imp_??1SHA1@CryptoPP@@UAE@XZ 0041522c     cryptopp:cryptopp.dll
 0002:00000230       __imp_??_7?$DL_Algorithm_GDSA@VInteger@CryptoPP@@@CryptoPP@@6B@ 00415230     cryptopp:cryptopp.dll
 0002:00000234       __imp_?VerifyMessageRepresentative@PK_DeterministicSignatureMessageEncodingMethod@CryptoPP@@UBE_NAAVHashTransformation@2@U?$pair@PBEI@std@@_NPAEI@Z 00415234     cryptopp:cryptopp.dll
 0002:00000238       __imp_?ComputeMessageRepresentative@DL_SignatureMessageEncodingMethod_DSA@CryptoPP@@UBEXAAVRandomNumberGenerator@2@PBEIAAVHashTransformation@2@U?$pair@PBEI@std@@_NPAEI@Z 00415238     cryptopp:cryptopp.dll
 0002:0000023c       __imp_??0DL_SignatureMessageEncodingMethod_DSA@CryptoPP@@QAE@XZ 0041523c     cryptopp:cryptopp.dll
 0002:00000240       __imp_??1DL_SignatureMessageEncodingMethod_DSA@CryptoPP@@UAE@XZ 00415240     cryptopp:cryptopp.dll
 0002:00000244       __imp_?Encode@Integer@CryptoPP@@QBEXPAEIW4Signedness@12@@Z 00415244     cryptopp:cryptopp.dll
 0002:00000248       __imp_??4Integer@CryptoPP@@QAEAAV01@ABV01@@Z 00415248     cryptopp:cryptopp.dll
 0002:0000024c       __imp_??0Integer@CryptoPP@@QAE@XZ 0041524c     cryptopp:cryptopp.dll
 0002:00000250       __imp_??1Integer@CryptoPP@@UAE@XZ 00415250     cryptopp:cryptopp.dll
 0002:00000254       __imp_??0Integer@CryptoPP@@QAE@AAVRandomNumberGenerator@1@ABV01@1W4RandomNumberType@01@11@Z 00415254     cryptopp:cryptopp.dll
 0002:00000258       __imp_?Zero@Integer@CryptoPP@@SAABV12@XZ 00415258     cryptopp:cryptopp.dll
 0002:0000025c       __imp_?One@Integer@CryptoPP@@SAABV12@XZ 0041525c     cryptopp:cryptopp.dll
 0002:00000260       __imp_??0Integer@CryptoPP@@QAE@J@Z 00415260     cryptopp:cryptopp.dll
 0002:00000264       __imp_??0Integer@CryptoPP@@QAE@PBEIW4Signedness@01@@Z 00415264     cryptopp:cryptopp.dll
 0002:00000268       __imp_?DoQuickSanityCheck@CryptoMaterial@CryptoPP@@QBEXXZ 00415268     cryptopp:cryptopp.dll
 0002:0000026c       __imp_?Minus@Integer@CryptoPP@@QBE?AV12@ABV12@@Z 0041526c     cryptopp:cryptopp.dll
 0002:00000270       __imp_?BitCount@Integer@CryptoPP@@QBEIXZ 00415270     cryptopp:cryptopp.dll
 0002:00000274       __imp_?StaticAlgorithmName@DSA@CryptoPP@@SAPBDXZ 00415274     cryptopp:cryptopp.dll
 0002:00000278       __imp_?GetPublicKey@PublicKeyAlgorithm@CryptoPP@@UBEABVPublicKey@2@XZ 00415278     cryptopp:cryptopp.dll
 0002:0000027c       __imp_?GetMaterial@PublicKeyAlgorithm@CryptoPP@@UBEABVCryptoMaterial@2@XZ 0041527c     cryptopp:cryptopp.dll
 0002:00000280       __imp_?AccessMaterial@PublicKeyAlgorithm@CryptoPP@@UAEAAVCryptoMaterial@2@XZ 00415280     cryptopp:cryptopp.dll
 0002:00000284       __imp_?AssignValue@?$AlgorithmParametersTemplate@VConstByteArrayParameter@CryptoPP@@@CryptoPP@@UBEXPBDABVtype_info@@PAX@Z 00415284     cryptopp:cryptopp.dll
 0002:00000288       __imp_?Recover@PK_Verifier@CryptoPP@@UBE?AUDecodingResult@2@PAEPAVPK_MessageAccumulator@2@@Z 00415288     cryptopp:cryptopp.dll
 0002:0000028c       __imp_?VerifyMessage@PK_Verifier@CryptoPP@@UBE_NPBEI0I@Z 0041528c     cryptopp:cryptopp.dll
 0002:00000290       __imp_?Verify@PK_Verifier@CryptoPP@@UBE_NPAVPK_MessageAccumulator@2@@Z 00415290     cryptopp:cryptopp.dll
 0002:00000294       __imp_?NullRNG@CryptoPP@@YAAAVRandomNumberGenerator@1@XZ 00415294     cryptopp:cryptopp.dll
 0002:00000298       __imp_??0NotImplemented@CryptoPP@@QAE@ABV01@@Z 00415298     cryptopp:cryptopp.dll
 0002:0000029c       __imp_??1NotImplemented@CryptoPP@@UAE@XZ 0041529c     cryptopp:cryptopp.dll
 0002:000002a0       __imp_??0NotImplemented@CryptoPP@@QAE@ABV?$basic_string@DU?$char_traits@D@std@@V?$allocator@D@2@@std@@@Z 004152a0     cryptopp:cryptopp.dll
 0002:000002a4       __imp_?Decode@Integer@CryptoPP@@QAEXPBEIW4Signedness@12@@Z 004152a4     cryptopp:cryptopp.dll
 0002:000002a8       __imp_?GetWaitObjects@BufferedTransformation@CryptoPP@@UAEXAAVWaitObjectContainer@2@ABVCallStack@2@@Z 004152a8     cryptopp:cryptopp.dll
 0002:000002ac       __imp_?GetMaxWaitObjectCount@BufferedTransformation@CryptoPP@@UBEIXZ 004152ac     cryptopp:cryptopp.dll
 0002:000002b0       __imp_?StoreInitialize@StringStore@CryptoPP@@EAEXABVNameValuePairs@2@@Z 004152b0     cryptopp:cryptopp.dll
 0002:000002b4       __imp_?Attach@BufferedTransformation@CryptoPP@@UAEXPAV12@@Z 004152b4     cryptopp:cryptopp.dll
 0002:000002b8       __imp_?Detach@BufferedTransformation@CryptoPP@@UAEXPAV12@@Z 004152b8     cryptopp:cryptopp.dll
 0002:000002bc       __imp_?AttachedTransformation@BufferedTransformation@CryptoPP@@UAEPAV12@XZ 004152bc     cryptopp:cryptopp.dll
 0002:000002c0       __imp_?AttachedTransformation@BufferedTransformation@CryptoPP@@UBEPBV12@XZ 004152c0     cryptopp:cryptopp.dll
 0002:000002c4       __imp_?Attachable@BufferedTransformation@CryptoPP@@UAE_NXZ 004152c4     cryptopp:cryptopp.dll
 0002:000002c8       __imp_?SetRetrievalChannel@BufferedTransformation@CryptoPP@@UAEXABV?$basic_string@DU?$char_traits@D@std@@V?$allocator@D@2@@std@@@Z 004152c8     cryptopp:cryptopp.dll
 0002:000002cc       __imp_?ChannelMessageSeriesEnd@?$InputRejecting@VBufferedTransformation@CryptoPP@@@CryptoPP@@UAE_NABV?$basic_string@DU?$char_traits@D@std@@V?$allocator@D@2@@std@@H_N@Z 004152cc     cryptopp:cryptopp.dll
 0002:000002d0       __imp_?ChannelFlush@BufferedTransformation@CryptoPP@@UAE_NABV?$basic_string@DU?$char_traits@D@std@@V?$allocator@D@2@@std@@_NH1@Z 004152d0     cryptopp:cryptopp.dll
 0002:000002d4       __imp_?ChannelPutModifiable2@BufferedTransformation@CryptoPP@@UAEIABV?$basic_string@DU?$char_traits@D@std@@V?$allocator@D@2@@std@@PAEIH_N@Z 004152d4     cryptopp:cryptopp.dll
 0002:000002d8       __imp_?ChannelPut2@?$InputRejecting@VBufferedTransformation@CryptoPP@@@CryptoPP@@UAEIABV?$basic_string@DU?$char_traits@D@std@@V?$allocator@D@2@@std@@PBEIH_N@Z 004152d8     cryptopp:cryptopp.dll
 0002:000002dc       __imp_?ChannelCreatePutSpace@BufferedTransformation@CryptoPP@@UAEPAEABV?$basic_string@DU?$char_traits@D@std@@V?$allocator@D@2@@std@@AAI@Z 004152dc     cryptopp:cryptopp.dll
 0002:000002e0       __imp_?CopyRangeTo2@StringStore@CryptoPP@@UBEIAAVBufferedTransformation@2@AA_K_KABV?$basic_string@DU?$char_traits@D@std@@V?$allocator@D@2@@std@@_N@Z 004152e0     cryptopp:cryptopp.dll
 0002:000002e4       __imp_?TransferTo2@StringStore@CryptoPP@@UAEIAAVBufferedTransformation@2@AA_KABV?$basic_string@DU?$char_traits@D@std@@V?$allocator@D@2@@std@@_N@Z 004152e4     cryptopp:cryptopp.dll
 0002:000002e8       __imp_?NumberOfMessageSeries@BufferedTransformation@CryptoPP@@UBEIXZ 004152e8     cryptopp:cryptopp.dll
 0002:000002ec       __imp_?NumberOfMessagesInThisSeries@BufferedTransformation@CryptoPP@@UBEIXZ 004152ec     cryptopp:cryptopp.dll
 0002:000002f0       __imp_?GetNextMessageSeries@BufferedTransformation@CryptoPP@@UAE_NXZ 004152f0     cryptopp:cryptopp.dll
 0002:000002f4       __imp_?SkipAll@BufferedTransformation@CryptoPP@@UAEXXZ 004152f4     cryptopp:cryptopp.dll
 0002:000002f8       __imp_?SkipMessages@BufferedTransformation@CryptoPP@@UAEII@Z 004152f8     cryptopp:cryptopp.dll
 0002:000002fc       __imp_?GetNextMessage@Store@CryptoPP@@UAE_NXZ 004152fc     cryptopp:cryptopp.dll
 0002:00000300       __imp_?AnyMessages@BufferedTransformation@CryptoPP@@UBE_NXZ 00415300     cryptopp:cryptopp.dll
 0002:00000304       __imp_?NumberOfMessages@Store@CryptoPP@@UBEIXZ 00415304     cryptopp:cryptopp.dll
 0002:00000308       __imp_?TotalBytesRetrievable@BufferedTransformation@CryptoPP@@UBE_KXZ 00415308     cryptopp:cryptopp.dll
 0002:0000030c       __imp_?Skip@BufferedTransformation@CryptoPP@@UAE_K_K@Z 0041530c     cryptopp:cryptopp.dll
 0002:00000310       __imp_?Peek@BufferedTransformation@CryptoPP@@UBEIAAE@Z 00415310     cryptopp:cryptopp.dll
 0002:00000314       __imp_?Peek@BufferedTransformation@CryptoPP@@UBEIPAEI@Z 00415314     cryptopp:cryptopp.dll
 0002:00000318       __imp_?Get@BufferedTransformation@CryptoPP@@UAEIAAE@Z 00415318     cryptopp:cryptopp.dll
 0002:0000031c       __imp_?Get@BufferedTransformation@CryptoPP@@UAEIPAEI@Z 0041531c     cryptopp:cryptopp.dll
 0002:00000320       __imp_?AnyRetrievable@BufferedTransformation@CryptoPP@@UBE_NXZ 00415320     cryptopp:cryptopp.dll
 0002:00000324       __imp_?MaxRetrievable@BufferedTransformation@CryptoPP@@UBE_KXZ 00415324     cryptopp:cryptopp.dll
 0002:00000328       __imp_?GetAutoSignalPropagation@?$AutoSignaling@V?$InputRejecting@VBufferedTransformation@CryptoPP@@@CryptoPP@@@CryptoPP@@UBEHXZ 00415328     cryptopp:cryptopp.dll
 0002:0000032c       __imp_?SetAutoSignalPropagation@?$AutoSignaling@V?$InputRejecting@VBufferedTransformation@CryptoPP@@@CryptoPP@@@CryptoPP@@UAEXH@Z 0041532c     cryptopp:cryptopp.dll
 0002:00000330       __imp_?MessageSeriesEnd@BufferedTransformation@CryptoPP@@UAE_NH_N@Z 00415330     cryptopp:cryptopp.dll
 0002:00000334       __imp_?Flush@BufferedTransformation@CryptoPP@@UAE_N_NH0@Z 00415334     cryptopp:cryptopp.dll
 0002:00000338       __imp_?Initialize@BufferedTransformation@CryptoPP@@UAEXABVNameValuePairs@2@H@Z 00415338     cryptopp:cryptopp.dll
 0002:0000033c       __imp_?IsolatedMessageSeriesEnd@?$InputRejecting@VBufferedTransformation@CryptoPP@@@CryptoPP@@UAE_N_N@Z 0041533c     cryptopp:cryptopp.dll
 0002:00000340       __imp_?IsolatedFlush@?$InputRejecting@VBufferedTransformation@CryptoPP@@@CryptoPP@@UAE_N_N0@Z 00415340     cryptopp:cryptopp.dll
 0002:00000344       __imp_?IsolatedInitialize@Store@CryptoPP@@UAEXABVNameValuePairs@2@@Z 00415344     cryptopp:cryptopp.dll
 0002:00000348       __imp_?PutModifiable2@BufferedTransformation@CryptoPP@@UAEIPAEIH_N@Z 00415348     cryptopp:cryptopp.dll
 0002:0000034c       __imp_?Put2@?$InputRejecting@VBufferedTransformation@CryptoPP@@@CryptoPP@@UAEIPBEIH_N@Z 0041534c     cryptopp:cryptopp.dll
 0002:00000350       __imp_?CanModifyInput@BufferedTransformation@CryptoPP@@UBE_NXZ 00415350     cryptopp:cryptopp.dll
 0002:00000354       __imp_?CreatePutSpace@BufferedTransformation@CryptoPP@@UAEPAEAAI@Z 00415354     cryptopp:cryptopp.dll
 0002:00000358       __imp_??0Store@CryptoPP@@QAE@XZ 00415358     cryptopp:cryptopp.dll
 0002:0000035c       __imp_??1?$AutoSeededX917RNG@VRijndael@CryptoPP@@@CryptoPP@@UAE@XZ 0041535c     cryptopp:cryptopp.dll
 0002:00000360       __imp_?g_nullNameValuePairs@CryptoPP@@3ABVNameValuePairs@1@B 00415360     cryptopp:cryptopp.dll
 0002:00000364       __imp_?BERDecode@X509PublicKey@CryptoPP@@UAEXAAVBufferedTransformation@2@@Z 00415364     cryptopp:cryptopp.dll
 0002:00000368       __imp_?BERDecode@PKCS8PrivateKey@CryptoPP@@UAEXAAVBufferedTransformation@2@@Z 00415368     cryptopp:cryptopp.dll
 0002:0000036c       __imp_?DEREncode@PKCS8PrivateKey@CryptoPP@@UBEXAAVBufferedTransformation@2@@Z 0041536c     cryptopp:cryptopp.dll
 0002:00000370       __imp_??1?$StringSinkTemplate@V?$basic_string@DU?$char_traits@D@std@@V?$allocator@D@2@@std@@@CryptoPP@@UAE@XZ 00415370     cryptopp:cryptopp.dll
 0002:00000374       __imp_?DEREncode@X509PublicKey@CryptoPP@@UBEXAAVBufferedTransformation@2@@Z 00415374     cryptopp:cryptopp.dll
 0002:00000378       __imp_??0?$StringSinkTemplate@V?$basic_string@DU?$char_traits@D@std@@V?$allocator@D@2@@std@@@CryptoPP@@QAE@AAV?$basic_string@DU?$char_traits@D@std@@V?$allocator@D@2@@std@@@Z 00415378     cryptopp:cryptopp.dll
 0002:0000037c       __imp_?Validate@?$DL_PublicKeyImpl@VDL_GroupParameters_DSA@CryptoPP@@@CryptoPP@@UBE_NAAVRandomNumberGenerator@2@I@Z 0041537c     cryptopp:cryptopp.dll
 0002:00000380       __imp_?Validate@?$DL_PrivateKeyImpl@VDL_GroupParameters_DSA@CryptoPP@@@CryptoPP@@UBE_NAAVRandomNumberGenerator@2@I@Z 00415380     cryptopp:cryptopp.dll
 0002:00000384       __imp_?AssignFrom@?$DL_PublicKeyImpl@VDL_GroupParameters_DSA@CryptoPP@@@CryptoPP@@UAEXABVNameValuePairs@2@@Z 00415384     cryptopp:cryptopp.dll
 0002:00000388       __imp_?GenerateRandomWithKeySize@GeneratableCryptoMaterial@CryptoPP@@QAEXAAVRandomNumberGenerator@2@I@Z 00415388     cryptopp:cryptopp.dll
 0002:0000038c       __imp_??0?$AutoSeededX917RNG@VRijndael@CryptoPP@@@CryptoPP@@QAE@_N0@Z 0041538c     cryptopp:cryptopp.dll
 0002:00000390       __imp_?Update@?$IteratedHashBase@IVHashTransformation@CryptoPP@@@CryptoPP@@UAEXPBEI@Z 00415390     cryptopp:cryptopp.dll
 0002:00000394       __imp_?ProcessString@StreamTransformation@CryptoPP@@QAEXPAEPBEI@Z 00415394     cryptopp:cryptopp.dll
 0002:00000398       __imp_?SetKeyWithIV@SimpleKeyingInterface@CryptoPP@@QAEXPBEI0@Z 00415398     cryptopp:cryptopp.dll
 0002:0000039c       __imp_?DoDllPowerUpSelfTest@CryptoPP@@YAXXZ 0041539c     cryptopp:cryptopp.dll
 0002:000003a0       __imp_?SimulatePowerUpSelfTestFailure@CryptoPP@@YAXXZ 004153a0     cryptopp:cryptopp.dll
 0002:000003a4       __imp_?GetPowerUpSelfTestStatus@CryptoPP@@YA?AW4PowerUpSelfTestStatus@1@XZ 004153a4     cryptopp:cryptopp.dll
 0002:000003a8       __imp_?FIPS_140_2_ComplianceEnabled@CryptoPP@@YA_NXZ 004153a8     cryptopp:cryptopp.dll
 0002:000003ac       __imp_?StaticAlgorithmName@CFB_ModePolicy@CryptoPP@@SAPBDXZ 004153ac     cryptopp:cryptopp.dll
 0002:000003b0       __imp_?StaticAlgorithmName@?$AlgorithmImpl@V?$SimpleKeyingInterfaceImpl@V?$TwoBases@VBlockCipher@CryptoPP@@UDES_EDE3_Info@2@@CryptoPP@@V12@@CryptoPP@@V12@@CryptoPP@@SA?AV?$basic_string@DU?$char_traits@D@std@@V?$allocator@D@2@@std@@XZ 004153b0     cryptopp:cryptopp.dll
 0002:000003b4       __imp_?StaticAlgorithmName@ECB_OneWay@CryptoPP@@SAPBDXZ 004153b4     cryptopp:cryptopp.dll
 0002:000003b8       __imp_?MoveInto@?$AlgorithmParametersTemplate@VConstByteArrayParameter@CryptoPP@@@CryptoPP@@UBEXPAX@Z 004153b8     cryptopp:cryptopp.dll
 0002:000003bc       __imp_?MinKeyLength@?$SimpleKeyingInterfaceImpl@V?$TwoBases@VBlockCipher@CryptoPP@@UDES_EDE3_Info@2@@CryptoPP@@V12@@CryptoPP@@UBEIXZ 004153bc     cryptopp:cryptopp.dll
 0002:000003c0       __imp_?MaxKeyLength@?$SimpleKeyingInterfaceImpl@V?$TwoBases@VBlockCipher@CryptoPP@@UDES_EDE3_Info@2@@CryptoPP@@V12@@CryptoPP@@UBEIXZ 004153c0     cryptopp:cryptopp.dll
 0002:000003c4       __imp_?DefaultKeyLength@?$SimpleKeyingInterfaceImpl@V?$TwoBases@VBlockCipher@CryptoPP@@UDES_EDE3_Info@2@@CryptoPP@@V12@@CryptoPP@@UBEIXZ 004153c4     cryptopp:cryptopp.dll
 0002:000003c8       __imp_?GetValidKeyLength@?$SimpleKeyingInterfaceImpl@V?$TwoBases@VBlockCipher@CryptoPP@@UDES_EDE3_Info@2@@CryptoPP@@V12@@CryptoPP@@UBEII@Z 004153c8     cryptopp:cryptopp.dll
 0002:000003cc       __imp_?IVRequirement@?$SimpleKeyingInterfaceImpl@V?$TwoBases@VBlockCipher@CryptoPP@@UDES_EDE3_Info@2@@CryptoPP@@V12@@CryptoPP@@UBE?AW4IV_Requirement@SimpleKeyingInterface@2@XZ 004153cc     cryptopp:cryptopp.dll
 0002:000003d0       __imp_?IVSize@?$SimpleKeyingInterfaceImpl@V?$TwoBases@VBlockCipher@CryptoPP@@UDES_EDE3_Info@2@@CryptoPP@@V12@@CryptoPP@@UBEIXZ 004153d0     cryptopp:cryptopp.dll
 0002:000003d4       __imp_?UncheckedSetKey@Base@DES_EDE3@CryptoPP@@UAEXPBEIABVNameValuePairs@3@@Z 004153d4     cryptopp:cryptopp.dll
 0002:000003d8       __imp_?AlgorithmName@?$AlgorithmImpl@V?$SimpleKeyingInterfaceImpl@V?$TwoBases@VBlockCipher@CryptoPP@@UDES_EDE3_Info@2@@CryptoPP@@V12@@CryptoPP@@V12@@CryptoPP@@UBE?AV?$basic_string@DU?$char_traits@D@std@@V?$allocator@D@2@@std@@XZ 004153d8     cryptopp:cryptopp.dll
 0002:000003dc       __imp_?ProcessAndXorBlock@Base@DES_EDE3@CryptoPP@@UBEXPBE0PAE@Z 004153dc     cryptopp:cryptopp.dll
 0002:000003e0       __imp_?BlockSize@?$BlockCipherImpl@UDES_EDE3_Info@CryptoPP@@VBlockCipher@2@@CryptoPP@@UBEIXZ 004153e0     cryptopp:cryptopp.dll
 0002:000003e4       __imp_?AdvancedProcessBlocks@BlockTransformation@CryptoPP@@UBEIPBE0PAEII@Z 004153e4     cryptopp:cryptopp.dll
 0002:000003e8       __imp_??0Algorithm@CryptoPP@@QAE@_N@Z 004153e8     cryptopp:cryptopp.dll
 0002:000003ec       __imp_??1PK_SignatureScheme@CryptoPP@@UAE@XZ 004153ec     cryptopp:cryptopp.dll
 0002:000003f0       __imp_?MinKeyLength@?$SimpleKeyingInterfaceImpl@V?$TwoBases@VBlockCipher@CryptoPP@@URijndael_Info@2@@CryptoPP@@V12@@CryptoPP@@UBEIXZ 004153f0     cryptopp:cryptopp.dll
 0002:000003f4       __imp_?MaxKeyLength@?$SimpleKeyingInterfaceImpl@V?$TwoBases@VBlockCipher@CryptoPP@@URijndael_Info@2@@CryptoPP@@V12@@CryptoPP@@UBEIXZ 004153f4     cryptopp:cryptopp.dll
 0002:000003f8       __imp_?DefaultKeyLength@?$SimpleKeyingInterfaceImpl@V?$TwoBases@VBlockCipher@CryptoPP@@URijndael_Info@2@@CryptoPP@@V12@@CryptoPP@@UBEIXZ 004153f8     cryptopp:cryptopp.dll
 0002:000003fc       __imp_?GetValidKeyLength@?$SimpleKeyingInterfaceImpl@V?$TwoBases@VBlockCipher@CryptoPP@@URijndael_Info@2@@CryptoPP@@V12@@CryptoPP@@UBEII@Z 004153fc     cryptopp:cryptopp.dll
 0002:00000400       __imp_?IsValidKeyLength@SimpleKeyingInterface@CryptoPP@@UBE_NI@Z 00415400     cryptopp:cryptopp.dll
 0002:00000404       __imp_?IVRequirement@?$SimpleKeyingInterfaceImpl@V?$TwoBases@VBlockCipher@CryptoPP@@URijndael_Info@2@@CryptoPP@@V12@@CryptoPP@@UBE?AW4IV_Requirement@SimpleKeyingInterface@2@XZ 00415404     cryptopp:cryptopp.dll
 0002:00000408       __imp_?IVSize@?$SimpleKeyingInterfaceImpl@V?$TwoBases@VBlockCipher@CryptoPP@@URijndael_Info@2@@CryptoPP@@V12@@CryptoPP@@UBEIXZ 00415408     cryptopp:cryptopp.dll
 0002:0000040c       __imp_?Resynchronize@SimpleKeyingInterface@CryptoPP@@UAEXPBEH@Z 0041540c     cryptopp:cryptopp.dll
 0002:00000410       __imp_?GetAlgorithm@BlockCipher@CryptoPP@@MBEABVAlgorithm@2@XZ 00415410     cryptopp:cryptopp.dll
 0002:00000414       __imp_?UncheckedSetKey@Base@Rijndael@CryptoPP@@UAEXPBEIABVNameValuePairs@3@@Z 00415414     cryptopp:cryptopp.dll
 0002:00000418       __imp_?AlgorithmName@?$AlgorithmImpl@V?$SimpleKeyingInterfaceImpl@V?$TwoBases@VBlockCipher@CryptoPP@@URijndael_Info@2@@CryptoPP@@V12@@CryptoPP@@V12@@CryptoPP@@UBE?AV?$basic_string@DU?$char_traits@D@std@@V?$allocator@D@2@@std@@XZ 00415418     cryptopp:cryptopp.dll
 0002:0000041c       __imp_?ProcessAndXorBlock@Enc@Rijndael@CryptoPP@@UBEXPBE0PAE@Z 0041541c     cryptopp:cryptopp.dll
 0002:00000420       __imp_?BlockSize@?$BlockCipherImpl@URijndael_Info@CryptoPP@@VBlockCipher@2@@CryptoPP@@UBEIXZ 00415420     cryptopp:cryptopp.dll
 0002:00000424       __imp_?OptimalDataAlignment@BlockTransformation@CryptoPP@@UBEIXZ 00415424     cryptopp:cryptopp.dll
 0002:00000428       __imp_?IsPermutation@BlockTransformation@CryptoPP@@UBE_NXZ 00415428     cryptopp:cryptopp.dll
 0002:0000042c       __imp_?OptimalNumberOfParallelBlocks@BlockTransformation@CryptoPP@@UBEIXZ 0041542c     cryptopp:cryptopp.dll
 0002:00000430       __imp_?AdvancedProcessBlocks@Enc@Rijndael@CryptoPP@@UBEIPBE0PAEII@Z 00415430     cryptopp:cryptopp.dll
 0002:00000434       __imp_??0Base@DES_EDE3@CryptoPP@@QAE@XZ 00415434     cryptopp:cryptopp.dll
 0002:00000438       __imp_??1Store@CryptoPP@@UAE@XZ 00415438     cryptopp:cryptopp.dll
 0002:0000043c       __imp_??0?$CFB_DecryptionTemplate@V?$AbstractPolicyHolder@VCFB_CipherAbstractPolicy@CryptoPP@@VCFB_ModePolicy@2@@CryptoPP@@@CryptoPP@@QAE@XZ 0041543c     cryptopp:cryptopp.dll
 0002:00000440       __imp_?CombineMessageAndShiftRegister@?$CFB_DecryptionTemplate@V?$AbstractPolicyHolder@VCFB_CipherAbstractPolicy@CryptoPP@@VCFB_ModePolicy@2@@CryptoPP@@@CryptoPP@@EAEXPAE0PBEI@Z 00415440     cryptopp:cryptopp.dll
 0002:00000444       __imp_?IsForwardTransformation@?$CFB_DecryptionTemplate@V?$AbstractPolicyHolder@VCFB_CipherAbstractPolicy@CryptoPP@@VCFB_ModePolicy@2@@CryptoPP@@@CryptoPP@@EBE_NXZ 00415444     cryptopp:cryptopp.dll
 0002:00000448       __imp_??0?$CFB_EncryptionTemplate@V?$AbstractPolicyHolder@VCFB_CipherAbstractPolicy@CryptoPP@@VCFB_ModePolicy@2@@CryptoPP@@@CryptoPP@@QAE@XZ 00415448     cryptopp:cryptopp.dll
 0002:0000044c       __imp_?MinKeyLength@CipherModeBase@CryptoPP@@UBEIXZ 0041544c     cryptopp:cryptopp.dll
 0002:00000450       __imp_?MaxKeyLength@CipherModeBase@CryptoPP@@UBEIXZ 00415450     cryptopp:cryptopp.dll
 0002:00000454       __imp_?DefaultKeyLength@CipherModeBase@CryptoPP@@UBEIXZ 00415454     cryptopp:cryptopp.dll
 0002:00000458       __imp_?GetValidKeyLength@CipherModeBase@CryptoPP@@UBEII@Z 00415458     cryptopp:cryptopp.dll
 0002:0000045c       __imp_?IsValidKeyLength@CipherModeBase@CryptoPP@@UBE_NI@Z 0041545c     cryptopp:cryptopp.dll
 0002:00000460       __imp_?SetKey@SimpleKeyingInterface@CryptoPP@@UAEXPBEIABVNameValuePairs@2@@Z 00415460     cryptopp:cryptopp.dll
 0002:00000464       __imp_?IVRequirement@CFB_ModePolicy@CryptoPP@@UBE?AW4IV_Requirement@SimpleKeyingInterface@2@XZ 00415464     cryptopp:cryptopp.dll
 0002:00000468       __imp_?IVSize@CipherModeBase@CryptoPP@@UBEIXZ 00415468     cryptopp:cryptopp.dll
 0002:0000046c       __imp_?MinIVLength@SimpleKeyingInterface@CryptoPP@@UBEIXZ 0041546c     cryptopp:cryptopp.dll
 0002:00000470       __imp_?MaxIVLength@SimpleKeyingInterface@CryptoPP@@UBEIXZ 00415470     cryptopp:cryptopp.dll
 0002:00000474       __imp_?Resynchronize@?$CFB_CipherTemplate@V?$AbstractPolicyHolder@VCFB_CipherAbstractPolicy@CryptoPP@@VCFB_ModePolicy@2@@CryptoPP@@@CryptoPP@@UAEXPBEH@Z 00415474     cryptopp:cryptopp.dll
 0002:00000478       __imp_?GetNextIV@SimpleKeyingInterface@CryptoPP@@UAEXAAVRandomNumberGenerator@2@PAE@Z 00415478     cryptopp:cryptopp.dll
 0002:0000047c       __imp_?GetAlgorithm@SymmetricCipher@CryptoPP@@MBEABVAlgorithm@2@XZ 0041547c     cryptopp:cryptopp.dll
 0002:00000480       __imp_?UncheckedSetKey@?$CFB_CipherTemplate@V?$AbstractPolicyHolder@VCFB_CipherAbstractPolicy@CryptoPP@@VCFB_ModePolicy@2@@CryptoPP@@@CryptoPP@@MAEXPBEIABVNameValuePairs@2@@Z 00415480     cryptopp:cryptopp.dll
 0002:00000484       __imp_?SetFeedbackSize@CFB_ModePolicy@CryptoPP@@MAEXI@Z 00415484     cryptopp:cryptopp.dll
 0002:00000488       __imp_?ResizeBuffers@CFB_ModePolicy@CryptoPP@@MAEXXZ 00415488     cryptopp:cryptopp.dll
 0002:0000048c       __imp_?CombineMessageAndShiftRegister@?$CFB_EncryptionTemplate@V?$AbstractPolicyHolder@VCFB_CipherAbstractPolicy@CryptoPP@@VCFB_ModePolicy@2@@CryptoPP@@@CryptoPP@@EAEXPAE0PBEI@Z 0041548c     cryptopp:cryptopp.dll
 0002:00000490       __imp_?Clone@Clonable@CryptoPP@@UBEPAV12@XZ 00415490     cryptopp:cryptopp.dll
 0002:00000494       __imp_?AlgorithmName@Algorithm@CryptoPP@@UBE?AV?$basic_string@DU?$char_traits@D@std@@V?$allocator@D@2@@std@@XZ 00415494     cryptopp:cryptopp.dll
 0002:00000498       __imp_?OptimalBlockSize@?$CFB_CipherTemplate@V?$AbstractPolicyHolder@VCFB_CipherAbstractPolicy@CryptoPP@@VCFB_ModePolicy@2@@CryptoPP@@@CryptoPP@@UBEIXZ 00415498     cryptopp:cryptopp.dll
 0002:0000049c       __imp_?GetOptimalBlockSizeUsed@StreamTransformation@CryptoPP@@UBEIXZ 0041549c     cryptopp:cryptopp.dll
 0002:000004a0       __imp_?OptimalDataAlignment@?$CFB_CipherTemplate@V?$AbstractPolicyHolder@VCFB_CipherAbstractPolicy@CryptoPP@@VCFB_ModePolicy@2@@CryptoPP@@@CryptoPP@@UBEIXZ 004154a0     cryptopp:cryptopp.dll
 0002:000004a4       __imp_?ProcessData@?$CFB_CipherTemplate@V?$AbstractPolicyHolder@VCFB_CipherAbstractPolicy@CryptoPP@@VCFB_ModePolicy@2@@CryptoPP@@@CryptoPP@@UAEXPAEPBEI@Z 004154a4     cryptopp:cryptopp.dll
 0002:000004a8       __imp_?ProcessLastBlock@StreamTransformation@CryptoPP@@UAEXPAEPBEI@Z 004154a8     cryptopp:cryptopp.dll
 0002:000004ac       __imp_?MinLastBlockSize@StreamTransformation@CryptoPP@@UBEIXZ 004154ac     cryptopp:cryptopp.dll
 0002:000004b0       __imp_?IsRandomAccess@?$CFB_CipherTemplate@V?$AbstractPolicyHolder@VCFB_CipherAbstractPolicy@CryptoPP@@VCFB_ModePolicy@2@@CryptoPP@@@CryptoPP@@UBE_NXZ 004154b0     cryptopp:cryptopp.dll
 0002:000004b4       __imp_?Seek@StreamTransformation@CryptoPP@@UAEX_K@Z 004154b4     cryptopp:cryptopp.dll
 0002:000004b8       __imp_?IsSelfInverting@?$CFB_CipherTemplate@V?$AbstractPolicyHolder@VCFB_CipherAbstractPolicy@CryptoPP@@VCFB_ModePolicy@2@@CryptoPP@@@CryptoPP@@UBE_NXZ 004154b8     cryptopp:cryptopp.dll
 0002:000004bc       __imp_?IsForwardTransformation@?$CFB_EncryptionTemplate@V?$AbstractPolicyHolder@VCFB_CipherAbstractPolicy@CryptoPP@@VCFB_ModePolicy@2@@CryptoPP@@@CryptoPP@@EBE_NXZ 004154bc     cryptopp:cryptopp.dll
 0002:000004c0       __imp_?GetAlignment@?$ModePolicyCommonTemplate@VCFB_CipherAbstractPolicy@CryptoPP@@@CryptoPP@@EBEIXZ 004154c0     cryptopp:cryptopp.dll
 0002:000004c4       __imp_?GetBytesPerIteration@CFB_ModePolicy@CryptoPP@@MBEIXZ 004154c4     cryptopp:cryptopp.dll
 0002:000004c8       __imp_?GetRegisterBegin@CFB_ModePolicy@CryptoPP@@MAEPAEXZ 004154c8     cryptopp:cryptopp.dll
 0002:000004cc       __imp_?TransformRegister@CFB_ModePolicy@CryptoPP@@MAEXXZ 004154cc     cryptopp:cryptopp.dll
 0002:000004d0       __imp_?CanIterate@CFB_ModePolicy@CryptoPP@@MBE_NXZ 004154d0     cryptopp:cryptopp.dll
 0002:000004d4       __imp_?Iterate@CFB_ModePolicy@CryptoPP@@MAEXPAEPBEW4CipherDir@2@I@Z 004154d4     cryptopp:cryptopp.dll
 0002:000004d8       __imp_?CipherSetKey@?$ModePolicyCommonTemplate@VCFB_CipherAbstractPolicy@CryptoPP@@@CryptoPP@@EAEXABVNameValuePairs@2@PBEI@Z 004154d8     cryptopp:cryptopp.dll
 0002:000004dc       __imp_?CipherResynchronize@CFB_ModePolicy@CryptoPP@@MAEXPBEI@Z 004154dc     cryptopp:cryptopp.dll
 0002:000004e0       __imp_??0ECB_OneWay@CryptoPP@@QAE@XZ 004154e0     cryptopp:cryptopp.dll
 0002:000004e4       __imp_??0Enc@Rijndael@CryptoPP@@QAE@XZ 004154e4     cryptopp:cryptopp.dll
 0002:000004e8       __imp_?reallocate@?$AllocatorWithCleanup@E$0A@@CryptoPP@@QAEPAEPAEII_N@Z 004154e8     cryptopp:cryptopp.dll
 0002:000004ec       __imp_?deallocate@?$AllocatorWithCleanup@E$0A@@CryptoPP@@QAEXPAXI@Z 004154ec     cryptopp:cryptopp.dll
 0002:000004f0       __imp_?allocate@?$AllocatorWithCleanup@E$0A@@CryptoPP@@QAEPAEIPBX@Z 004154f0     cryptopp:cryptopp.dll
 0002:000004f4       __imp_??1?$CFB_DecryptionTemplate@V?$AbstractPolicyHolder@VCFB_CipherAbstractPolicy@CryptoPP@@VCFB_ModePolicy@2@@CryptoPP@@@CryptoPP@@UAE@XZ 004154f4     cryptopp:cryptopp.dll
 0002:000004f8       __imp_??1?$CFB_EncryptionTemplate@V?$AbstractPolicyHolder@VCFB_CipherAbstractPolicy@CryptoPP@@VCFB_ModePolicy@2@@CryptoPP@@@CryptoPP@@UAE@XZ 004154f8     cryptopp:cryptopp.dll
 0002:000004fc       __imp_??1Base@DES_EDE3@CryptoPP@@UAE@XZ 004154fc     cryptopp:cryptopp.dll
 0002:00000500       __imp_??1ECB_OneWay@CryptoPP@@UAE@XZ 00415500     cryptopp:cryptopp.dll
 0002:00000504       __imp_?RecoverMessage@PK_Verifier@CryptoPP@@UBE?AUDecodingResult@2@PAEPBEI1I@Z 00415504     cryptopp:cryptopp.dll
 0002:00000508       __imp_??1Enc@Rijndael@CryptoPP@@UAE@XZ 00415508     cryptopp:cryptopp.dll
 0002:0000050c       \177cryptopp_NULL_THUNK_DATA 0041550c     cryptopp:cryptopp.dll
 0002:0000052c       ?IV_LENGTH@?$FixedKeyLength@$09$03$0A@@CryptoPP@@2HB 0041552c     dlltest.obj
 0002:00000530       ?IV_REQUIREMENT@?$FixedKeyLength@$09$03$0A@@CryptoPP@@2HB 00415530     dlltest.obj
 0002:00000534       ?DEFAULT_KEYLENGTH@?$FixedKeyLength@$09$03$0A@@CryptoPP@@2HB 00415534     dlltest.obj
 0002:00000538       ?MAX_KEYLENGTH@?$FixedKeyLength@$09$03$0A@@CryptoPP@@2HB 00415538     dlltest.obj
 0002:0000053c       ?MIN_KEYLENGTH@?$FixedKeyLength@$09$03$0A@@CryptoPP@@2HB 0041553c     dlltest.obj
 0002:00000540       ?KEYLENGTH@?$FixedKeyLength@$09$03$0A@@CryptoPP@@2HB 00415540     dlltest.obj
 0002:00000544       ?IV_LENGTH@?$VariableKeyLength@$0BA@$0A@$0HPPPPPPP@$00$03$0A@@CryptoPP@@2HB 00415544     dlltest.obj
 0002:00000548       ?IV_REQUIREMENT@?$VariableKeyLength@$0BA@$0A@$0HPPPPPPP@$00$03$0A@@CryptoPP@@2HB 00415548     dlltest.obj
 0002:0000054c       ?KEYLENGTH_MULTIPLE@?$VariableKeyLength@$0BA@$0A@$0HPPPPPPP@$00$03$0A@@CryptoPP@@2HB 0041554c     dlltest.obj
 0002:00000550       ?DEFAULT_KEYLENGTH@?$VariableKeyLength@$0BA@$0A@$0HPPPPPPP@$00$03$0A@@CryptoPP@@2HB 00415550     dlltest.obj
 0002:00000554       ?MAX_KEYLENGTH@?$VariableKeyLength@$0BA@$0A@$0HPPPPPPP@$00$03$0A@@CryptoPP@@2HB 00415554     dlltest.obj
 0002:00000558       ?MIN_KEYLENGTH@?$VariableKeyLength@$0BA@$0A@$0HPPPPPPP@$00$03$0A@@CryptoPP@@2HB 00415558     dlltest.obj
 0002:0000055c       ?DIGESTSIZE@?$IteratedHashWithStaticTransform@_KU?$EnumToType@W4ByteOrder@CryptoPP@@$00@CryptoPP@@$0IA@$0EA@VSHA384@2@$0DA@$00@CryptoPP@@2HB 0041555c     dlltest.obj
 0002:00000560       ?DIGESTSIZE@?$IteratedHashWithStaticTransform@_KU?$EnumToType@W4ByteOrder@CryptoPP@@$00@CryptoPP@@$0IA@$0EA@VSHA512@2@$0EA@$00@CryptoPP@@2HB 00415560     dlltest.obj
 0002:00000564       ?BLOCKSIZE@?$IteratedHash@_KU?$EnumToType@W4ByteOrder@CryptoPP@@$00@CryptoPP@@$0IA@VHashTransformation@2@@CryptoPP@@2HB 00415564     dlltest.obj
 0002:00000568       ?DIGESTSIZE@?$IteratedHashWithStaticTransform@IU?$EnumToType@W4ByteOrder@CryptoPP@@$00@CryptoPP@@$0EA@$0CA@VSHA224@2@$0BM@$00@CryptoPP@@2HB 00415568     dlltest.obj
 0002:0000056c       ?DIGESTSIZE@?$IteratedHashWithStaticTransform@IU?$EnumToType@W4ByteOrder@CryptoPP@@$00@CryptoPP@@$0EA@$0CA@VSHA256@2@$0CA@$00@CryptoPP@@2HB 0041556c     dlltest.obj
 0002:00000570       ?DIGESTSIZE@?$IteratedHashWithStaticTransform@IU?$EnumToType@W4ByteOrder@CryptoPP@@$00@CryptoPP@@$0EA@$0BE@VSHA1@2@$0A@$0A@@CryptoPP@@2HB 00415570     dlltest.obj
 0002:00000574       ?BLOCKSIZE@?$IteratedHash@IU?$EnumToType@W4ByteOrder@CryptoPP@@$00@CryptoPP@@$0EA@VHashTransformation@2@@CryptoPP@@2HB 00415574     dlltest.obj
 0002:00000578       ?IV_LENGTH@?$FixedKeyLength@$0BI@$03$0A@@CryptoPP@@2HB 00415578     dlltest.obj
 0002:0000057c       ?IV_REQUIREMENT@?$FixedKeyLength@$0BI@$03$0A@@CryptoPP@@2HB 0041557c     dlltest.obj
 0002:00000580       ?DEFAULT_KEYLENGTH@?$FixedKeyLength@$0BI@$03$0A@@CryptoPP@@2HB 00415580     dlltest.obj
 0002:00000584       ?MAX_KEYLENGTH@?$FixedKeyLength@$0BI@$03$0A@@CryptoPP@@2HB 00415584     dlltest.obj
 0002:00000588       ?MIN_KEYLENGTH@?$FixedKeyLength@$0BI@$03$0A@@CryptoPP@@2HB 00415588     dlltest.obj
 0002:0000058c       ?KEYLENGTH@?$FixedKeyLength@$0BI@$03$0A@@CryptoPP@@2HB 0041558c     dlltest.obj
 0002:00000590       ?IV_LENGTH@?$FixedKeyLength@$0BA@$03$0A@@CryptoPP@@2HB 00415590     dlltest.obj
 0002:00000594       ?IV_REQUIREMENT@?$FixedKeyLength@$0BA@$03$0A@@CryptoPP@@2HB 00415594     dlltest.obj
 0002:00000598       ?DEFAULT_KEYLENGTH@?$FixedKeyLength@$0BA@$03$0A@@CryptoPP@@2HB 00415598     dlltest.obj
 0002:0000059c       ?MAX_KEYLENGTH@?$FixedKeyLength@$0BA@$03$0A@@CryptoPP@@2HB 0041559c     dlltest.obj
 0002:000005a0       ?MIN_KEYLENGTH@?$FixedKeyLength@$0BA@$03$0A@@CryptoPP@@2HB 004155a0     dlltest.obj
 0002:000005a4       ?KEYLENGTH@?$FixedKeyLength@$0BA@$03$0A@@CryptoPP@@2HB 004155a4     dlltest.obj
 0002:000005a8       ?IV_LENGTH@?$FixedKeyLength@$07$03$0A@@CryptoPP@@2HB 004155a8     dlltest.obj
 0002:000005ac       ?IV_REQUIREMENT@?$FixedKeyLength@$07$03$0A@@CryptoPP@@2HB 004155ac     dlltest.obj
 0002:000005b0       ?DEFAULT_KEYLENGTH@?$FixedKeyLength@$07$03$0A@@CryptoPP@@2HB 004155b0     dlltest.obj
 0002:000005b4       ?MAX_KEYLENGTH@?$FixedKeyLength@$07$03$0A@@CryptoPP@@2HB 004155b4     dlltest.obj
 0002:000005b8       ?MIN_KEYLENGTH@?$FixedKeyLength@$07$03$0A@@CryptoPP@@2HB 004155b8     dlltest.obj
 0002:000005bc       ?KEYLENGTH@?$FixedKeyLength@$07$03$0A@@CryptoPP@@2HB 004155bc     dlltest.obj
 0002:000005c0       ?BLOCKSIZE@?$FixedBlockSize@$07@CryptoPP@@2HB 004155c0     dlltest.obj
 0002:000005c4       ?IV_LENGTH@?$VariableKeyLength@$0BA@$0BA@$0CA@$07$03$0A@@CryptoPP@@2HB 004155c4     dlltest.obj
 0002:000005c8       ?IV_REQUIREMENT@?$VariableKeyLength@$0BA@$0BA@$0CA@$07$03$0A@@CryptoPP@@2HB 004155c8     dlltest.obj
 0002:000005cc       ?KEYLENGTH_MULTIPLE@?$VariableKeyLength@$0BA@$0BA@$0CA@$07$03$0A@@CryptoPP@@2HB 004155cc     dlltest.obj
 0002:000005d0       ?DEFAULT_KEYLENGTH@?$VariableKeyLength@$0BA@$0BA@$0CA@$07$03$0A@@CryptoPP@@2HB 004155d0     dlltest.obj
 0002:000005d4       ?MAX_KEYLENGTH@?$VariableKeyLength@$0BA@$0BA@$0CA@$07$03$0A@@CryptoPP@@2HB 004155d4     dlltest.obj
 0002:000005d8       ?MIN_KEYLENGTH@?$VariableKeyLength@$0BA@$0BA@$0CA@$07$03$0A@@CryptoPP@@2HB 004155d8     dlltest.obj
 0002:000005dc       ?BLOCKSIZE@?$FixedBlockSize@$0BA@@CryptoPP@@2HB 004155dc     dlltest.obj
 0002:000005e0       ?end@?$_Iosb@H@std@@2W4_Seekdir@12@B 004155e0     dlltest.obj
 0002:000005e4       ?cur@?$_Iosb@H@std@@2W4_Seekdir@12@B 004155e4     dlltest.obj
 0002:000005e8       ?beg@?$_Iosb@H@std@@2W4_Seekdir@12@B 004155e8     dlltest.obj
 0002:000005ec       ?binary@?$_Iosb@H@std@@2W4_Openmode@12@B 004155ec     dlltest.obj
 0002:000005f0       ?_Noreplace@?$_Iosb@H@std@@2W4_Openmode@12@B 004155f0     dlltest.obj
 0002:000005f4       ?_Nocreate@?$_Iosb@H@std@@2W4_Openmode@12@B 004155f4     dlltest.obj
 0002:000005f8       ?trunc@?$_Iosb@H@std@@2W4_Openmode@12@B 004155f8     dlltest.obj
 0002:000005fc       ?app@?$_Iosb@H@std@@2W4_Openmode@12@B 004155fc     dlltest.obj
 0002:00000600       ?ate@?$_Iosb@H@std@@2W4_Openmode@12@B 00415600     dlltest.obj
 0002:00000604       ?out@?$_Iosb@H@std@@2W4_Openmode@12@B 00415604     dlltest.obj
 0002:00000608       ?in@?$_Iosb@H@std@@2W4_Openmode@12@B 00415608     dlltest.obj
 0002:0000060c       ?_Hardfail@?$_Iosb@H@std@@2W4_Iostate@12@B 0041560c     dlltest.obj
 0002:00000610       ?badbit@?$_Iosb@H@std@@2W4_Iostate@12@B 00415610     dlltest.obj
 0002:00000614       ?failbit@?$_Iosb@H@std@@2W4_Iostate@12@B 00415614     dlltest.obj
 0002:00000618       ?eofbit@?$_Iosb@H@std@@2W4_Iostate@12@B 00415618     dlltest.obj
 0002:0000061c       ?goodbit@?$_Iosb@H@std@@2W4_Iostate@12@B 0041561c     dlltest.obj
 0002:00000620       ?floatfield@?$_Iosb@H@std@@2W4_Fmtflags@12@B 00415620     dlltest.obj
 0002:00000624       ?basefield@?$_Iosb@H@std@@2W4_Fmtflags@12@B 00415624     dlltest.obj
 0002:00000628       ?adjustfield@?$_Iosb@H@std@@2W4_Fmtflags@12@B 00415628     dlltest.obj
 0002:0000062c       ?_Stdio@?$_Iosb@H@std@@2W4_Fmtflags@12@B 0041562c     dlltest.obj
 0002:00000630       ?boolalpha@?$_Iosb@H@std@@2W4_Fmtflags@12@B 00415630     dlltest.obj
 0002:00000634       ?fixed@?$_Iosb@H@std@@2W4_Fmtflags@12@B 00415634     dlltest.obj
 0002:00000638       ?scientific@?$_Iosb@H@std@@2W4_Fmtflags@12@B 00415638     dlltest.obj
 0002:0000063c       ?hex@?$_Iosb@H@std@@2W4_Fmtflags@12@B 0041563c     dlltest.obj
 0002:00000640       ?oct@?$_Iosb@H@std@@2W4_Fmtflags@12@B 00415640     dlltest.obj
 0002:00000644       ?dec@?$_Iosb@H@std@@2W4_Fmtflags@12@B 00415644     dlltest.obj
 0002:00000648       ?internal@?$_Iosb@H@std@@2W4_Fmtflags@12@B 00415648     dlltest.obj
 0002:0000064c       ?right@?$_Iosb@H@std@@2W4_Fmtflags@12@B 0041564c     dlltest.obj
 0002:00000650       ?left@?$_Iosb@H@std@@2W4_Fmtflags@12@B 00415650     dlltest.obj
 0002:00000654       ?showpos@?$_Iosb@H@std@@2W4_Fmtflags@12@B 00415654     dlltest.obj
 0002:00000658       ?showpoint@?$_Iosb@H@std@@2W4_Fmtflags@12@B 00415658     dlltest.obj
 0002:0000065c       ?showbase@?$_Iosb@H@std@@2W4_Fmtflags@12@B 0041565c     dlltest.obj
 0002:00000660       ?uppercase@?$_Iosb@H@std@@2W4_Fmtflags@12@B 00415660     dlltest.obj
 0002:00000664       ?unitbuf@?$_Iosb@H@std@@2W4_Fmtflags@12@B 00415664     dlltest.obj
 0002:00000668       ?skipws@?$_Iosb@H@std@@2W4_Fmtflags@12@B 00415668     dlltest.obj
 0002:0000066c       ?none@?$_Locbase@H@std@@2HB 0041566c     dlltest.obj
 0002:00000670       ?all@?$_Locbase@H@std@@2HB 00415670     dlltest.obj
 0002:00000674       ?messages@?$_Locbase@H@std@@2HB 00415674     dlltest.obj
 0002:00000678       ?time@?$_Locbase@H@std@@2HB 00415678     dlltest.obj
 0002:0000067c       ?numeric@?$_Locbase@H@std@@2HB 0041567c     dlltest.obj
 0002:00000680       ?monetary@?$_Locbase@H@std@@2HB 00415680     dlltest.obj
 0002:00000684       ?ctype@?$_Locbase@H@std@@2HB 00415684     dlltest.obj
 0002:00000688       ?collate@?$_Locbase@H@std@@2HB 00415688     dlltest.obj
 0002:00000690       ??_7?$CFB_RequireFullDataBlocks@V?$CFB_EncryptionTemplate@V?$AbstractPolicyHolder@VCFB_CipherAbstractPolicy@CryptoPP@@VCFB_ModePolicy@2@@CryptoPP@@@CryptoPP@@@CryptoPP@@6B@ 00415690     dlltest.obj
 0002:000006b8       ??_7?$CFB_RequireFullDataBlocks@V?$CFB_EncryptionTemplate@V?$AbstractPolicyHolder@VCFB_CipherAbstractPolicy@CryptoPP@@VCFB_ModePolicy@2@@CryptoPP@@@CryptoPP@@@CryptoPP@@6BStreamTransformation@1@@ 004156b8     dlltest.obj
 0002:000006f4       ??_7?$CFB_RequireFullDataBlocks@V?$CFB_EncryptionTemplate@V?$AbstractPolicyHolder@VCFB_CipherAbstractPolicy@CryptoPP@@VCFB_ModePolicy@2@@CryptoPP@@@CryptoPP@@@CryptoPP@@6BSimpleKeyingInterface@1@@ 004156f4     dlltest.obj
 0002:00000748       ??_7?$CFB_RequireFullDataBlocks@V?$CFB_DecryptionTemplate@V?$AbstractPolicyHolder@VCFB_CipherAbstractPolicy@CryptoPP@@VCFB_ModePolicy@2@@CryptoPP@@@CryptoPP@@@CryptoPP@@6B@ 00415748     dlltest.obj
 0002:00000770       ??_7?$CFB_RequireFullDataBlocks@V?$CFB_DecryptionTemplate@V?$AbstractPolicyHolder@VCFB_CipherAbstractPolicy@CryptoPP@@VCFB_ModePolicy@2@@CryptoPP@@@CryptoPP@@@CryptoPP@@6BStreamTransformation@1@@ 00415770     dlltest.obj
 0002:000007ac       ??_7?$CFB_RequireFullDataBlocks@V?$CFB_DecryptionTemplate@V?$AbstractPolicyHolder@VCFB_CipherAbstractPolicy@CryptoPP@@VCFB_ModePolicy@2@@CryptoPP@@@CryptoPP@@@CryptoPP@@6BSimpleKeyingInterface@1@@ 004157ac     dlltest.obj
 0002:00000800       ??_7?$BlockCipherFinal@$0A@VEnc@Rijndael@CryptoPP@@@CryptoPP@@6BBlockTransformation@1@@ 00415800     dlltest.obj
 0002:0000082c       ??_7?$BlockCipherFinal@$0A@VEnc@Rijndael@CryptoPP@@@CryptoPP@@6BSimpleKeyingInterface@1@@ 0041582c     dlltest.obj
 0002:0000086c       ??_7?$ConcretePolicyHolder@VEmpty@CryptoPP@@V?$CFB_RequireFullDataBlocks@V?$CFB_EncryptionTemplate@V?$AbstractPolicyHolder@VCFB_CipherAbstractPolicy@CryptoPP@@VCFB_ModePolicy@2@@CryptoPP@@@CryptoPP@@@2@VCFB_CipherAbstractPolicy@2@@CryptoPP@@6B@ 0041586c     dlltest.obj
 0002:00000894       ??_7?$ConcretePolicyHolder@VEmpty@CryptoPP@@V?$CFB_RequireFullDataBlocks@V?$CFB_EncryptionTemplate@V?$AbstractPolicyHolder@VCFB_CipherAbstractPolicy@CryptoPP@@VCFB_ModePolicy@2@@CryptoPP@@@CryptoPP@@@2@VCFB_CipherAbstractPolicy@2@@CryptoPP@@6BStreamTransformation@1@@ 00415894     dlltest.obj
 0002:000008d4       ??_7?$ConcretePolicyHolder@VEmpty@CryptoPP@@V?$CFB_RequireFullDataBlocks@V?$CFB_EncryptionTemplate@V?$AbstractPolicyHolder@VCFB_CipherAbstractPolicy@CryptoPP@@VCFB_ModePolicy@2@@CryptoPP@@@CryptoPP@@@2@VCFB_CipherAbstractPolicy@2@@CryptoPP@@6BSimpleKeyingInterface@1@@ 004158d4     dlltest.obj
 0002:00000928       ??_7?$ConcretePolicyHolder@VEmpty@CryptoPP@@V?$CFB_RequireFullDataBlocks@V?$CFB_DecryptionTemplate@V?$AbstractPolicyHolder@VCFB_CipherAbstractPolicy@CryptoPP@@VCFB_ModePolicy@2@@CryptoPP@@@CryptoPP@@@2@VCFB_CipherAbstractPolicy@2@@CryptoPP@@6B@ 00415928     dlltest.obj
 0002:00000950       ??_7?$ConcretePolicyHolder@VEmpty@CryptoPP@@V?$CFB_RequireFullDataBlocks@V?$CFB_DecryptionTemplate@V?$AbstractPolicyHolder@VCFB_CipherAbstractPolicy@CryptoPP@@VCFB_ModePolicy@2@@CryptoPP@@@CryptoPP@@@2@VCFB_CipherAbstractPolicy@2@@CryptoPP@@6BStreamTransformation@1@@ 00415950     dlltest.obj
 0002:0000098c       ??_7?$ConcretePolicyHolder@VEmpty@CryptoPP@@V?$CFB_RequireFullDataBlocks@V?$CFB_DecryptionTemplate@V?$AbstractPolicyHolder@VCFB_CipherAbstractPolicy@CryptoPP@@VCFB_ModePolicy@2@@CryptoPP@@@CryptoPP@@@2@VCFB_CipherAbstractPolicy@2@@CryptoPP@@6BSimpleKeyingInterface@1@@ 0041598c     dlltest.obj
 0002:000009e0       ??_7?$BlockCipherFinal@$0A@VBase@DES_EDE3@CryptoPP@@@CryptoPP@@6BBlockTransformation@1@@ 004159e0     dlltest.obj
 0002:00000a0c       ??_7?$BlockCipherFinal@$0A@VBase@DES_EDE3@CryptoPP@@@CryptoPP@@6BSimpleKeyingInterface@1@@ 00415a0c     dlltest.obj
 0002:00000a4c       ??_S?$AlgorithmParametersTemplate@VConstByteArrayParameter@CryptoPP@@@CryptoPP@@6B@ 00415a4c     dlltest.obj
 0002:00000a5c       ??_7?$CipherModeFinalTemplate_CipherHolder@V?$BlockCipherFinal@$0A@VBase@DES_EDE3@CryptoPP@@@CryptoPP@@V?$ConcretePolicyHolder@VEmpty@CryptoPP@@V?$CFB_RequireFullDataBlocks@V?$CFB_EncryptionTemplate@V?$AbstractPolicyHolder@VCFB_CipherAbstractPolicy@CryptoPP@@VCFB_ModePolicy@2@@CryptoPP@@@CryptoPP@@@2@VCFB_CipherAbstractPolicy@2@@2@@CryptoPP@@6B@ 00415a5c     dlltest.obj
 0002:00000a84       ??_7?$CipherModeFinalTemplate_CipherHolder@V?$BlockCipherFinal@$0A@VBase@DES_EDE3@CryptoPP@@@CryptoPP@@V?$ConcretePolicyHolder@VEmpty@CryptoPP@@V?$CFB_RequireFullDataBlocks@V?$CFB_EncryptionTemplate@V?$AbstractPolicyHolder@VCFB_CipherAbstractPolicy@CryptoPP@@VCFB_ModePolicy@2@@CryptoPP@@@CryptoPP@@@2@VCFB_CipherAbstractPolicy@2@@2@@CryptoPP@@6BStreamTransformation@1@@ 00415a84     dlltest.obj
 0002:00000ac4       ??_7?$CipherModeFinalTemplate_CipherHolder@V?$BlockCipherFinal@$0A@VBase@DES_EDE3@CryptoPP@@@CryptoPP@@V?$ConcretePolicyHolder@VEmpty@CryptoPP@@V?$CFB_RequireFullDataBlocks@V?$CFB_EncryptionTemplate@V?$AbstractPolicyHolder@VCFB_CipherAbstractPolicy@CryptoPP@@VCFB_ModePolicy@2@@CryptoPP@@@CryptoPP@@@2@VCFB_CipherAbstractPolicy@2@@2@@CryptoPP@@6BSimpleKeyingInterface@1@@ 00415ac4     dlltest.obj
 0002:00000b18       ??_7?$CipherModeFinalTemplate_CipherHolder@V?$BlockCipherFinal@$0A@VBase@DES_EDE3@CryptoPP@@@CryptoPP@@V?$ConcretePolicyHolder@VEmpty@CryptoPP@@V?$CFB_RequireFullDataBlocks@V?$CFB_DecryptionTemplate@V?$AbstractPolicyHolder@VCFB_CipherAbstractPolicy@CryptoPP@@VCFB_ModePolicy@2@@CryptoPP@@@CryptoPP@@@2@VCFB_CipherAbstractPolicy@2@@2@@CryptoPP@@6B@ 00415b18     dlltest.obj
 0002:00000b40       ??_7?$CipherModeFinalTemplate_CipherHolder@V?$BlockCipherFinal@$0A@VBase@DES_EDE3@CryptoPP@@@CryptoPP@@V?$ConcretePolicyHolder@VEmpty@CryptoPP@@V?$CFB_RequireFullDataBlocks@V?$CFB_DecryptionTemplate@V?$AbstractPolicyHolder@VCFB_CipherAbstractPolicy@CryptoPP@@VCFB_ModePolicy@2@@CryptoPP@@@CryptoPP@@@2@VCFB_CipherAbstractPolicy@2@@2@@CryptoPP@@6BStreamTransformation@1@@ 00415b40     dlltest.obj
 0002:00000b7c       ??_7?$CipherModeFinalTemplate_CipherHolder@V?$BlockCipherFinal@$0A@VBase@DES_EDE3@CryptoPP@@@CryptoPP@@V?$ConcretePolicyHolder@VEmpty@CryptoPP@@V?$CFB_RequireFullDataBlocks@V?$CFB_DecryptionTemplate@V?$AbstractPolicyHolder@VCFB_CipherAbstractPolicy@CryptoPP@@VCFB_ModePolicy@2@@CryptoPP@@@CryptoPP@@@2@VCFB_CipherAbstractPolicy@2@@2@@CryptoPP@@6BSimpleKeyingInterface@1@@ 00415b7c     dlltest.obj
 0002:00000bd0       ??_7?$CipherModeFinalTemplate_CipherHolder@V?$BlockCipherFinal@$0A@VBase@DES_EDE3@CryptoPP@@@CryptoPP@@VECB_OneWay@2@@CryptoPP@@6BStreamTransformation@1@@ 00415bd0     dlltest.obj
 0002:00000c0c       ??_7?$CipherModeFinalTemplate_CipherHolder@V?$BlockCipherFinal@$0A@VBase@DES_EDE3@CryptoPP@@@CryptoPP@@VECB_OneWay@2@@CryptoPP@@6BSimpleKeyingInterface@1@@ 00415c0c     dlltest.obj
 0002:00000c50       ??_C@_0BK@DLHJGBOL@memcpy_s?3?5buffer?5overflow?$AA@ 00415c50     dlltest.obj
 0002:00000c70       ??_7?$DL_SignerImpl@U?$DL_SignatureSchemeOptions@UDSA@CryptoPP@@UDL_Keys_DSA@2@V?$DL_Algorithm_GDSA@VInteger@CryptoPP@@@2@VDL_SignatureMessageEncodingMethod_DSA@2@VSHA1@2@@CryptoPP@@@CryptoPP@@6B@ 00415c70     dlltest.obj
 0002:00000c7c       ??_7?$DL_SignerImpl@U?$DL_SignatureSchemeOptions@UDSA@CryptoPP@@UDL_Keys_DSA@2@V?$DL_Algorithm_GDSA@VInteger@CryptoPP@@@2@VDL_SignatureMessageEncodingMethod_DSA@2@VSHA1@2@@CryptoPP@@@CryptoPP@@6BPrivateKeyAlgorithm@1@@ 00415c7c     dlltest.obj
 0002:00000c9c       ??_7?$DL_SignerImpl@U?$DL_SignatureSchemeOptions@UDSA@CryptoPP@@UDL_Keys_DSA@2@V?$DL_Algorithm_GDSA@VInteger@CryptoPP@@@2@VDL_SignatureMessageEncodingMethod_DSA@2@VSHA1@2@@CryptoPP@@@CryptoPP@@6BPK_SignatureScheme@1@@ 00415c9c     dlltest.obj
 0002:00000cec       ??_7?$PK_MessageAccumulatorImpl@VSHA1@CryptoPP@@@CryptoPP@@6B@ 00415cec     dlltest.obj
 0002:00000d3c       ??_SDL_SignatureMessageEncodingMethod_DSA@CryptoPP@@6B@ 00415d3c     dlltest.obj
 0002:00000d68       ??_7?$DL_VerifierImpl@U?$DL_SignatureSchemeOptions@UDSA@CryptoPP@@UDL_Keys_DSA@2@V?$DL_Algorithm_GDSA@VInteger@CryptoPP@@@2@VDL_SignatureMessageEncodingMethod_DSA@2@VSHA1@2@@CryptoPP@@@CryptoPP@@6B@ 00415d68     dlltest.obj
 0002:00000d74       ??_7?$DL_VerifierImpl@U?$DL_SignatureSchemeOptions@UDSA@CryptoPP@@UDL_Keys_DSA@2@V?$DL_Algorithm_GDSA@VInteger@CryptoPP@@@2@VDL_SignatureMessageEncodingMethod_DSA@2@VSHA1@2@@CryptoPP@@@CryptoPP@@6BPublicKeyAlgorithm@1@@ 00415d74     dlltest.obj
 0002:00000d94       ??_7?$DL_VerifierImpl@U?$DL_SignatureSchemeOptions@UDSA@CryptoPP@@UDL_Keys_DSA@2@V?$DL_Algorithm_GDSA@VInteger@CryptoPP@@@2@VDL_SignatureMessageEncodingMethod_DSA@2@VSHA1@2@@CryptoPP@@@CryptoPP@@6BPK_SignatureScheme@1@@ 00415d94     dlltest.obj
 0002:00000de8       ??_C@_0FC@JIHNAKLI@PK_MessageEncodingMethod?3?5this?5s@ 00415de8     dlltest.obj
 0002:00000e3c       ??_C@_0M@JMHEFFAI@InputBuffer?$AA@ 00415e3c     dlltest.obj
 0002:00000e4c       ??_7StringStore@CryptoPP@@6BWaitable@1@@ 00415e4c     dlltest.obj
 0002:00000e5c       ??_7StringStore@CryptoPP@@6BAlgorithm@1@@ 00415e5c     dlltest.obj
 0002:00000f10       ??_C@_0BM@IHOPMGGK@DSA?5key?5generation?5failed?4?6?$AA@ 00415f10     dlltest.obj
 0002:00000f2c       ??_C@_0BP@CIKBDPIO@DSA?5key?5encode?1decode?5failed?4?6?$AA@ 00415f2c     dlltest.obj
 0002:00000f4c       ??_C@_0DE@BCHOJGOE@?6FIPS?5140?92?5Sample?5Application?5c@ 00415f4c     dlltest.obj
 0002:00000f80       ??_C@_0FI@NPEECAPC@9?4?5Caught?5expected?5exception?5whe@ 00415f80     dlltest.obj
 0002:00000fd8       ??_C@_0ED@HENKKDHN@DES?9EDE3?5implementation?5did?5not?5@ 00415fd8     dlltest.obj
 0002:00001020       ??_C@_0EE@MFPBKNND@8?4?5DSA?5signature?5verification?5su@ 00416020     dlltest.obj
 0002:00001064       ??_C@_0DM@BDPEOKOC@DSA?5signature?5verification?5faile@ 00416064     dlltest.obj
 0002:000010a0       ??_C@_0CO@EHIBOMKF@7?4?5DSA?5signature?5and?5verificatio@ 004160a0     dlltest.obj
 0002:000010d0       ??_C@_0CI@FOFCOEPD@DSA?5signature?5and?5verification?5f@ 004160d0     dlltest.obj
 0002:000010f8       ??_C@_0CF@HHEEFILP@6?4?5DSA?5key?5encode?1decode?5succeed@ 004160f8     dlltest.obj
 0002:00001120       ??_C@_0CC@LNECFCGO@5?4?5DSA?5key?5generation?5succeeded?4@ 00416120     dlltest.obj
 0002:00001144       ??_C@_0BK@EKFOGHJC@4?4?5SHA?91?5hash?5succeeded?4?6?$AA@ 00416144     dlltest.obj
 0002:00001160       ??_C@_0BE@JFJGFONL@SHA?91?5hash?5failed?4?6?$AA@ 00416160     dlltest.obj
 0002:00001174       ??_C@_0DC@NNMIMHNA@3?4?5DES?9EDE3?9CFB?5Encryption?1decry@ 00416174     dlltest.obj
 0002:000011a8       ??_C@_0CM@HIAKHIDM@DES?9EDE3?9CFB?5Encryption?1decrypti@ 004161a8     dlltest.obj
 0002:000011d4       ??_C@_0CF@FGHLKPJP@2?4?5Re?9do?5power?9up?5self?5test?5pass@ 004161d4     dlltest.obj
 0002:000011fc       ??_C@_0CC@JOJNDFOB@Re?9do?5power?9up?5self?5test?5failed?4@ 004161fc     dlltest.obj
 0002:00001220       ??_C@_0FM@MEMPCADB@1?4?5Caught?5expected?5exception?5whe@ 00416220     dlltest.obj
 0002:00001280       ??_C@_0EJ@EHDPAJFA@Use?5of?5AES?5failed?5to?5cause?5an?5ex@ 00416280     dlltest.obj
 0002:000012cc       ??_C@_0CJ@OCDAIIBF@0?4?5Automatic?5power?9up?5self?5test?5@ 004162cc     dlltest.obj
 0002:000012f8       ??_C@_0CG@GPHLCMGP@Automatic?5power?9up?5self?5test?5fai@ 004162f8     dlltest.obj
 0002:00001320       ??_C@_0DH@DMIDPIPA@FIPS?5140?92?5compliance?5was?5turned@ 00416320     dlltest.obj
 0002:00001358       ??_C@_01KMDKNFGN@?1?$AA@   00416358     dlltest.obj
 0002:0000135c       ?_BADOFF@std@@3JB          0041635c     libcpmt:ios.obj
 0002:00001364       ??_7ios_base@std@@6B@      00416364     libcpmt:ios.obj
 0002:0000136c       ??_7runtime_error@std@@6B@ 0041636c     libcpmt:ios.obj
 0002:00001378       ??_7failure@ios_base@std@@6B@ 00416378     libcpmt:ios.obj
 0002:00001380       ??_C@_0BF@OOHOMBOF@ios_base?3?3eofbit?5set?$AA@ 00416380     libcpmt:ios.obj
 0002:00001398       ??_C@_0BG@FMKFHCIL@ios_base?3?3failbit?5set?$AA@ 00416398     libcpmt:ios.obj
 0002:000013b0       ??_C@_0BF@PHHKMMFD@ios_base?3?3badbit?5set?$AA@ 004163b0     libcpmt:ios.obj
 0002:000013cc       ??_7logic_error@std@@6B@   004163cc     libcpmt:string.obj
 0002:000013d8       ??_7length_error@std@@6B@  004163d8     libcpmt:string.obj
 0002:000013e4       ??_7out_of_range@std@@6B@  004163e4     libcpmt:string.obj
 0002:000013ec       ??_C@_0BI@CFPLBAOH@invalid?5string?5position?$AA@ 004163ec     libcpmt:string.obj
 0002:00001404       ??_C@_0BA@JFNIOLAK@string?5too?5long?$AA@ 00416404     libcpmt:string.obj
 0002:00001418       ??_7facet@locale@std@@6B@  00416418     libcpmt:cerr.obj
 0002:00001420       ??_7ctype_base@std@@6B@    00416420     libcpmt:cerr.obj
 0002:00001428       ??_7?$basic_ostream@DU?$char_traits@D@std@@@std@@6B@ 00416428     libcpmt:cerr.obj
 0002:00001430       ??_7?$basic_ios@DU?$char_traits@D@std@@@std@@6B@ 00416430     libcpmt:cerr.obj
 0002:00001438       ??_7?$ctype@D@std@@6B@     00416438     libcpmt:cerr.obj
 0002:0000145c       ??_C@_01GFHCPBMG@C?$AA@    0041645c     libcpmt:cerr.obj
 0002:00001464       ??_7?$basic_streambuf@DU?$char_traits@D@std@@@std@@6B@ 00416464     libcpmt:cerr.obj
 0002:00001498       ??_C@_08EPJLHIJG@bad?5cast?$AA@ 00416498     libcpmt:cerr.obj
 0002:000014a8       ??_7?$basic_filebuf@DU?$char_traits@D@std@@@std@@6B@ 004164a8     libcpmt:cerr.obj
 0002:000014dc       ??_8?$basic_ostream@DU?$char_traits@D@std@@@std@@7B@ 004164dc     libcpmt:cerr.obj
 0002:000014e8       ??_7?$codecvt@DDH@std@@6B@ 004164e8     libcpmt:cerr.obj
 0002:00001508       ?table_size@?$ctype@D@std@@2IB 00416508     libcpmt:locale0.obj
 0002:00001510       ??_7_Locimp@locale@std@@6B@ 00416510     libcpmt:locale0.obj
 0002:00001514       ??_C@_01NBENCBCI@?$CK?$AA@ 00416514     libcpmt:locale0.obj
 0002:00001548       ??_7type_info@@6B@         00416548     LIBCMT:typinfo.obj
 0002:00001580       ??_7exception@@6B@         00416580     LIBCMT:stdexcpt.obj
 0002:00001588       ??_C@_0BC@EOODALEL@Unknown?5exception?$AA@ 00416588     LIBCMT:stdexcpt.obj
 0002:000015a0       ??_7bad_cast@@6B@          004165a0     LIBCMT:stdexcpt.obj
 0002:000015ac       ??_7bad_typeid@@6B@        004165ac     LIBCMT:stdexcpt.obj
 0002:000015b8       ??_7__non_rtti_object@@6B@ 004165b8     LIBCMT:stdexcpt.obj
 0002:000018a8       ??_C@_07LCBHPJJN@LC_TIME?$AA@ 004168a8     LIBCMT:setlocal.obj
 0002:000018b0       ??_C@_0L@DLHIECNL@LC_NUMERIC?$AA@ 004168b0     LIBCMT:setlocal.obj
 0002:000018bc       ??_C@_0M@MIENIKLA@LC_MONETARY?$AA@ 004168bc     LIBCMT:setlocal.obj
 0002:000018c8       ??_C@_08EADHIDAD@LC_CTYPE?$AA@ 004168c8     LIBCMT:setlocal.obj
 0002:000018d4       ??_C@_0L@KFJHEKIK@LC_COLLATE?$AA@ 004168d4     LIBCMT:setlocal.obj
 0002:000018e0       ??_C@_06NEFDFEKB@LC_ALL?$AA@ 004168e0     LIBCMT:setlocal.obj
 0002:000018e8       ??_C@_03EGDHDPFD@_?4?0?$AA@ 004168e8     LIBCMT:setlocal.obj
 0002:000018ec       ??_C@_01LFCBOECM@?4?$AA@   004168ec     LIBCMT:setlocal.obj
 0002:000018f0       ??_C@_01IDAFKMJL@_?$AA@    004168f0     LIBCMT:setlocal.obj
 0002:00001904       ??_C@_01ICJEACDI@?$DL?$AA@ 00416904     LIBCMT:setlocal.obj
 0002:00001908       ??_C@_01NEMOKFLO@?$DN?$AA@ 00416908     LIBCMT:setlocal.obj
 0002:0000190a       ??_C@_00CNPNBAHC@?$AA@     0041690a     LIBCMT:setlocal.obj
 0002:0000190c       ??_C@_02BALPLPBG@?$DN?$DL?$AA@ 0041690c     LIBCMT:setlocal.obj
 0002:0000191c       ??_C@_13NOLLCAOD@?$AA?$AA?$AA?$AA@ 0041691c     LIBCMT:a_map.obj
 0002:00001948       ___newctype                00416948     LIBCMT:ctype.obj
 0002:00001c48       __wctype                   00416c48     LIBCMT:ctype.obj
 0002:00001e88       ??_C@_07PEJMOBNF@FlsFree?$AA@ 00416e88     LIBCMT:tidtable.obj
 0002:00001e90       ??_C@_0M@JCPCPOEF@FlsSetValue?$AA@ 00416e90     LIBCMT:tidtable.obj
 0002:00001e9c       ??_C@_0M@GDNOONDI@FlsGetValue?$AA@ 00416e9c     LIBCMT:tidtable.obj
 0002:00001ea8       ??_C@_08KNHFBNJ@FlsAlloc?$AA@ 00416ea8     LIBCMT:tidtable.obj
 0002:00001eb4       ??_C@_0N@MDJJJHMB@kernel32?4dll?$AA@ 00416eb4     LIBCMT:tidtable.obj
 0002:00001ef4       ??_C@_0P@MIGLKIOC@CorExitProcess?$AA@ 00416ef4     LIBCMT:crt0dat.obj
 0002:00001f04       ??_C@_0M@MBOPBNBK@mscoree?4dll?$AA@ 00416f04     LIBCMT:crt0dat.obj
 0002:00001f5c       ??_C@_0P@GGKDKEEG@runtime?5error?5?$AA@ 00416f5c     LIBCMT:crt0msg.obj
 0002:00001f6c       ??_C@_02PCIJFNDE@?$AN?6?$AA@ 00416f6c     LIBCMT:crt0msg.obj
 0002:00001f70       ??_C@_0O@MJNIPGOH@TLOSS?5error?$AN?6?$AA@ 00416f70     LIBCMT:crt0msg.obj
 0002:00001f80       ??_C@_0N@BONNPDHF@SING?5error?$AN?6?$AA@ 00416f80     LIBCMT:crt0msg.obj
 0002:00001f90       ??_C@_0P@MBDAJNE@DOMAIN?5error?$AN?6?$AA@ 00416f90     LIBCMT:crt0msg.obj
 0002:00001fa0       ??_C@_0KC@BDDGGBEJ@R6029?$AN?6?9?5This?5application?5cannot@ 00416fa0     LIBCMT:crt0msg.obj
 0002:00002044       ??_C@_0CF@KJDAIALP@R6028?$AN?6?9?5unable?5to?5initialize?5he@ 00417044     LIBCMT:crt0msg.obj
 0002:0000206c       ??_C@_0DF@GAKBPDFP@R6027?$AN?6?9?5not?5enough?5space?5for?5lo@ 0041706c     LIBCMT:crt0msg.obj
 0002:000020a4       ??_C@_0DF@IBLNNAIG@R6026?$AN?6?9?5not?5enough?5space?5for?5st@ 004170a4     LIBCMT:crt0msg.obj
 0002:000020dc       ??_C@_0CG@IOHKGFNJ@R6025?$AN?6?9?5pure?5virtual?5function?5c@ 004170dc     LIBCMT:crt0msg.obj
 0002:00002104       ??_C@_0DF@JIJJFJDC@R6024?$AN?6?9?5not?5enough?5space?5for?5_o@ 00417104     LIBCMT:crt0msg.obj
 0002:0000213c       ??_C@_0CJ@EGEJHFME@R6019?$AN?6?9?5unable?5to?5open?5console?5@ 0041713c     LIBCMT:crt0msg.obj
 0002:00002168       ??_C@_0CB@GNHNIELH@R6018?$AN?6?9?5unexpected?5heap?5error?$AN?6@ 00417168     LIBCMT:crt0msg.obj
 0002:0000218c       ??_C@_0CN@FOLDKNG@R6017?$AN?6?9?5unexpected?5multithread?5@ 0041718c     LIBCMT:crt0msg.obj
 0002:000021bc       ??_C@_0CM@FAHFJNHO@R6016?$AN?6?9?5not?5enough?5space?5for?5th@ 004171bc     LIBCMT:crt0msg.obj
 0002:000021e8       ??_C@_0JG@LBKMGKLD@?$AN?6This?5application?5has?5requested@ 004171e8     LIBCMT:crt0msg.obj
 0002:00002280       ??_C@_0CM@FLCNIPKK@R6009?$AN?6?9?5not?5enough?5space?5for?5en@ 00417280     LIBCMT:crt0msg.obj
 0002:000022ac       ??_C@_0CK@KMMJOAPP@R6008?$AN?6?9?5not?5enough?5space?5for?5ar@ 004172ac     LIBCMT:crt0msg.obj
 0002:000022d8       ??_C@_0CF@HOHMHDEK@R6002?$AN?6?9?5floating?5point?5not?5load@ 004172d8     LIBCMT:crt0msg.obj
 0002:00002300       ??_C@_0CF@GOGNBNAK@Microsoft?5Visual?5C?$CL?$CL?5Runtime?5Lib@ 00417300     LIBCMT:crt0msg.obj
 0002:00002328       ??_C@_02PHMGELLB@?6?6?$AA@ 00417328     LIBCMT:crt0msg.obj
 0002:0000232c       ??_C@_0BK@OFGJDLJJ@Runtime?5Error?$CB?6?6Program?3?5?$AA@ 0041732c     LIBCMT:crt0msg.obj
 0002:00002348       ??_C@_03KHICJKCI@?4?4?4?$AA@ 00417348     LIBCMT:crt0msg.obj
 0002:0000234c       ??_C@_0BH@DNAGHKFM@?$DMprogram?5name?5unknown?$DO?$AA@ 0041734c     LIBCMT:crt0msg.obj
 0002:00002364       ??_C@_09KLGCKDOD@Program?3?5?$AA@ 00417364     LIBCMT:secfail.obj
 0002:00002370       ??_C@_0KA@JEHFIFGP@A?5buffer?5overrun?5has?5been?5detect@ 00417370     LIBCMT:secfail.obj
 0002:00002410       ??_C@_0BJ@MDEKIEOJ@Buffer?5overrun?5detected?$CB?$AA@ 00417410     LIBCMT:secfail.obj
 0002:00002430       ??_C@_0LB@BPLHHLFD@A?5security?5error?5of?5unknown?5caus@ 00417430     LIBCMT:secfail.obj
 0002:000024e4       ??_C@_0CD@GMKACBEK@Unknown?5security?5failure?5detecte@ 004174e4     LIBCMT:secfail.obj
 0002:000025c4       ??_C@_08JCCMCCIL@HH?3mm?3ss?$AA@ 004175c4     LIBCMT:strftime.obj
 0002:000025d0       ??_C@_0BE@CKGJFCPC@dddd?0?5MMMM?5dd?0?5yyyy?$AA@ 004175d0     LIBCMT:strftime.obj
 0002:000025e4       ??_C@_08BPBNCDIB@MM?1dd?1yy?$AA@ 004175e4     LIBCMT:strftime.obj
 0002:000025f0       ??_C@_02CJNFDJBF@PM?$AA@   004175f0     LIBCMT:strftime.obj
 0002:000025f4       ??_C@_02DEDBPAFC@AM?$AA@   004175f4     LIBCMT:strftime.obj
 0002:000025f8       ??_C@_08EDHMEBNP@December?$AA@ 004175f8     LIBCMT:strftime.obj
 0002:00002604       ??_C@_08HCHEGEOA@November?$AA@ 00417604     LIBCMT:strftime.obj
 0002:00002610       ??_C@_07JJNFCEND@October?$AA@ 00417610     LIBCMT:strftime.obj
 0002:00002618       ??_C@_09BHHEALKD@September?$AA@ 00417618     LIBCMT:strftime.obj
 0002:00002624       ??_C@_06LBBHFDDG@August?$AA@ 00417624     LIBCMT:strftime.obj
 0002:0000262c       ??_C@_04MIEPOIFP@July?$AA@ 0041762c     LIBCMT:strftime.obj
 0002:00002634       ??_C@_04CNLMGBGM@June?$AA@ 00417634     LIBCMT:strftime.obj
 0002:0000263c       ??_C@_05DMJDNLEJ@April?$AA@ 0041763c     LIBCMT:strftime.obj
 0002:00002644       ??_C@_05HPCKOFNC@March?$AA@ 00417644     LIBCMT:strftime.obj
 0002:0000264c       ??_C@_08GNJGEPFN@February?$AA@ 0041764c     LIBCMT:strftime.obj
 0002:00002658       ??_C@_07CGJPFGJA@January?$AA@ 00417658     LIBCMT:strftime.obj
 0002:00002660       ??_C@_03MKABNOCG@Dec?$AA@  00417660     LIBCMT:strftime.obj
 0002:00002664       ??_C@_03JPJOFNIA@Nov?$AA@  00417664     LIBCMT:strftime.obj
 0002:00002668       ??_C@_03BMAOKBAD@Oct?$AA@  00417668     LIBCMT:strftime.obj
 0002:0000266c       ??_C@_03GGCAPAJC@Sep?$AA@  0041766c     LIBCMT:strftime.obj
 0002:00002670       ??_C@_03IFJFEIGA@Aug?$AA@  00417670     LIBCMT:strftime.obj
 0002:00002674       ??_C@_03LBGABGKK@Jul?$AA@  00417674     LIBCMT:strftime.obj
 0002:00002678       ??_C@_03IDFGHECI@Jun?$AA@  00417678     LIBCMT:strftime.obj
 0002:0000267c       ??_C@_03CNMDKL@May?$AA@    0041767c     LIBCMT:strftime.obj
 0002:00002680       ??_C@_03LEOLGMJP@Apr?$AA@  00417680     LIBCMT:strftime.obj
 0002:00002684       ??_C@_03ODNJBKGA@Mar?$AA@  00417684     LIBCMT:strftime.obj
 0002:00002688       ??_C@_03HJBDCHOM@Feb?$AA@  00417688     LIBCMT:strftime.obj
 0002:0000268c       ??_C@_03JIHJHPIE@Jan?$AA@  0041768c     LIBCMT:strftime.obj
 0002:00002690       ??_C@_08INBOOONO@Saturday?$AA@ 00417690     LIBCMT:strftime.obj
 0002:0000269c       ??_C@_06JECMNKMI@Friday?$AA@ 0041769c     LIBCMT:strftime.obj
 0002:000026a4       ??_C@_08HACCIKIA@Thursday?$AA@ 004176a4     LIBCMT:strftime.obj
 0002:000026b0       ??_C@_09DLIGFAKA@Wednesday?$AA@ 004176b0     LIBCMT:strftime.obj
 0002:000026bc       ??_C@_07BAAGCFCM@Tuesday?$AA@ 004176bc     LIBCMT:strftime.obj
 0002:000026c4       ??_C@_06JLEDEDGH@Monday?$AA@ 004176c4     LIBCMT:strftime.obj
 0002:000026cc       ??_C@_06OOPIFAJ@Sunday?$AA@ 004176cc     LIBCMT:strftime.obj
 0002:000026d4       ??_C@_03FEFJNEK@Sat?$AA@   004176d4     LIBCMT:strftime.obj
 0002:000026d8       ??_C@_03IDIOELNC@Fri?$AA@  004176d8     LIBCMT:strftime.obj
 0002:000026dc       ??_C@_03IOFIKPDN@Thu?$AA@  004176dc     LIBCMT:strftime.obj
 0002:000026e0       ??_C@_03MHOMLAJA@Wed?$AA@  004176e0     LIBCMT:strftime.obj
 0002:000026e4       ??_C@_03NAGEINEP@Tue?$AA@  004176e4     LIBCMT:strftime.obj
 0002:000026e8       ??_C@_03PDAGKDH@Mon?$AA@   004176e8     LIBCMT:strftime.obj
 0002:000026ec       ??_C@_03KOEHGMDN@Sun?$AA@  004176ec     LIBCMT:strftime.obj
 0002:000026f0       ??_C@_03EBAPMIKO@a?1p?$AA@ 004176f0     LIBCMT:strftime.obj
 0002:000026f4       ??_C@_05JAMEPDIN@am?1pm?$AA@ 004176f4     LIBCMT:strftime.obj
 0002:00002710       ___rgLocInfo               00417710     LIBCMT:getqloc.obj
 0002:00002bb4       ??_C@_08PKBIPKE@Paraguay?$AA@ 00417bb4     LIBCMT:getqloc.obj
 0002:00002bc0       ??_C@_07GHBIBIBP@Uruguay?$AA@ 00417bc0     LIBCMT:getqloc.obj
 0002:00002bc8       ??_C@_05HBNKAPDN@Chile?$AA@ 00417bc8     LIBCMT:getqloc.obj
 0002:00002bd0       ??_C@_07FEIFIPNF@Ecuador?$AA@ 00417bd0     LIBCMT:getqloc.obj
 0002:00002bd8       ??_C@_09PGNFPGME@Argentina?$AA@ 00417bd8     LIBCMT:getqloc.obj
 0002:00002be4       ??_C@_04IALPBJF@Peru?$AA@  00417be4     LIBCMT:getqloc.obj
 0002:00002bec       ??_C@_08IJPLNLKH@Colombia?$AA@ 00417bec     LIBCMT:getqloc.obj
 0002:00002bf8       ??_C@_09IDMFKCN@Venezuela?$AA@ 00417bf8     LIBCMT:getqloc.obj
 0002:00002c04       ??_C@_0BD@DNEJOGOK@Dominican?5Republic?$AA@ 00417c04     LIBCMT:getqloc.obj
 0002:00002c18       ??_C@_0N@LPINDNDB@South?5Africa?$AA@ 00417c18     LIBCMT:getqloc.obj
 0002:00002c28       ??_C@_06BLJPEOBG@Panama?$AA@ 00417c28     LIBCMT:getqloc.obj
 0002:00002c30       ??_C@_0L@BOCNDGON@Luxembourg?$AA@ 00417c30     LIBCMT:getqloc.obj
 0002:00002c3c       ??_C@_0L@CONEHKA@Costa?5Rica?$AA@ 00417c3c     LIBCMT:getqloc.obj
 0002:00002c48       ??_C@_0M@KGBPELAM@Switzerland?$AA@ 00417c48     LIBCMT:getqloc.obj
 0002:00002c54       ??_C@_09FJGLIMAG@Guatemala?$AA@ 00417c54     LIBCMT:getqloc.obj
 0002:00002c60       ??_C@_06ECHIPDMK@Canada?$AA@ 00417c60     LIBCMT:getqloc.obj
 0002:00002c68       ??_C@_0BG@CCEBNPGH@Spanish?5?9?5Modern?5Sort?$AA@ 00417c68     LIBCMT:getqloc.obj
 0002:00002c80       ??_C@_09EFGJAPAD@Australia?$AA@ 00417c80     LIBCMT:getqloc.obj
 0002:00002c8c       ??_C@_07NEKHPBCG@English?$AA@ 00417c8c     LIBCMT:getqloc.obj
 0002:00002c94       ??_C@_07LKIIOGFH@Austria?$AA@ 00417c94     LIBCMT:getqloc.obj
 0002:00002c9c       ??_C@_06EDDDIONA@German?$AA@ 00417c9c     LIBCMT:getqloc.obj
 0002:00002ca4       ??_C@_07LIIIOFOA@Belgium?$AA@ 00417ca4     LIBCMT:getqloc.obj
 0002:00002cac       ??_C@_06DIAOLLEH@Mexico?$AA@ 00417cac     LIBCMT:getqloc.obj
 0002:00002cb4       ??_C@_07PFALJOGE@Spanish?$AA@ 00417cb4     LIBCMT:getqloc.obj
 0002:00002cbc       ??_C@_06FFOOPAJB@Basque?$AA@ 00417cbc     LIBCMT:getqloc.obj
 0002:00002cc4       ??_C@_06DGHNDJFJ@Sweden?$AA@ 00417cc4     LIBCMT:getqloc.obj
 0002:00002ccc       ??_C@_07OBINPKFN@Swedish?$AA@ 00417ccc     LIBCMT:getqloc.obj
 0002:00002cd4       ??_C@_07NCOIHDGC@Iceland?$AA@ 00417cd4     LIBCMT:getqloc.obj
 0002:00002cdc       ??_C@_09JHBBDDIA@Icelandic?$AA@ 00417cdc     LIBCMT:getqloc.obj
 0002:00002ce8       ??_C@_06COBCPIFO@France?$AA@ 00417ce8     LIBCMT:getqloc.obj
 0002:00002cf0       ??_C@_06GODMCAND@French?$AA@ 00417cf0     LIBCMT:getqloc.obj
 0002:00002cf8       ??_C@_07MFHPMOED@Finland?$AA@ 00417cf8     LIBCMT:getqloc.obj
 0002:00002d00       ??_C@_07MCEAMKOD@Finnish?$AA@ 00417d00     LIBCMT:getqloc.obj
 0002:00002d08       ??_C@_05CBHOCCK@Spain?$AA@ 00417d08     LIBCMT:getqloc.obj
 0002:00002d10       ??_C@_0BL@GIOEGDHB@Spanish?5?9?5Traditional?5Sort?$AA@ 00417d10     LIBCMT:getqloc.obj
 0002:00002d2c       ___rglangidNotDefault      00417d2c     LIBCMT:getqloc.obj
 0002:00002d40       ___rg_country              00417d40     LIBCMT:getqloc.obj
 0002:00002df8       ??_C@_0O@FMJNFNKE@united?9states?$AA@ 00417df8     LIBCMT:getqloc.obj
 0002:00002e08       ??_C@_0P@NDHFFKCA@united?9kingdom?$AA@ 00417e08     LIBCMT:getqloc.obj
 0002:00002e18       ??_C@_0BC@HHDADLGF@trinidad?5?$CG?5tobago?$AA@ 00417e18     LIBCMT:getqloc.obj
 0002:00002e2c       ??_C@_0M@IOAEBDAC@south?9korea?$AA@ 00417e2c     LIBCMT:getqloc.obj
 0002:00002e38       ??_C@_0N@FIELFKIJ@south?9africa?$AA@ 00417e38     LIBCMT:getqloc.obj
 0002:00002e48       ??_C@_0M@OPNDHCMC@south?5korea?$AA@ 00417e48     LIBCMT:getqloc.obj
 0002:00002e54       ??_C@_0N@MDEOEPFI@south?5africa?$AA@ 00417e54     LIBCMT:getqloc.obj
 0002:00002e64       ??_C@_06FKAPCJLB@slovak?$AA@ 00417e64     LIBCMT:getqloc.obj
 0002:00002e6c       ??_C@_0M@EFJANOAL@puerto?9rico?$AA@ 00417e6c     LIBCMT:getqloc.obj
 0002:00002e78       ??_C@_08PGOJKDAI@pr?9china?$AA@ 00417e78     LIBCMT:getqloc.obj
 0002:00002e84       ??_C@_08JHDOMCMI@pr?5china?$AA@ 00417e84     LIBCMT:getqloc.obj
 0002:00002e90       ??_C@_02JHCHFBLL@nz?$AA@   00417e90     LIBCMT:getqloc.obj
 0002:00002e94       ??_C@_0M@LINHDHKP@new?9zealand?$AA@ 00417e94     LIBCMT:getqloc.obj
 0002:00002ea0       ??_C@_09IIIPPBDB@hong?9kong?$AA@ 00417ea0     LIBCMT:getqloc.obj
 0002:00002eac       ??_C@_07HJLCKBG@holland?$AA@ 00417eac     LIBCMT:getqloc.obj
 0002:00002eb4       ??_C@_0O@LEHGMHAG@great?5britain?$AA@ 00417eb4     LIBCMT:getqloc.obj
 0002:00002ec4       ??_C@_07FACOMELA@england?$AA@ 00417ec4     LIBCMT:getqloc.obj
 0002:00002ecc       ??_C@_05JIHCEICB@czech?$AA@ 00417ecc     LIBCMT:getqloc.obj
 0002:00002ed4       ??_C@_05BBJOBLGB@china?$AA@ 00417ed4     LIBCMT:getqloc.obj
 0002:00002edc       ??_C@_07GPKPHICP@britain?$AA@ 00417edc     LIBCMT:getqloc.obj
 0002:00002ee4       ??_C@_07MHIPBHMG@america?$AA@ 00417ee4     LIBCMT:getqloc.obj
 0002:00002ef0       ___rg_language             00417ef0     LIBCMT:getqloc.obj
 0002:000030f8       ??_C@_03KIALPMKC@usa?$AA@  004180f8     LIBCMT:getqloc.obj
 0002:000030fc       ??_C@_02FGJGKGGD@us?$AA@   004180fc     LIBCMT:getqloc.obj
 0002:00003100       ??_C@_02NEINDODK@uk?$AA@   00418100     LIBCMT:getqloc.obj
 0002:00003104       ??_C@_05JMPCFJFJ@swiss?$AA@ 00418104     LIBCMT:getqloc.obj
 0002:0000310c       ??_C@_0BA@HLOCPIOD@swedish?9finland?$AA@ 0041810c     LIBCMT:getqloc.obj
 0002:0000311c       ??_C@_0BC@PKCNIABK@spanish?9venezuela?$AA@ 0041811c     LIBCMT:getqloc.obj
 0002:00003130       ??_C@_0BA@GBHHMIJI@spanish?9uruguay?$AA@ 00418130     LIBCMT:getqloc.obj
 0002:00003140       ??_C@_0BE@BHDOHPMC@spanish?9puerto?5rico?$AA@ 00418140     LIBCMT:getqloc.obj
 0002:00003154       ??_C@_0N@KMOIDGGN@spanish?9peru?$AA@ 00418154     LIBCMT:getqloc.obj
 0002:00003164       ??_C@_0BB@HMHLPGPH@spanish?9paraguay?$AA@ 00418164     LIBCMT:getqloc.obj
 0002:00003178       ??_C@_0P@MCPKNGFD@spanish?9panama?$AA@ 00418178     LIBCMT:getqloc.obj
 0002:00003188       ??_C@_0BC@IHOHGAIL@spanish?9nicaragua?$AA@ 00418188     LIBCMT:getqloc.obj
 0002:0000319c       ??_C@_0P@KLMJDNFJ@spanish?9modern?$AA@ 0041819c     LIBCMT:getqloc.obj
 0002:000031ac       ??_C@_0BA@BPAPGBCM@spanish?9mexican?$AA@ 004181ac     LIBCMT:getqloc.obj
 0002:000031bc       ??_C@_0BB@PDECHHHE@spanish?9honduras?$AA@ 004181bc     LIBCMT:getqloc.obj
 0002:000031d0       ??_C@_0BC@KLHKFGDB@spanish?9guatemala?$AA@ 004181d0     LIBCMT:getqloc.obj
 0002:000031e4       ??_C@_0BE@MFOOKJAI@spanish?9el?5salvador?$AA@ 004181e4     LIBCMT:getqloc.obj
 0002:000031f8       ??_C@_0BA@FCOKFPFC@spanish?9ecuador?$AA@ 004181f8     LIBCMT:getqloc.obj
 0002:00003208       ??_C@_0BL@PLMGIMOO@spanish?9dominican?5republic?$AA@ 00418208     LIBCMT:getqloc.obj
 0002:00003224       ??_C@_0BD@HLGDNMHB@spanish?9costa?5rica?$AA@ 00418224     LIBCMT:getqloc.obj
 0002:00003238       ??_C@_0BB@PKCBKCPE@spanish?9colombia?$AA@ 00418238     LIBCMT:getqloc.obj
 0002:0000324c       ??_C@_0O@MCBIJGNE@spanish?9chile?$AA@ 0041824c     LIBCMT:getqloc.obj
 0002:0000325c       ??_C@_0BA@BEFEIGJJ@spanish?9bolivia?$AA@ 0041825c     LIBCMT:getqloc.obj
 0002:0000326c       ??_C@_0BC@EMECMPD@spanish?9argentina?$AA@ 0041826c     LIBCMT:getqloc.obj
 0002:00003280       ??_C@_0BF@EALFLENP@portuguese?9brazilian?$AA@ 00418280     LIBCMT:getqloc.obj
 0002:00003298       ??_C@_0BC@HBLEBLNN@norwegian?9nynorsk?$AA@ 00418298     LIBCMT:getqloc.obj
 0002:000032ac       ??_C@_0BB@HMACDDCK@norwegian?9bokmal?$AA@ 004182ac     LIBCMT:getqloc.obj
 0002:000032c0       ??_C@_09BAFFPPHE@norwegian?$AA@ 004182c0     LIBCMT:getqloc.obj
 0002:000032cc       ??_C@_0O@EAJFJDFG@italian?9swiss?$AA@ 004182cc     LIBCMT:getqloc.obj
 0002:000032dc       ??_C@_0O@CNOMPGD@irish?9english?$AA@ 004182dc     LIBCMT:getqloc.obj
 0002:000032ec       ??_C@_0N@EDHBGCKG@german?9swiss?$AA@ 004182ec     LIBCMT:getqloc.obj
 0002:000032fc       ??_C@_0BC@JACMHNBP@german?9luxembourg?$AA@ 004182fc     LIBCMT:getqloc.obj
 0002:00003310       ??_C@_0BE@HBGMGFEG@german?9lichtenstein?$AA@ 00418310     LIBCMT:getqloc.obj
 0002:00003324       ??_C@_0BA@HKKBIBKL@german?9austrian?$AA@ 00418324     LIBCMT:getqloc.obj
 0002:00003334       ??_C@_0N@GCAEPEBK@french?9swiss?$AA@ 00418334     LIBCMT:getqloc.obj
 0002:00003344       ??_C@_0BC@DJFJJCK@french?9luxembourg?$AA@ 00418344     LIBCMT:getqloc.obj
 0002:00003358       ??_C@_0BA@NNCEDFIC@french?9canadian?$AA@ 00418358     LIBCMT:getqloc.obj
 0002:00003368       ??_C@_0P@CMPOCLM@french?9belgian?$AA@ 00418368     LIBCMT:getqloc.obj
 0002:00003378       ??_C@_0M@GHHDJOK@english?9usa?$AA@ 00418378     LIBCMT:getqloc.obj
 0002:00003384       ??_C@_0L@PLDJKEIL@english?9us?$AA@ 00418384     LIBCMT:getqloc.obj
 0002:00003390       ??_C@_0L@HJCCDMNC@english?9uk?$AA@ 00418390     LIBCMT:getqloc.obj
 0002:0000339c       ??_C@_0BK@CKLIAGJB@english?9trinidad?5y?5tobago?$AA@ 0041839c     LIBCMT:getqloc.obj
 0002:000033b8       ??_C@_0BF@JMJMGNNF@english?9south?5africa?$AA@ 004183b8     LIBCMT:getqloc.obj
 0002:000033d0       ??_C@_0L@DKIIFDFD@english?9nz?$AA@ 004183d0     LIBCMT:getqloc.obj
 0002:000033dc       ??_C@_0BA@ONHGJCLH@english?9jamaica?$AA@ 004183dc     LIBCMT:getqloc.obj
 0002:000033ec       ??_C@_0M@HJBGHOPO@english?9ire?$AA@ 004183ec     LIBCMT:getqloc.obj
 0002:000033f8       ??_C@_0BC@LFEKMIFB@english?9caribbean?$AA@ 004183f8     LIBCMT:getqloc.obj
 0002:0000340c       ??_C@_0M@OLDPFKHI@english?9can?$AA@ 0041840c     LIBCMT:getqloc.obj
 0002:00003418       ??_C@_0P@OMDEHBMP@english?9belize?$AA@ 00418418     LIBCMT:getqloc.obj
 0002:00003428       ??_C@_0M@KFHFPFED@english?9aus?$AA@ 00418428     LIBCMT:getqloc.obj
 0002:00003434       ??_C@_0BB@MNMBKDFE@english?9american?$AA@ 00418434     LIBCMT:getqloc.obj
 0002:00003448       ??_C@_0O@KIDLNNBA@dutch?9belgian?$AA@ 00418448     LIBCMT:getqloc.obj
 0002:00003458       ??_C@_0BE@JBKABBMH@chinese?9traditional?$AA@ 00418458     LIBCMT:getqloc.obj
 0002:0000346c       ??_C@_0BC@MJJMPKCG@chinese?9singapore?$AA@ 0041846c     LIBCMT:getqloc.obj
 0002:00003480       ??_C@_0BD@FDKADDCP@chinese?9simplified?$AA@ 00418480     LIBCMT:getqloc.obj
 0002:00003494       ??_C@_0BB@DBEFDDME@chinese?9hongkong?$AA@ 00418494     LIBCMT:getqloc.obj
 0002:000034a8       ??_C@_07DHNMFMCI@chinese?$AA@ 004184a8     LIBCMT:getqloc.obj
 0002:000034b0       ??_C@_03FNDDCHI@chi?$AA@   004184b0     LIBCMT:getqloc.obj
 0002:000034b4       ??_C@_03BMMIADDJ@chh?$AA@  004184b4     LIBCMT:getqloc.obj
 0002:000034b8       ??_C@_08OAIPJDGI@canadian?$AA@ 004184b8     LIBCMT:getqloc.obj
 0002:000034c4       ??_C@_07HBPMNPNJ@belgian?$AA@ 004184c4     LIBCMT:getqloc.obj
 0002:000034cc       ??_C@_0L@OEKOPBEL@australian?$AA@ 004184cc     LIBCMT:getqloc.obj
 0002:000034d8       ??_C@_0BB@MEIMBEDG@american?9english?$AA@ 004184d8     LIBCMT:getqloc.obj
 0002:000034ec       ??_C@_0BB@DFMDPDGB@american?5english?$AA@ 004184ec     LIBCMT:getqloc.obj
 0002:00003500       ??_C@_08IJLOKOLL@american?$AA@ 00418500     LIBCMT:getqloc.obj
 0002:0000350c       ??_C@_03NFKLAGEF@OCP?$AA@  0041850c     LIBCMT:getqloc.obj
 0002:00003510       ??_C@_03DFHEHBHG@ACP?$AA@  00418510     LIBCMT:getqloc.obj
 0002:00003514       ??_C@_0BC@NFIEMBLL@Norwegian?9Nynorsk?$AA@ 00418514     LIBCMT:getqloc.obj
 0002:00003544       ??_C@_0CG@PKBDLMEO@InitializeCriticalSectionAndSpin@ 00418544     LIBCMT:initcrit.obj
 0002:0000359c       ??_C@_0BI@DFKBFLJE@GetProcessWindowStation?$AA@ 0041859c     LIBCMT:crtmbox.obj
 0002:000035b4       ??_C@_0BK@CIDNPOGP@GetUserObjectInformationA?$AA@ 004185b4     LIBCMT:crtmbox.obj
 0002:000035d0       ??_C@_0BD@HHGDFDBJ@GetLastActivePopup?$AA@ 004185d0     LIBCMT:crtmbox.obj
 0002:000035e4       ??_C@_0BA@HNOPNCHB@GetActiveWindow?$AA@ 004185e4     LIBCMT:crtmbox.obj
 0002:000035f4       ??_C@_0M@CHKKJDAI@MessageBoxA?$AA@ 004185f4     LIBCMT:crtmbox.obj
 0002:00003600       ??_C@_0L@GMPLCCII@user32?4dll?$AA@ 00418600     LIBCMT:crtmbox.obj
 0002:00003664       ___dnames                  00418664     LIBCMT:timeset.obj
 0002:0000367c       ___mnames                  0041867c     LIBCMT:timeset.obj
 0002:000036a4       ??_C@_02CLFPBFFP@TZ?$AA@   004186a4     LIBCMT:tzset.obj
 0002:00003730       __load_config_used         00418730     LIBCMT:loadcfg.obj
 0002:000037e0       ??_R4?$CFB_RequireFullDataBlocks@V?$CFB_EncryptionTemplate@V?$AbstractPolicyHolder@VCFB_CipherAbstractPolicy@CryptoPP@@VCFB_ModePolicy@2@@CryptoPP@@@CryptoPP@@@CryptoPP@@6B@ 004187e0     dlltest.obj
 0002:000037f4       ??_R4?$CFB_RequireFullDataBlocks@V?$CFB_EncryptionTemplate@V?$AbstractPolicyHolder@VCFB_CipherAbstractPolicy@CryptoPP@@VCFB_ModePolicy@2@@CryptoPP@@@CryptoPP@@@CryptoPP@@6BStreamTransformation@1@@ 004187f4     dlltest.obj
 0002:00003808       ??_R1BI@?0A@A@CFB_CipherAbstractPolicy@CryptoPP@@8 00418808     dlltest.obj
 0002:00003820       ??_R13?0A@A@Clonable@CryptoPP@@8 00418820     dlltest.obj
 0002:00003838       ??_R13?0A@A@Algorithm@CryptoPP@@8 00418838     dlltest.obj
 0002:00003850       ??_R13?0A@A@StreamTransformation@CryptoPP@@8 00418850     dlltest.obj
 0002:00003868       ??_R1A@?0A@A@SimpleKeyingInterface@CryptoPP@@8 00418868     dlltest.obj
 0002:00003880       ??_R1A@?0A@A@SymmetricCipher@CryptoPP@@8 00418880     dlltest.obj
 0002:00003898       ??_R1A@?0A@A@CipherModeBase@CryptoPP@@8 00418898     dlltest.obj
 0002:000038b0       ??_R1A@?0A@A@?$ModePolicyCommonTemplate@VCFB_CipherAbstractPolicy@CryptoPP@@@CryptoPP@@8 004188b0     dlltest.obj
 0002:000038c8       ??_R1A@?0A@A@CFB_ModePolicy@CryptoPP@@8 004188c8     dlltest.obj
 0002:000038e0       ??_R1A@?0A@A@?$AbstractPolicyHolder@VCFB_CipherAbstractPolicy@CryptoPP@@VCFB_ModePolicy@2@@CryptoPP@@8 004188e0     dlltest.obj
 0002:000038f8       ??_R1A@?0A@A@?$CFB_CipherTemplate@V?$AbstractPolicyHolder@VCFB_CipherAbstractPolicy@CryptoPP@@VCFB_ModePolicy@2@@CryptoPP@@@CryptoPP@@8 004188f8     dlltest.obj
 0002:00003910       ??_R1A@?0A@A@?$CFB_EncryptionTemplate@V?$AbstractPolicyHolder@VCFB_CipherAbstractPolicy@CryptoPP@@VCFB_ModePolicy@2@@CryptoPP@@@CryptoPP@@8 00418910     dlltest.obj
 0002:00003928       ??_R1A@?0A@A@?$CFB_RequireFullDataBlocks@V?$CFB_EncryptionTemplate@V?$AbstractPolicyHolder@VCFB_CipherAbstractPolicy@CryptoPP@@VCFB_ModePolicy@2@@CryptoPP@@@CryptoPP@@@CryptoPP@@8 00418928     dlltest.obj
 0002:00003940       ??_R2?$CFB_RequireFullDataBlocks@V?$CFB_EncryptionTemplate@V?$AbstractPolicyHolder@VCFB_CipherAbstractPolicy@CryptoPP@@VCFB_ModePolicy@2@@CryptoPP@@@CryptoPP@@@CryptoPP@@8 00418940     dlltest.obj
 0002:00003978       ??_R3?$CFB_RequireFullDataBlocks@V?$CFB_EncryptionTemplate@V?$AbstractPolicyHolder@VCFB_CipherAbstractPolicy@CryptoPP@@VCFB_ModePolicy@2@@CryptoPP@@@CryptoPP@@@CryptoPP@@8 00418978     dlltest.obj
 0002:00003988       ??_R4?$CFB_RequireFullDataBlocks@V?$CFB_EncryptionTemplate@V?$AbstractPolicyHolder@VCFB_CipherAbstractPolicy@CryptoPP@@VCFB_ModePolicy@2@@CryptoPP@@@CryptoPP@@@CryptoPP@@6BSimpleKeyingInterface@1@@ 00418988     dlltest.obj
 0002:0000399c       ??_R4?$CFB_RequireFullDataBlocks@V?$CFB_DecryptionTemplate@V?$AbstractPolicyHolder@VCFB_CipherAbstractPolicy@CryptoPP@@VCFB_ModePolicy@2@@CryptoPP@@@CryptoPP@@@CryptoPP@@6B@ 0041899c     dlltest.obj
 0002:000039b0       ??_R4?$CFB_RequireFullDataBlocks@V?$CFB_DecryptionTemplate@V?$AbstractPolicyHolder@VCFB_CipherAbstractPolicy@CryptoPP@@VCFB_ModePolicy@2@@CryptoPP@@@CryptoPP@@@CryptoPP@@6BStreamTransformation@1@@ 004189b0     dlltest.obj
 0002:000039c4       ??_R1A@?0A@A@?$CFB_DecryptionTemplate@V?$AbstractPolicyHolder@VCFB_CipherAbstractPolicy@CryptoPP@@VCFB_ModePolicy@2@@CryptoPP@@@CryptoPP@@8 004189c4     dlltest.obj
 0002:000039dc       ??_R1A@?0A@A@?$CFB_RequireFullDataBlocks@V?$CFB_DecryptionTemplate@V?$AbstractPolicyHolder@VCFB_CipherAbstractPolicy@CryptoPP@@VCFB_ModePolicy@2@@CryptoPP@@@CryptoPP@@@CryptoPP@@8 004189dc     dlltest.obj
 0002:000039f4       ??_R2?$CFB_RequireFullDataBlocks@V?$CFB_DecryptionTemplate@V?$AbstractPolicyHolder@VCFB_CipherAbstractPolicy@CryptoPP@@VCFB_ModePolicy@2@@CryptoPP@@@CryptoPP@@@CryptoPP@@8 004189f4     dlltest.obj
 0002:00003a2c       ??_R3?$CFB_RequireFullDataBlocks@V?$CFB_DecryptionTemplate@V?$AbstractPolicyHolder@VCFB_CipherAbstractPolicy@CryptoPP@@VCFB_ModePolicy@2@@CryptoPP@@@CryptoPP@@@CryptoPP@@8 00418a2c     dlltest.obj
 0002:00003a3c       ??_R4?$CFB_RequireFullDataBlocks@V?$CFB_DecryptionTemplate@V?$AbstractPolicyHolder@VCFB_CipherAbstractPolicy@CryptoPP@@VCFB_ModePolicy@2@@CryptoPP@@@CryptoPP@@@CryptoPP@@6BSimpleKeyingInterface@1@@ 00418a3c     dlltest.obj
 0002:00003a50       ??_R4?$BlockCipherFinal@$0A@VEnc@Rijndael@CryptoPP@@@CryptoPP@@6BBlockTransformation@1@@ 00418a50     dlltest.obj
 0002:00003a64       ??_R1N@?0A@A@?$VariableKeyLength@$0BA@$0BA@$0CA@$07$03$0A@@CryptoPP@@8 00418a64     dlltest.obj
 0002:00003a7c       ??_R1M@?0A@A@?$FixedBlockSize@$0BA@@CryptoPP@@8 00418a7c     dlltest.obj
 0002:00003a94       ??_R1M@?0A@A@Rijndael_Info@CryptoPP@@8 00418a94     dlltest.obj
 0002:00003aac       ??_R13?0A@A@BlockTransformation@CryptoPP@@8 00418aac     dlltest.obj
 0002:00003ac4       ??_R1A@?0A@A@BlockCipher@CryptoPP@@8 00418ac4     dlltest.obj
 0002:00003adc       ??_R1A@?0A@A@?$TwoBases@VBlockCipher@CryptoPP@@URijndael_Info@2@@CryptoPP@@8 00418adc     dlltest.obj
 0002:00003af4       ??_R1A@?0A@A@?$SimpleKeyingInterfaceImpl@V?$TwoBases@VBlockCipher@CryptoPP@@URijndael_Info@2@@CryptoPP@@V12@@CryptoPP@@8 00418af4     dlltest.obj
 0002:00003b0c       ??_R1A@?0A@A@?$AlgorithmImpl@V?$SimpleKeyingInterfaceImpl@V?$TwoBases@VBlockCipher@CryptoPP@@URijndael_Info@2@@CryptoPP@@V12@@CryptoPP@@V12@@CryptoPP@@8 00418b0c     dlltest.obj
 0002:00003b24       ??_R1A@?0A@A@?$BlockCipherImpl@URijndael_Info@CryptoPP@@VBlockCipher@2@@CryptoPP@@8 00418b24     dlltest.obj
 0002:00003b3c       ??_R1A@?0A@A@Base@Rijndael@CryptoPP@@8 00418b3c     dlltest.obj
 0002:00003b54       ??_R1A@?0A@A@Enc@Rijndael@CryptoPP@@8 00418b54     dlltest.obj
 0002:00003b6c       ??_R1A@?0A@A@?$ClonableImpl@V?$BlockCipherFinal@$0A@VEnc@Rijndael@CryptoPP@@@CryptoPP@@VEnc@Rijndael@2@@CryptoPP@@8 00418b6c     dlltest.obj
 0002:00003b84       ??_R1A@?0A@A@?$BlockCipherFinal@$0A@VEnc@Rijndael@CryptoPP@@@CryptoPP@@8 00418b84     dlltest.obj
 0002:00003ba0       ??_R2?$BlockCipherFinal@$0A@VEnc@Rijndael@CryptoPP@@@CryptoPP@@8 00418ba0     dlltest.obj
 0002:00003be4       ??_R3?$BlockCipherFinal@$0A@VEnc@Rijndael@CryptoPP@@@CryptoPP@@8 00418be4     dlltest.obj
 0002:00003bf4       ??_R4?$BlockCipherFinal@$0A@VEnc@Rijndael@CryptoPP@@@CryptoPP@@6BSimpleKeyingInterface@1@@ 00418bf4     dlltest.obj
 0002:00003c08       ??_R4?$ConcretePolicyHolder@VEmpty@CryptoPP@@V?$CFB_RequireFullDataBlocks@V?$CFB_EncryptionTemplate@V?$AbstractPolicyHolder@VCFB_CipherAbstractPolicy@CryptoPP@@VCFB_ModePolicy@2@@CryptoPP@@@CryptoPP@@@2@VCFB_CipherAbstractPolicy@2@@CryptoPP@@6B@ 00418c08     dlltest.obj
 0002:00003c1c       ??_R4?$ConcretePolicyHolder@VEmpty@CryptoPP@@V?$CFB_RequireFullDataBlocks@V?$CFB_EncryptionTemplate@V?$AbstractPolicyHolder@VCFB_CipherAbstractPolicy@CryptoPP@@VCFB_ModePolicy@2@@CryptoPP@@@CryptoPP@@@2@VCFB_CipherAbstractPolicy@2@@CryptoPP@@6BStreamTransformation@1@@ 00418c1c     dlltest.obj
 0002:00003c30       ??_R1DB@?0A@8Empty@CryptoPP@@8 00418c30     dlltest.obj
 0002:00003c48       ??_R1A@?0A@A@?$ConcretePolicyHolder@VEmpty@CryptoPP@@V?$CFB_RequireFullDataBlocks@V?$CFB_EncryptionTemplate@V?$AbstractPolicyHolder@VCFB_CipherAbstractPolicy@CryptoPP@@VCFB_ModePolicy@2@@CryptoPP@@@CryptoPP@@@2@VCFB_CipherAbstractPolicy@2@@CryptoPP@@8 00418c48     dlltest.obj
 0002:00003c60       ??_R2?$ConcretePolicyHolder@VEmpty@CryptoPP@@V?$CFB_RequireFullDataBlocks@V?$CFB_EncryptionTemplate@V?$AbstractPolicyHolder@VCFB_CipherAbstractPolicy@CryptoPP@@VCFB_ModePolicy@2@@CryptoPP@@@CryptoPP@@@2@VCFB_CipherAbstractPolicy@2@@CryptoPP@@8 00418c60     dlltest.obj
 0002:00003ca0       ??_R3?$ConcretePolicyHolder@VEmpty@CryptoPP@@V?$CFB_RequireFullDataBlocks@V?$CFB_EncryptionTemplate@V?$AbstractPolicyHolder@VCFB_CipherAbstractPolicy@CryptoPP@@VCFB_ModePolicy@2@@CryptoPP@@@CryptoPP@@@2@VCFB_CipherAbstractPolicy@2@@CryptoPP@@8 00418ca0     dlltest.obj
 0002:00003cb0       ??_R4?$ConcretePolicyHolder@VEmpty@CryptoPP@@V?$CFB_RequireFullDataBlocks@V?$CFB_EncryptionTemplate@V?$AbstractPolicyHolder@VCFB_CipherAbstractPolicy@CryptoPP@@VCFB_ModePolicy@2@@CryptoPP@@@CryptoPP@@@2@VCFB_CipherAbstractPolicy@2@@CryptoPP@@6BSimpleKeyingInterface@1@@ 00418cb0     dlltest.obj
 0002:00003cc4       ??_R4?$ConcretePolicyHolder@VEmpty@CryptoPP@@V?$CFB_RequireFullDataBlocks@V?$CFB_DecryptionTemplate@V?$AbstractPolicyHolder@VCFB_CipherAbstractPolicy@CryptoPP@@VCFB_ModePolicy@2@@CryptoPP@@@CryptoPP@@@2@VCFB_CipherAbstractPolicy@2@@CryptoPP@@6B@ 00418cc4     dlltest.obj
 0002:00003cd8       ??_R4?$ConcretePolicyHolder@VEmpty@CryptoPP@@V?$CFB_RequireFullDataBlocks@V?$CFB_DecryptionTemplate@V?$AbstractPolicyHolder@VCFB_CipherAbstractPolicy@CryptoPP@@VCFB_ModePolicy@2@@CryptoPP@@@CryptoPP@@@2@VCFB_CipherAbstractPolicy@2@@CryptoPP@@6BStreamTransformation@1@@ 00418cd8     dlltest.obj
 0002:00003cec       ??_R1A@?0A@A@?$ConcretePolicyHolder@VEmpty@CryptoPP@@V?$CFB_RequireFullDataBlocks@V?$CFB_DecryptionTemplate@V?$AbstractPolicyHolder@VCFB_CipherAbstractPolicy@CryptoPP@@VCFB_ModePolicy@2@@CryptoPP@@@CryptoPP@@@2@VCFB_CipherAbstractPolicy@2@@CryptoPP@@8 00418cec     dlltest.obj
 0002:00003d04       ??_R2?$ConcretePolicyHolder@VEmpty@CryptoPP@@V?$CFB_RequireFullDataBlocks@V?$CFB_DecryptionTemplate@V?$AbstractPolicyHolder@VCFB_CipherAbstractPolicy@CryptoPP@@VCFB_ModePolicy@2@@CryptoPP@@@CryptoPP@@@2@VCFB_CipherAbstractPolicy@2@@CryptoPP@@8 00418d04     dlltest.obj
 0002:00003d44       ??_R3?$ConcretePolicyHolder@VEmpty@CryptoPP@@V?$CFB_RequireFullDataBlocks@V?$CFB_DecryptionTemplate@V?$AbstractPolicyHolder@VCFB_CipherAbstractPolicy@CryptoPP@@VCFB_ModePolicy@2@@CryptoPP@@@CryptoPP@@@2@VCFB_CipherAbstractPolicy@2@@CryptoPP@@8 00418d44     dlltest.obj
 0002:00003d54       ??_R4?$ConcretePolicyHolder@VEmpty@CryptoPP@@V?$CFB_RequireFullDataBlocks@V?$CFB_DecryptionTemplate@V?$AbstractPolicyHolder@VCFB_CipherAbstractPolicy@CryptoPP@@VCFB_ModePolicy@2@@CryptoPP@@@CryptoPP@@@2@VCFB_CipherAbstractPolicy@2@@CryptoPP@@6BSimpleKeyingInterface@1@@ 00418d54     dlltest.obj
 0002:00003d68       ??_R4?$BlockCipherFinal@$0A@VBase@DES_EDE3@CryptoPP@@@CryptoPP@@6BBlockTransformation@1@@ 00418d68     dlltest.obj
 0002:00003d7c       ??_R1N@?0A@A@?$FixedKeyLength@$0BI@$03$0A@@CryptoPP@@8 00418d7c     dlltest.obj
 0002:00003d94       ??_R1M@?0A@A@?$FixedBlockSize@$07@CryptoPP@@8 00418d94     dlltest.obj
 0002:00003dac       ??_R1M@?0A@A@DES_EDE3_Info@CryptoPP@@8 00418dac     dlltest.obj
 0002:00003dc4       ??_R1A@?0A@A@?$TwoBases@VBlockCipher@CryptoPP@@UDES_EDE3_Info@2@@CryptoPP@@8 00418dc4     dlltest.obj
 0002:00003ddc       ??_R1A@?0A@A@?$SimpleKeyingInterfaceImpl@V?$TwoBases@VBlockCipher@CryptoPP@@UDES_EDE3_Info@2@@CryptoPP@@V12@@CryptoPP@@8 00418ddc     dlltest.obj
 0002:00003df4       ??_R1A@?0A@A@?$AlgorithmImpl@V?$SimpleKeyingInterfaceImpl@V?$TwoBases@VBlockCipher@CryptoPP@@UDES_EDE3_Info@2@@CryptoPP@@V12@@CryptoPP@@V12@@CryptoPP@@8 00418df4     dlltest.obj
 0002:00003e0c       ??_R1A@?0A@A@?$BlockCipherImpl@UDES_EDE3_Info@CryptoPP@@VBlockCipher@2@@CryptoPP@@8 00418e0c     dlltest.obj
 0002:00003e24       ??_R1A@?0A@A@Base@DES_EDE3@CryptoPP@@8 00418e24     dlltest.obj
 0002:00003e3c       ??_R1A@?0A@A@?$ClonableImpl@V?$BlockCipherFinal@$0A@VBase@DES_EDE3@CryptoPP@@@CryptoPP@@VBase@DES_EDE3@2@@CryptoPP@@8 00418e3c     dlltest.obj
 0002:00003e54       ??_R1A@?0A@A@?$BlockCipherFinal@$0A@VBase@DES_EDE3@CryptoPP@@@CryptoPP@@8 00418e54     dlltest.obj
 0002:00003e6c       ??_R2?$BlockCipherFinal@$0A@VBase@DES_EDE3@CryptoPP@@@CryptoPP@@8 00418e6c     dlltest.obj
 0002:00003eac       ??_R3?$BlockCipherFinal@$0A@VBase@DES_EDE3@CryptoPP@@@CryptoPP@@8 00418eac     dlltest.obj
 0002:00003ebc       ??_R4?$BlockCipherFinal@$0A@VBase@DES_EDE3@CryptoPP@@@CryptoPP@@6BSimpleKeyingInterface@1@@ 00418ebc     dlltest.obj
 0002:00003ed0       ??_R1A@?0A@A@AlgorithmParametersBase@CryptoPP@@8 00418ed0     dlltest.obj
 0002:00003ee8       ??_R1A@?0A@A@?$AlgorithmParametersTemplate@VConstByteArrayParameter@CryptoPP@@@CryptoPP@@8 00418ee8     dlltest.obj
 0002:00003f00       ??_R2?$AlgorithmParametersTemplate@VConstByteArrayParameter@CryptoPP@@@CryptoPP@@8 00418f00     dlltest.obj
 0002:00003f0c       ??_R3?$AlgorithmParametersTemplate@VConstByteArrayParameter@CryptoPP@@@CryptoPP@@8 00418f0c     dlltest.obj
 0002:00003f1c       ??_R4?$AlgorithmParametersTemplate@VConstByteArrayParameter@CryptoPP@@@CryptoPP@@6B@ 00418f1c     dlltest.obj
 0002:00003f30       ??_R4?$CipherModeFinalTemplate_CipherHolder@V?$BlockCipherFinal@$0A@VBase@DES_EDE3@CryptoPP@@@CryptoPP@@V?$ConcretePolicyHolder@VEmpty@CryptoPP@@V?$CFB_RequireFullDataBlocks@V?$CFB_EncryptionTemplate@V?$AbstractPolicyHolder@VCFB_CipherAbstractPolicy@CryptoPP@@VCFB_ModePolicy@2@@CryptoPP@@@CryptoPP@@@2@VCFB_CipherAbstractPolicy@2@@2@@CryptoPP@@6B@ 00418f30     dlltest.obj
 0002:00003f44       ??_R4?$CipherModeFinalTemplate_CipherHolder@V?$BlockCipherFinal@$0A@VBase@DES_EDE3@CryptoPP@@@CryptoPP@@V?$ConcretePolicyHolder@VEmpty@CryptoPP@@V?$CFB_RequireFullDataBlocks@V?$CFB_EncryptionTemplate@V?$AbstractPolicyHolder@VCFB_CipherAbstractPolicy@CryptoPP@@VCFB_ModePolicy@2@@CryptoPP@@@CryptoPP@@@2@VCFB_CipherAbstractPolicy@2@@2@@CryptoPP@@6BStreamTransformation@1@@ 00418f44     dlltest.obj
 0002:00003f58       ??_R1A@?0A@A@?$AlgorithmImpl@V?$ConcretePolicyHolder@VEmpty@CryptoPP@@V?$CFB_RequireFullDataBlocks@V?$CFB_EncryptionTemplate@V?$AbstractPolicyHolder@VCFB_CipherAbstractPolicy@CryptoPP@@VCFB_ModePolicy@2@@CryptoPP@@@CryptoPP@@@2@VCFB_CipherAbstractPolicy@2@@CryptoPP@@V?$CipherModeFinalTemplate_CipherHolder@V?$BlockCipherFinal@$0A@VBase@DES_EDE3@CryptoPP@@@CryptoPP@@V?$ConcretePolicyHolder@VEmpty@CryptoPP@@V?$CFB_RequireFullDataBlocks@V?$CFB_EncryptionTemplate@V?$AbstractPolicyHolder@VCFB_CipherAbstractPolicy@CryptoPP@@VCFB_ModePolicy@2@@CryptoPP@@@CryptoPP@@@2@VCFB_CipherAbstractPolicy@2@@2@@2@@CryptoPP@@8 00418f58     dlltest.obj
 0002:00003f70       ??_R1DI@?0A@8?$ObjectHolder@V?$BlockCipherFinal@$0A@VBase@DES_EDE3@CryptoPP@@@CryptoPP@@@CryptoPP@@8 00418f70     dlltest.obj
 0002:00003f88       ??_R1A@?0A@A@?$CipherModeFinalTemplate_CipherHolder@V?$BlockCipherFinal@$0A@VBase@DES_EDE3@CryptoPP@@@CryptoPP@@V?$ConcretePolicyHolder@VEmpty@CryptoPP@@V?$CFB_RequireFullDataBlocks@V?$CFB_EncryptionTemplate@V?$AbstractPolicyHolder@VCFB_CipherAbstractPolicy@CryptoPP@@VCFB_ModePolicy@2@@CryptoPP@@@CryptoPP@@@2@VCFB_CipherAbstractPolicy@2@@2@@CryptoPP@@8 00418f88     dlltest.obj
 0002:00003fa0       ??_R2?$CipherModeFinalTemplate_CipherHolder@V?$BlockCipherFinal@$0A@VBase@DES_EDE3@CryptoPP@@@CryptoPP@@V?$ConcretePolicyHolder@VEmpty@CryptoPP@@V?$CFB_RequireFullDataBlocks@V?$CFB_EncryptionTemplate@V?$AbstractPolicyHolder@VCFB_CipherAbstractPolicy@CryptoPP@@VCFB_ModePolicy@2@@CryptoPP@@@CryptoPP@@@2@VCFB_CipherAbstractPolicy@2@@2@@CryptoPP@@8 00418fa0     dlltest.obj
 0002:00003fec       ??_R3?$CipherModeFinalTemplate_CipherHolder@V?$BlockCipherFinal@$0A@VBase@DES_EDE3@CryptoPP@@@CryptoPP@@V?$ConcretePolicyHolder@VEmpty@CryptoPP@@V?$CFB_RequireFullDataBlocks@V?$CFB_EncryptionTemplate@V?$AbstractPolicyHolder@VCFB_CipherAbstractPolicy@CryptoPP@@VCFB_ModePolicy@2@@CryptoPP@@@CryptoPP@@@2@VCFB_CipherAbstractPolicy@2@@2@@CryptoPP@@8 00418fec     dlltest.obj
 0002:00003ffc       ??_R4?$CipherModeFinalTemplate_CipherHolder@V?$BlockCipherFinal@$0A@VBase@DES_EDE3@CryptoPP@@@CryptoPP@@V?$ConcretePolicyHolder@VEmpty@CryptoPP@@V?$CFB_RequireFullDataBlocks@V?$CFB_EncryptionTemplate@V?$AbstractPolicyHolder@VCFB_CipherAbstractPolicy@CryptoPP@@VCFB_ModePolicy@2@@CryptoPP@@@CryptoPP@@@2@VCFB_CipherAbstractPolicy@2@@2@@CryptoPP@@6BSimpleKeyingInterface@1@@ 00418ffc     dlltest.obj
 0002:00004010       ??_R4?$CipherModeFinalTemplate_CipherHolder@V?$BlockCipherFinal@$0A@VBase@DES_EDE3@CryptoPP@@@CryptoPP@@V?$ConcretePolicyHolder@VEmpty@CryptoPP@@V?$CFB_RequireFullDataBlocks@V?$CFB_DecryptionTemplate@V?$AbstractPolicyHolder@VCFB_CipherAbstractPolicy@CryptoPP@@VCFB_ModePolicy@2@@CryptoPP@@@CryptoPP@@@2@VCFB_CipherAbstractPolicy@2@@2@@CryptoPP@@6B@ 00419010     dlltest.obj
 0002:00004024       ??_R4?$CipherModeFinalTemplate_CipherHolder@V?$BlockCipherFinal@$0A@VBase@DES_EDE3@CryptoPP@@@CryptoPP@@V?$ConcretePolicyHolder@VEmpty@CryptoPP@@V?$CFB_RequireFullDataBlocks@V?$CFB_DecryptionTemplate@V?$AbstractPolicyHolder@VCFB_CipherAbstractPolicy@CryptoPP@@VCFB_ModePolicy@2@@CryptoPP@@@CryptoPP@@@2@VCFB_CipherAbstractPolicy@2@@2@@CryptoPP@@6BStreamTransformation@1@@ 00419024     dlltest.obj
 0002:00004038       ??_R1A@?0A@A@?$AlgorithmImpl@V?$ConcretePolicyHolder@VEmpty@CryptoPP@@V?$CFB_RequireFullDataBlocks@V?$CFB_DecryptionTemplate@V?$AbstractPolicyHolder@VCFB_CipherAbstractPolicy@CryptoPP@@VCFB_ModePolicy@2@@CryptoPP@@@CryptoPP@@@2@VCFB_CipherAbstractPolicy@2@@CryptoPP@@V?$CipherModeFinalTemplate_CipherHolder@V?$BlockCipherFinal@$0A@VBase@DES_EDE3@CryptoPP@@@CryptoPP@@V?$ConcretePolicyHolder@VEmpty@CryptoPP@@V?$CFB_RequireFullDataBlocks@V?$CFB_DecryptionTemplate@V?$AbstractPolicyHolder@VCFB_CipherAbstractPolicy@CryptoPP@@VCFB_ModePolicy@2@@CryptoPP@@@CryptoPP@@@2@VCFB_CipherAbstractPolicy@2@@2@@2@@CryptoPP@@8 00419038     dlltest.obj
 0002:00004050       ??_R1A@?0A@A@?$CipherModeFinalTemplate_CipherHolder@V?$BlockCipherFinal@$0A@VBase@DES_EDE3@CryptoPP@@@CryptoPP@@V?$ConcretePolicyHolder@VEmpty@CryptoPP@@V?$CFB_RequireFullDataBlocks@V?$CFB_DecryptionTemplate@V?$AbstractPolicyHolder@VCFB_CipherAbstractPolicy@CryptoPP@@VCFB_ModePolicy@2@@CryptoPP@@@CryptoPP@@@2@VCFB_CipherAbstractPolicy@2@@2@@CryptoPP@@8 00419050     dlltest.obj
 0002:00004068       ??_R2?$CipherModeFinalTemplate_CipherHolder@V?$BlockCipherFinal@$0A@VBase@DES_EDE3@CryptoPP@@@CryptoPP@@V?$ConcretePolicyHolder@VEmpty@CryptoPP@@V?$CFB_RequireFullDataBlocks@V?$CFB_DecryptionTemplate@V?$AbstractPolicyHolder@VCFB_CipherAbstractPolicy@CryptoPP@@VCFB_ModePolicy@2@@CryptoPP@@@CryptoPP@@@2@VCFB_CipherAbstractPolicy@2@@2@@CryptoPP@@8 00419068     dlltest.obj
 0002:000040b4       ??_R3?$CipherModeFinalTemplate_CipherHolder@V?$BlockCipherFinal@$0A@VBase@DES_EDE3@CryptoPP@@@CryptoPP@@V?$ConcretePolicyHolder@VEmpty@CryptoPP@@V?$CFB_RequireFullDataBlocks@V?$CFB_DecryptionTemplate@V?$AbstractPolicyHolder@VCFB_CipherAbstractPolicy@CryptoPP@@VCFB_ModePolicy@2@@CryptoPP@@@CryptoPP@@@2@VCFB_CipherAbstractPolicy@2@@2@@CryptoPP@@8 004190b4     dlltest.obj
 0002:000040c4       ??_R4?$CipherModeFinalTemplate_CipherHolder@V?$BlockCipherFinal@$0A@VBase@DES_EDE3@CryptoPP@@@CryptoPP@@V?$ConcretePolicyHolder@VEmpty@CryptoPP@@V?$CFB_RequireFullDataBlocks@V?$CFB_DecryptionTemplate@V?$AbstractPolicyHolder@VCFB_CipherAbstractPolicy@CryptoPP@@VCFB_ModePolicy@2@@CryptoPP@@@CryptoPP@@@2@VCFB_CipherAbstractPolicy@2@@2@@CryptoPP@@6BSimpleKeyingInterface@1@@ 004190c4     dlltest.obj
 0002:000040d8       ??_R4?$CipherModeFinalTemplate_CipherHolder@V?$BlockCipherFinal@$0A@VBase@DES_EDE3@CryptoPP@@@CryptoPP@@VECB_OneWay@2@@CryptoPP@@6BStreamTransformation@1@@ 004190d8     dlltest.obj
 0002:000040ec       ??_R1A@?0A@A@BlockOrientedCipherModeBase@CryptoPP@@8 004190ec     dlltest.obj
 0002:00004104       ??_R1A@?0A@A@ECB_OneWay@CryptoPP@@8 00419104     dlltest.obj
 0002:0000411c       ??_R1A@?0A@A@?$AlgorithmImpl@VECB_OneWay@CryptoPP@@V?$CipherModeFinalTemplate_CipherHolder@V?$BlockCipherFinal@$0A@VBase@DES_EDE3@CryptoPP@@@CryptoPP@@VECB_OneWay@2@@2@@CryptoPP@@8 0041911c     dlltest.obj
 0002:00004134       ??_R1CI@?0A@8?$ObjectHolder@V?$BlockCipherFinal@$0A@VBase@DES_EDE3@CryptoPP@@@CryptoPP@@@CryptoPP@@8 00419134     dlltest.obj
 0002:0000414c       ??_R1A@?0A@A@?$CipherModeFinalTemplate_CipherHolder@V?$BlockCipherFinal@$0A@VBase@DES_EDE3@CryptoPP@@@CryptoPP@@VECB_OneWay@2@@CryptoPP@@8 0041914c     dlltest.obj
 0002:00004164       ??_R2?$CipherModeFinalTemplate_CipherHolder@V?$BlockCipherFinal@$0A@VBase@DES_EDE3@CryptoPP@@@CryptoPP@@VECB_OneWay@2@@CryptoPP@@8 00419164     dlltest.obj
 0002:00004194       ??_R3?$CipherModeFinalTemplate_CipherHolder@V?$BlockCipherFinal@$0A@VBase@DES_EDE3@CryptoPP@@@CryptoPP@@VECB_OneWay@2@@CryptoPP@@8 00419194     dlltest.obj
 0002:000041a4       ??_R4?$CipherModeFinalTemplate_CipherHolder@V?$BlockCipherFinal@$0A@VBase@DES_EDE3@CryptoPP@@@CryptoPP@@VECB_OneWay@2@@CryptoPP@@6BSimpleKeyingInterface@1@@ 004191a4     dlltest.obj
 0002:000041b8       ??_R4?$DL_SignerImpl@U?$DL_SignatureSchemeOptions@UDSA@CryptoPP@@UDL_Keys_DSA@2@V?$DL_Algorithm_GDSA@VInteger@CryptoPP@@@2@VDL_SignatureMessageEncodingMethod_DSA@2@VSHA1@2@@CryptoPP@@@CryptoPP@@6B@ 004191b8     dlltest.obj
 0002:000041cc       ??_R4?$DL_SignerImpl@U?$DL_SignatureSchemeOptions@UDSA@CryptoPP@@UDL_Keys_DSA@2@V?$DL_Algorithm_GDSA@VInteger@CryptoPP@@@2@VDL_SignatureMessageEncodingMethod_DSA@2@VSHA1@2@@CryptoPP@@@CryptoPP@@6BPrivateKeyAlgorithm@1@@ 004191cc     dlltest.obj
 0002:000041e0       ??_R17?0A@A@?$DL_Base@V?$DL_PrivateKey@VInteger@CryptoPP@@@CryptoPP@@@CryptoPP@@8 004191e0     dlltest.obj
 0002:000041f8       ??_R13?0A@A@AsymmetricAlgorithm@CryptoPP@@8 004191f8     dlltest.obj
 0002:00004210       ??_R13?0A@A@PrivateKeyAlgorithm@CryptoPP@@8 00419210     dlltest.obj
 0002:00004228       ??_R1A@?0A@A@PK_SignatureScheme@CryptoPP@@8 00419228     dlltest.obj
 0002:00004240       ??_R1A@?0A@A@PK_Signer@CryptoPP@@8 00419240     dlltest.obj
 0002:00004258       ??_R1A@?0A@A@?$DL_SignatureSchemeBase@VPK_Signer@CryptoPP@@V?$DL_PrivateKey@VInteger@CryptoPP@@@2@@CryptoPP@@8 00419258     dlltest.obj
 0002:00004270       ??_R1A@?0A@A@?$DL_SignerBase@VInteger@CryptoPP@@@CryptoPP@@8 00419270     dlltest.obj
 0002:00004288       ??_R1A@?0A@A@?$AlgorithmImpl@V?$DL_SignerBase@VInteger@CryptoPP@@@CryptoPP@@UDSA@2@@CryptoPP@@8 00419288     dlltest.obj
 0002:000042a0       ??_R1A@?0A@A@?$DL_ObjectImplBase@V?$DL_SignerBase@VInteger@CryptoPP@@@CryptoPP@@U?$DL_SignatureSchemeOptions@UDSA@CryptoPP@@UDL_Keys_DSA@2@V?$DL_Algorithm_GDSA@VInteger@CryptoPP@@@2@VDL_SignatureMessageEncodingMethod_DSA@2@VSHA1@2@@2@V?$DL_PrivateKey_WithSignaturePairwiseConsistencyTest@V?$DL_PrivateKey_GFP@VDL_GroupParameters_DSA@CryptoPP@@@CryptoPP@@UDSA@2@@2@@CryptoPP@@8 004192a0     dlltest.obj
 0002:000042b8       ??_R1A@?0A@A@?$DL_ObjectImpl@V?$DL_SignerBase@VInteger@CryptoPP@@@CryptoPP@@U?$DL_SignatureSchemeOptions@UDSA@CryptoPP@@UDL_Keys_DSA@2@V?$DL_Algorithm_GDSA@VInteger@CryptoPP@@@2@VDL_SignatureMessageEncodingMethod_DSA@2@VSHA1@2@@2@V?$DL_PrivateKey_WithSignaturePairwiseConsistencyTest@V?$DL_PrivateKey_GFP@VDL_GroupParameters_DSA@CryptoPP@@@CryptoPP@@UDSA@2@@2@@CryptoPP@@8 004192b8     dlltest.obj
 0002:000042d0       ??_R1A@?0A@A@?$DL_SignerImpl@U?$DL_SignatureSchemeOptions@UDSA@CryptoPP@@UDL_Keys_DSA@2@V?$DL_Algorithm_GDSA@VInteger@CryptoPP@@@2@VDL_SignatureMessageEncodingMethod_DSA@2@VSHA1@2@@CryptoPP@@@CryptoPP@@8 004192d0     dlltest.obj
 0002:000042e8       ??_R2?$DL_SignerImpl@U?$DL_SignatureSchemeOptions@UDSA@CryptoPP@@UDL_Keys_DSA@2@V?$DL_Algorithm_GDSA@VInteger@CryptoPP@@@2@VDL_SignatureMessageEncodingMethod_DSA@2@VSHA1@2@@CryptoPP@@@CryptoPP@@8 004192e8     dlltest.obj
 0002:00004320       ??_R3?$DL_SignerImpl@U?$DL_SignatureSchemeOptions@UDSA@CryptoPP@@UDL_Keys_DSA@2@V?$DL_Algorithm_GDSA@VInteger@CryptoPP@@@2@VDL_SignatureMessageEncodingMethod_DSA@2@VSHA1@2@@CryptoPP@@@CryptoPP@@8 00419320     dlltest.obj
 0002:00004330       ??_R4?$DL_SignerImpl@U?$DL_SignatureSchemeOptions@UDSA@CryptoPP@@UDL_Keys_DSA@2@V?$DL_Algorithm_GDSA@VInteger@CryptoPP@@@2@VDL_SignatureMessageEncodingMethod_DSA@2@VSHA1@2@@CryptoPP@@@CryptoPP@@6BPK_SignatureScheme@1@@ 00419330     dlltest.obj
 0002:00004344       ??_R1GA@?0A@8?$ObjectHolder@VSHA1@CryptoPP@@@CryptoPP@@8 00419344     dlltest.obj
 0002:0000435c       ??_R1A@?0A@A@Clonable@CryptoPP@@8 0041935c     dlltest.obj
 0002:00004374       ??_R1A@?0A@A@Algorithm@CryptoPP@@8 00419374     dlltest.obj
 0002:0000438c       ??_R1A@?0A@A@HashTransformation@CryptoPP@@8 0041938c     dlltest.obj
 0002:000043a4       ??_R1A@?0A@A@PK_MessageAccumulator@CryptoPP@@8 004193a4     dlltest.obj
 0002:000043bc       ??_R1A@?0A@A@PK_MessageAccumulatorBase@CryptoPP@@8 004193bc     dlltest.obj
 0002:000043d4       ??_R1A@?0A@A@?$PK_MessageAccumulatorImpl@VSHA1@CryptoPP@@@CryptoPP@@8 004193d4     dlltest.obj
 0002:000043ec       ??_R2?$PK_MessageAccumulatorImpl@VSHA1@CryptoPP@@@CryptoPP@@8 004193ec     dlltest.obj
 0002:0000440c       ??_R3?$PK_MessageAccumulatorImpl@VSHA1@CryptoPP@@@CryptoPP@@8 0041940c     dlltest.obj
 0002:0000441c       ??_R4?$PK_MessageAccumulatorImpl@VSHA1@CryptoPP@@@CryptoPP@@6B@ 0041941c     dlltest.obj
 0002:00004430       ??_R1A@?0A@A@PK_SignatureMessageEncodingMethod@CryptoPP@@8 00419430     dlltest.obj
 0002:00004448       ??_R1A@?0A@A@PK_DeterministicSignatureMessageEncodingMethod@CryptoPP@@8 00419448     dlltest.obj
 0002:00004460       ??_R1A@?0A@A@DL_SignatureMessageEncodingMethod_DSA@CryptoPP@@8 00419460     dlltest.obj
 0002:00004478       ??_R2DL_SignatureMessageEncodingMethod_DSA@CryptoPP@@8 00419478     dlltest.obj
 0002:00004488       ??_R3DL_SignatureMessageEncodingMethod_DSA@CryptoPP@@8 00419488     dlltest.obj
 0002:00004498       ??_R4DL_SignatureMessageEncodingMethod_DSA@CryptoPP@@6B@ 00419498     dlltest.obj
 0002:000044ac       ??_R4?$DL_VerifierImpl@U?$DL_SignatureSchemeOptions@UDSA@CryptoPP@@UDL_Keys_DSA@2@V?$DL_Algorithm_GDSA@VInteger@CryptoPP@@@2@VDL_SignatureMessageEncodingMethod_DSA@2@VSHA1@2@@CryptoPP@@@CryptoPP@@6B@ 004194ac     dlltest.obj
 0002:000044c0       ??_R4?$DL_VerifierImpl@U?$DL_SignatureSchemeOptions@UDSA@CryptoPP@@UDL_Keys_DSA@2@V?$DL_Algorithm_GDSA@VInteger@CryptoPP@@@2@VDL_SignatureMessageEncodingMethod_DSA@2@VSHA1@2@@CryptoPP@@@CryptoPP@@6BPublicKeyAlgorithm@1@@ 004194c0     dlltest.obj
 0002:000044d4       ??_R17?0A@A@?$DL_Base@V?$DL_PublicKey@VInteger@CryptoPP@@@CryptoPP@@@CryptoPP@@8 004194d4     dlltest.obj
 0002:000044ec       ??_R13?0A@A@PublicKeyAlgorithm@CryptoPP@@8 004194ec     dlltest.obj
 0002:00004504       ??_R1A@?0A@A@PK_Verifier@CryptoPP@@8 00419504     dlltest.obj
 0002:0000451c       ??_R1A@?0A@A@?$DL_SignatureSchemeBase@VPK_Verifier@CryptoPP@@V?$DL_PublicKey@VInteger@CryptoPP@@@2@@CryptoPP@@8 0041951c     dlltest.obj
 0002:00004534       ??_R1A@?0A@A@?$DL_VerifierBase@VInteger@CryptoPP@@@CryptoPP@@8 00419534     dlltest.obj
 0002:0000454c       ??_R1A@?0A@A@?$AlgorithmImpl@V?$DL_VerifierBase@VInteger@CryptoPP@@@CryptoPP@@UDSA@2@@CryptoPP@@8 0041954c     dlltest.obj
 0002:00004564       ??_R1A@?0A@A@?$DL_ObjectImplBase@V?$DL_VerifierBase@VInteger@CryptoPP@@@CryptoPP@@U?$DL_SignatureSchemeOptions@UDSA@CryptoPP@@UDL_Keys_DSA@2@V?$DL_Algorithm_GDSA@VInteger@CryptoPP@@@2@VDL_SignatureMessageEncodingMethod_DSA@2@VSHA1@2@@2@V?$DL_PublicKey_GFP@VDL_GroupParameters_DSA@CryptoPP@@@2@@CryptoPP@@8 00419564     dlltest.obj
 0002:0000457c       ??_R1A@?0A@A@?$DL_ObjectImpl@V?$DL_VerifierBase@VInteger@CryptoPP@@@CryptoPP@@U?$DL_SignatureSchemeOptions@UDSA@CryptoPP@@UDL_Keys_DSA@2@V?$DL_Algorithm_GDSA@VInteger@CryptoPP@@@2@VDL_SignatureMessageEncodingMethod_DSA@2@VSHA1@2@@2@V?$DL_PublicKey_GFP@VDL_GroupParameters_DSA@CryptoPP@@@2@@CryptoPP@@8 0041957c     dlltest.obj
 0002:00004594       ??_R1A@?0A@A@?$DL_VerifierImpl@U?$DL_SignatureSchemeOptions@UDSA@CryptoPP@@UDL_Keys_DSA@2@V?$DL_Algorithm_GDSA@VInteger@CryptoPP@@@2@VDL_SignatureMessageEncodingMethod_DSA@2@VSHA1@2@@CryptoPP@@@CryptoPP@@8 00419594     dlltest.obj
 0002:000045ac       ??_R2?$DL_VerifierImpl@U?$DL_SignatureSchemeOptions@UDSA@CryptoPP@@UDL_Keys_DSA@2@V?$DL_Algorithm_GDSA@VInteger@CryptoPP@@@2@VDL_SignatureMessageEncodingMethod_DSA@2@VSHA1@2@@CryptoPP@@@CryptoPP@@8 004195ac     dlltest.obj
 0002:000045e4       ??_R3?$DL_VerifierImpl@U?$DL_SignatureSchemeOptions@UDSA@CryptoPP@@UDL_Keys_DSA@2@V?$DL_Algorithm_GDSA@VInteger@CryptoPP@@@2@VDL_SignatureMessageEncodingMethod_DSA@2@VSHA1@2@@CryptoPP@@@CryptoPP@@8 004195e4     dlltest.obj
 0002:000045f4       ??_R4?$DL_VerifierImpl@U?$DL_SignatureSchemeOptions@UDSA@CryptoPP@@UDL_Keys_DSA@2@V?$DL_Algorithm_GDSA@VInteger@CryptoPP@@@2@VDL_SignatureMessageEncodingMethod_DSA@2@VSHA1@2@@CryptoPP@@@CryptoPP@@6BPK_SignatureScheme@1@@ 004195f4     dlltest.obj
 0002:00004608       ??_R4StringStore@CryptoPP@@6BWaitable@1@@ 00419608     dlltest.obj
 0002:0000461c       ??_R13?0A@A@Waitable@CryptoPP@@8 0041961c     dlltest.obj
 0002:00004634       ??_R1A@?0A@A@BufferedTransformation@CryptoPP@@8 00419634     dlltest.obj
 0002:0000464c       ??_R1A@?0A@A@?$InputRejecting@VBufferedTransformation@CryptoPP@@@CryptoPP@@8 0041964c     dlltest.obj
 0002:00004664       ??_R1A@?0A@A@?$AutoSignaling@V?$InputRejecting@VBufferedTransformation@CryptoPP@@@CryptoPP@@@CryptoPP@@8 00419664     dlltest.obj
 0002:0000467c       ??_R1A@?0A@A@Store@CryptoPP@@8 0041967c     dlltest.obj
 0002:00004694       ??_R1A@?0A@A@StringStore@CryptoPP@@8 00419694     dlltest.obj
 0002:000046ac       ??_R2StringStore@CryptoPP@@8 004196ac     dlltest.obj
 0002:000046d0       ??_R3StringStore@CryptoPP@@8 004196d0     dlltest.obj
 0002:000046e0       ??_R4StringStore@CryptoPP@@6BAlgorithm@1@@ 004196e0     dlltest.obj
 0002:000046f4       ??_R13?0A@A@?$_Iosb@H@std@@8 004196f4     libcpmt:ios.obj
 0002:0000470c       ??_R1A@?0A@A@ios_base@std@@8 0041970c     libcpmt:ios.obj
 0002:00004724       ??_R2ios_base@std@@8       00419724     libcpmt:ios.obj
 0002:00004730       ??_R3ios_base@std@@8       00419730     libcpmt:ios.obj
 0002:00004740       ??_R4ios_base@std@@6B@     00419740     libcpmt:ios.obj
 0002:00004754       ??_R1A@?0A@A@exception@@8  00419754     libcpmt:ios.obj
 0002:0000476c       ??_R1A@?0A@A@runtime_error@std@@8 0041976c     libcpmt:ios.obj
 0002:00004784       ??_R2runtime_error@std@@8  00419784     libcpmt:ios.obj
 0002:00004790       ??_R3runtime_error@std@@8  00419790     libcpmt:ios.obj
 0002:000047a0       ??_R4runtime_error@std@@6B@ 004197a0     libcpmt:ios.obj
 0002:000047b4       ??_R1A@?0A@A@failure@ios_base@std@@8 004197b4     libcpmt:ios.obj
 0002:000047cc       ??_R2failure@ios_base@std@@8 004197cc     libcpmt:ios.obj
 0002:000047dc       ??_R3failure@ios_base@std@@8 004197dc     libcpmt:ios.obj
 0002:000047ec       ??_R4failure@ios_base@std@@6B@ 004197ec     libcpmt:ios.obj
 0002:00004800       ??_R1A@?0A@A@logic_error@std@@8 00419800     libcpmt:string.obj
 0002:00004818       ??_R2logic_error@std@@8    00419818     libcpmt:string.obj
 0002:00004824       ??_R3logic_error@std@@8    00419824     libcpmt:string.obj
 0002:00004834       ??_R4logic_error@std@@6B@  00419834     libcpmt:string.obj
 0002:00004848       ??_R1A@?0A@A@length_error@std@@8 00419848     libcpmt:string.obj
 0002:00004860       ??_R2length_error@std@@8   00419860     libcpmt:string.obj
 0002:00004870       ??_R3length_error@std@@8   00419870     libcpmt:string.obj
 0002:00004880       ??_R4length_error@std@@6B@ 00419880     libcpmt:string.obj
 0002:00004894       ??_R1A@?0A@A@out_of_range@std@@8 00419894     libcpmt:string.obj
 0002:000048ac       ??_R2out_of_range@std@@8   004198ac     libcpmt:string.obj
 0002:000048bc       ??_R3out_of_range@std@@8   004198bc     libcpmt:string.obj
 0002:000048cc       ??_R4out_of_range@std@@6B@ 004198cc     libcpmt:string.obj
 0002:000048e0       ??_R1A@?0A@A@facet@locale@std@@8 004198e0     libcpmt:cerr.obj
 0002:000048f8       ??_R2facet@locale@std@@8   004198f8     libcpmt:cerr.obj
 0002:00004900       ??_R3facet@locale@std@@8   00419900     libcpmt:cerr.obj
 0002:00004910       ??_R4facet@locale@std@@6B@ 00419910     libcpmt:cerr.obj
 0002:00004924       ??_R1A@?0A@A@ctype_base@std@@8 00419924     libcpmt:cerr.obj
 0002:0000493c       ??_R2ctype_base@std@@8     0041993c     libcpmt:cerr.obj
 0002:00004948       ??_R3ctype_base@std@@8     00419948     libcpmt:cerr.obj
 0002:00004958       ??_R4ctype_base@std@@6B@   00419958     libcpmt:cerr.obj
 0002:0000496c       ??_R13A@3A@?$_Iosb@H@std@@8 0041996c     libcpmt:cerr.obj
 0002:00004984       ??_R1A@A@3A@ios_base@std@@8 00419984     libcpmt:cerr.obj
 0002:0000499c       ??_R1A@A@3BA@?$basic_ios@DU?$char_traits@D@std@@@std@@8 0041999c     libcpmt:cerr.obj
 0002:000049b4       ??_R1A@?0A@A@?$basic_ostream@DU?$char_traits@D@std@@@std@@8 004199b4     libcpmt:cerr.obj
 0002:000049cc       ??_R2?$basic_ostream@DU?$char_traits@D@std@@@std@@8 004199cc     libcpmt:cerr.obj
 0002:000049e0       ??_R3?$basic_ostream@DU?$char_traits@D@std@@@std@@8 004199e0     libcpmt:cerr.obj
 0002:000049f0       ??_R4?$basic_ostream@DU?$char_traits@D@std@@@std@@6B@ 004199f0     libcpmt:cerr.obj
 0002:00004a04       ??_R1A@?0A@A@?$basic_ios@DU?$char_traits@D@std@@@std@@8 00419a04     libcpmt:cerr.obj
 0002:00004a1c       ??_R2?$basic_ios@DU?$char_traits@D@std@@@std@@8 00419a1c     libcpmt:cerr.obj
 0002:00004a2c       ??_R3?$basic_ios@DU?$char_traits@D@std@@@std@@8 00419a2c     libcpmt:cerr.obj
 0002:00004a3c       ??_R4?$basic_ios@DU?$char_traits@D@std@@@std@@6B@ 00419a3c     libcpmt:cerr.obj
 0002:00004a50       ??_R1A@?0A@A@?$ctype@D@std@@8 00419a50     libcpmt:cerr.obj
 0002:00004a68       ??_R2?$ctype@D@std@@8      00419a68     libcpmt:cerr.obj
 0002:00004a78       ??_R3?$ctype@D@std@@8      00419a78     libcpmt:cerr.obj
 0002:00004a88       ??_R4?$ctype@D@std@@6B@    00419a88     libcpmt:cerr.obj
 0002:00004a9c       ??_R1A@?0A@A@?$basic_streambuf@DU?$char_traits@D@std@@@std@@8 00419a9c     libcpmt:cerr.obj
 0002:00004ab4       ??_R2?$basic_streambuf@DU?$char_traits@D@std@@@std@@8 00419ab4     libcpmt:cerr.obj
 0002:00004abc       ??_R3?$basic_streambuf@DU?$char_traits@D@std@@@std@@8 00419abc     libcpmt:cerr.obj
 0002:00004acc       ??_R4?$basic_streambuf@DU?$char_traits@D@std@@@std@@6B@ 00419acc     libcpmt:cerr.obj
 0002:00004ae0       ??_R1A@?0A@A@?$basic_filebuf@DU?$char_traits@D@std@@@std@@8 00419ae0     libcpmt:cerr.obj
 0002:00004af8       ??_R2?$basic_filebuf@DU?$char_traits@D@std@@@std@@8 00419af8     libcpmt:cerr.obj
 0002:00004b04       ??_R3?$basic_filebuf@DU?$char_traits@D@std@@@std@@8 00419b04     libcpmt:cerr.obj
 0002:00004b14       ??_R4?$basic_filebuf@DU?$char_traits@D@std@@@std@@6B@ 00419b14     libcpmt:cerr.obj
 0002:00004b28       ??_R1A@?0A@A@codecvt_base@std@@8 00419b28     libcpmt:cerr.obj
 0002:00004b40       ??_R1A@?0A@A@?$codecvt@DDH@std@@8 00419b40     libcpmt:cerr.obj
 0002:00004b58       ??_R2?$codecvt@DDH@std@@8  00419b58     libcpmt:cerr.obj
 0002:00004b68       ??_R3?$codecvt@DDH@std@@8  00419b68     libcpmt:cerr.obj
 0002:00004b78       ??_R4?$codecvt@DDH@std@@6B@ 00419b78     libcpmt:cerr.obj
 0002:00004b8c       ??_R1A@?0A@A@_Locimp@locale@std@@8 00419b8c     libcpmt:locale0.obj
 0002:00004ba4       ??_R2_Locimp@locale@std@@8 00419ba4     libcpmt:locale0.obj
 0002:00004bb0       ??_R3_Locimp@locale@std@@8 00419bb0     libcpmt:locale0.obj
 0002:00004bc0       ??_R4_Locimp@locale@std@@6B@ 00419bc0     libcpmt:locale0.obj
 0002:00004bd4       ??_R1A@?0A@A@type_info@@8  00419bd4     LIBCMT:typinfo.obj
 0002:00004bec       ??_R2type_info@@8          00419bec     LIBCMT:typinfo.obj
 0002:00004bf4       ??_R3type_info@@8          00419bf4     LIBCMT:typinfo.obj
 0002:00004c04       ??_R4type_info@@6B@        00419c04     LIBCMT:typinfo.obj
 0002:00004c18       ??_R2exception@@8          00419c18     LIBCMT:stdexcpt.obj
 0002:00004c20       ??_R3exception@@8          00419c20     LIBCMT:stdexcpt.obj
 0002:00004c30       ??_R4exception@@6B@        00419c30     LIBCMT:stdexcpt.obj
 0002:00004c44       ??_R1A@?0A@A@bad_cast@@8   00419c44     LIBCMT:stdexcpt.obj
 0002:00004c5c       ??_R2bad_cast@@8           00419c5c     LIBCMT:stdexcpt.obj
 0002:00004c68       ??_R3bad_cast@@8           00419c68     LIBCMT:stdexcpt.obj
 0002:00004c78       ??_R4bad_cast@@6B@         00419c78     LIBCMT:stdexcpt.obj
 0002:00004c8c       ??_R1A@?0A@A@bad_typeid@@8 00419c8c     LIBCMT:stdexcpt.obj
 0002:00004ca4       ??_R2bad_typeid@@8         00419ca4     LIBCMT:stdexcpt.obj
 0002:00004cb0       ??_R3bad_typeid@@8         00419cb0     LIBCMT:stdexcpt.obj
 0002:00004cc0       ??_R4bad_typeid@@6B@       00419cc0     LIBCMT:stdexcpt.obj
 0002:00004cd4       ??_R1A@?0A@A@__non_rtti_object@@8 00419cd4     LIBCMT:stdexcpt.obj
 0002:00004cec       ??_R2__non_rtti_object@@8  00419cec     LIBCMT:stdexcpt.obj
 0002:00004cfc       ??_R3__non_rtti_object@@8  00419cfc     LIBCMT:stdexcpt.obj
 0002:00004d0c       ??_R4__non_rtti_object@@6B@ 00419d0c     LIBCMT:stdexcpt.obj
 0002:00004d20       ___safe_se_handler_table   00419d20     <linker-defined>
 0002:00004e2c       ___rtc_iaa                 00419e2c     LIBCMT:initsect.obj
 0002:00004e30       ___rtc_izz                 00419e30     LIBCMT:initsect.obj
 0002:00004e34       ___rtc_taa                 00419e34     LIBCMT:initsect.obj
 0002:00004e38       ___rtc_tzz                 00419e38     LIBCMT:initsect.obj
 0002:00005190       __CT??_R0?AVexception@@@8??0exception@@QAE@ABV0@@Z12 0041a190     dlltest.obj
 0002:000051ac       __CT??_R0?AVException@CryptoPP@@@8??0Exception@CryptoPP@@QAE@ABV01@@Z44 0041a1ac     dlltest.obj
 0002:000051c8       __CT??_R0?AVInvalidArgument@CryptoPP@@@8??0InvalidArgument@CryptoPP@@QAE@ABV01@@Z44 0041a1c8     dlltest.obj
 0002:000051e4       __CTA3?AVInvalidArgument@CryptoPP@@ 0041a1e4     dlltest.obj
 0002:000051f4       __TI3?AVInvalidArgument@CryptoPP@@ 0041a1f4     dlltest.obj
 0002:00005398       __CT??_R0?AVNotImplemented@CryptoPP@@@8??0NotImplemented@CryptoPP@@QAE@ABV01@@Z44 0041a398     dlltest.obj
 0002:000053b4       __CTA3?AVNotImplemented@CryptoPP@@ 0041a3b4     dlltest.obj
 0002:000053c4       __TI3?AVNotImplemented@CryptoPP@@ 0041a3c4     dlltest.obj
 0002:00005728       __CT??_R0?AVruntime_error@std@@@8??0runtime_error@std@@QAE@ABV01@@Z40 0041a728     libcpmt:ios.obj
 0002:00005744       __CT??_R0?AVfailure@ios_base@std@@@8??0failure@ios_base@std@@QAE@ABV012@@Z40 0041a744     libcpmt:ios.obj
 0002:00005760       __CTA3?AVfailure@ios_base@std@@ 0041a760     libcpmt:ios.obj
 0002:00005770       __TI3?AVfailure@ios_base@std@@ 0041a770     libcpmt:ios.obj
 0002:000057fc       __CT??_R0?AVlogic_error@std@@@8??0logic_error@std@@QAE@ABV01@@Z40 0041a7fc     libcpmt:string.obj
 0002:00005818       __CT??_R0?AVout_of_range@std@@@8??0out_of_range@std@@QAE@ABV01@@Z40 0041a818     libcpmt:string.obj
 0002:00005834       __CTA3?AVout_of_range@std@@ 0041a834     libcpmt:string.obj
 0002:00005844       __TI3?AVout_of_range@std@@ 0041a844     libcpmt:string.obj
 0002:0000589c       __CT??_R0?AVlength_error@std@@@8??0length_error@std@@QAE@ABV01@@Z40 0041a89c     libcpmt:string.obj
 0002:000058b8       __CTA3?AVlength_error@std@@ 0041a8b8     libcpmt:string.obj
 0002:000058c8       __TI3?AVlength_error@std@@ 0041a8c8     libcpmt:string.obj
 0002:00005944       __CT??_R0?AVbad_cast@@@8??0bad_cast@@QAE@ABV0@@Z12 0041a944     libcpmt:cerr.obj
 0002:00005960       __CTA2?AVbad_cast@@        0041a960     libcpmt:cerr.obj
 0002:0000596c       __TI2?AVbad_cast@@         0041a96c     libcpmt:cerr.obj
 0002:00005c0c       __IMPORT_DESCRIPTOR_cryptopp 0041ac0c     cryptopp:cryptopp.dll
 0002:00005c20       __IMPORT_DESCRIPTOR_KERNEL32 0041ac20     kernel32:KERNEL32.dll
 0002:00005c34       __NULL_IMPORT_DESCRIPTOR   0041ac34     cryptopp:cryptopp.dll
 0003:00000000       ___xc_a                    00421000     LIBCMT:crt0init.obj
 0003:00000038       ___xc_z                    00421038     LIBCMT:crt0init.obj
 0003:0000003c       ___xi_a                    0042103c     LIBCMT:crt0init.obj
 0003:00000050       ___xi_z                    00421050     LIBCMT:crt0init.obj
 0003:00000054       ___xp_a                    00421054     LIBCMT:crt0init.obj
 0003:0000005c       ___xp_z                    0042105c     LIBCMT:crt0init.obj
 0003:00000060       ___xt_a                    00421060     LIBCMT:crt0init.obj
 0003:00000068       ___xt_z                    00421068     LIBCMT:crt0init.obj
 0003:00000070       ??_R0?AVCFB_CipherAbstractPolicy@CryptoPP@@@8 00421070     dlltest.obj
 0003:000000a0       ??_R0?AVClonable@CryptoPP@@@8 004210a0     dlltest.obj
 0003:000000c0       ??_R0?AVAlgorithm@CryptoPP@@@8 004210c0     dlltest.obj
 0003:000000e4       ??_R0?AVStreamTransformation@CryptoPP@@@8 004210e4     dlltest.obj
 0003:00000110       ??_R0?AVSimpleKeyingInterface@CryptoPP@@@8 00421110     dlltest.obj
 0003:00000140       ??_R0?AVSymmetricCipher@CryptoPP@@@8 00421140     dlltest.obj
 0003:00000168       ??_R0?AVCipherModeBase@CryptoPP@@@8 00421168     dlltest.obj
 0003:00000190       ??_R0?AV?$ModePolicyCommonTemplate@VCFB_CipherAbstractPolicy@CryptoPP@@@CryptoPP@@@8 00421190     dlltest.obj
 0003:000001e8       ??_R0?AVCFB_ModePolicy@CryptoPP@@@8 004211e8     dlltest.obj
 0003:00000210       ??_R0?AV?$AbstractPolicyHolder@VCFB_CipherAbstractPolicy@CryptoPP@@VCFB_ModePolicy@2@@CryptoPP@@@8 00421210     dlltest.obj
 0003:00000278       ??_R0?AV?$CFB_CipherTemplate@V?$AbstractPolicyHolder@VCFB_CipherAbstractPolicy@CryptoPP@@VCFB_ModePolicy@2@@CryptoPP@@@CryptoPP@@@8 00421278     dlltest.obj
 0003:00000300       ??_R0?AV?$CFB_EncryptionTemplate@V?$AbstractPolicyHolder@VCFB_CipherAbstractPolicy@CryptoPP@@VCFB_ModePolicy@2@@CryptoPP@@@CryptoPP@@@8 00421300     dlltest.obj
 0003:00000390       ??_R0?AV?$CFB_RequireFullDataBlocks@V?$CFB_EncryptionTemplate@V?$AbstractPolicyHolder@VCFB_CipherAbstractPolicy@CryptoPP@@VCFB_ModePolicy@2@@CryptoPP@@@CryptoPP@@@CryptoPP@@@8 00421390     dlltest.obj
 0003:00000448       ??_R0?AV?$CFB_DecryptionTemplate@V?$AbstractPolicyHolder@VCFB_CipherAbstractPolicy@CryptoPP@@VCFB_ModePolicy@2@@CryptoPP@@@CryptoPP@@@8 00421448     dlltest.obj
 0003:000004d8       ??_R0?AV?$CFB_RequireFullDataBlocks@V?$CFB_DecryptionTemplate@V?$AbstractPolicyHolder@VCFB_CipherAbstractPolicy@CryptoPP@@VCFB_ModePolicy@2@@CryptoPP@@@CryptoPP@@@CryptoPP@@@8 004214d8     dlltest.obj
 0003:00000590       ??_R0?AV?$VariableKeyLength@$0BA@$0BA@$0CA@$07$03$0A@@CryptoPP@@@8 00421590     dlltest.obj
 0003:000005d8       ??_R0?AV?$FixedBlockSize@$0BA@@CryptoPP@@@8 004215d8     dlltest.obj
 0003:00000608       ??_R0?AURijndael_Info@CryptoPP@@@8 00421608     dlltest.obj
 0003:00000630       ??_R0?AVBlockTransformation@CryptoPP@@@8 00421630     dlltest.obj
 0003:0000065c       ??_R0?AVBlockCipher@CryptoPP@@@8 0042165c     dlltest.obj
 0003:00000680       ??_R0?AV?$TwoBases@VBlockCipher@CryptoPP@@URijndael_Info@2@@CryptoPP@@@8 00421680     dlltest.obj
 0003:000006d0       ??_R0?AV?$SimpleKeyingInterfaceImpl@V?$TwoBases@VBlockCipher@CryptoPP@@URijndael_Info@2@@CryptoPP@@V12@@CryptoPP@@@8 004216d0     dlltest.obj
 0003:00000748       ??_R0?AV?$AlgorithmImpl@V?$SimpleKeyingInterfaceImpl@V?$TwoBases@VBlockCipher@CryptoPP@@URijndael_Info@2@@CryptoPP@@V12@@CryptoPP@@V12@@CryptoPP@@@8 00421748     dlltest.obj
 0003:000007e0       ??_R0?AV?$BlockCipherImpl@URijndael_Info@CryptoPP@@VBlockCipher@2@@CryptoPP@@@8 004217e0     dlltest.obj
 0003:00000834       ??_R0?AVBase@Rijndael@CryptoPP@@@8 00421834     dlltest.obj
 0003:0000085c       ??_R0?AVEnc@Rijndael@CryptoPP@@@8 0042185c     dlltest.obj
 0003:00000880       ??_R0?AV?$ClonableImpl@V?$BlockCipherFinal@$0A@VEnc@Rijndael@CryptoPP@@@CryptoPP@@VEnc@Rijndael@2@@CryptoPP@@@8 00421880     dlltest.obj
 0003:000008f8       ??_R0?AV?$BlockCipherFinal@$0A@VEnc@Rijndael@CryptoPP@@@CryptoPP@@@8 004218f8     dlltest.obj
 0003:00000940       ??_R0?AVEmpty@CryptoPP@@@8 00421940     dlltest.obj
 0003:00000960       ??_R0?AV?$ConcretePolicyHolder@VEmpty@CryptoPP@@V?$CFB_RequireFullDataBlocks@V?$CFB_EncryptionTemplate@V?$AbstractPolicyHolder@VCFB_CipherAbstractPolicy@CryptoPP@@VCFB_ModePolicy@2@@CryptoPP@@@CryptoPP@@@2@VCFB_CipherAbstractPolicy@2@@CryptoPP@@@8 00421960     dlltest.obj
 0003:00000a60       ??_R0?AV?$ConcretePolicyHolder@VEmpty@CryptoPP@@V?$CFB_RequireFullDataBlocks@V?$CFB_DecryptionTemplate@V?$AbstractPolicyHolder@VCFB_CipherAbstractPolicy@CryptoPP@@VCFB_ModePolicy@2@@CryptoPP@@@CryptoPP@@@2@VCFB_CipherAbstractPolicy@2@@CryptoPP@@@8 00421a60     dlltest.obj
 0003:00000b5c       ??_R0?AV?$FixedKeyLength@$0BI@$03$0A@@CryptoPP@@@8 00421b5c     dlltest.obj
 0003:00000b94       ??_R0?AV?$FixedBlockSize@$07@CryptoPP@@@8 00421b94     dlltest.obj
 0003:00000bc0       ??_R0?AUDES_EDE3_Info@CryptoPP@@@8 00421bc0     dlltest.obj
 0003:00000be8       ??_R0?AV?$TwoBases@VBlockCipher@CryptoPP@@UDES_EDE3_Info@2@@CryptoPP@@@8 00421be8     dlltest.obj
 0003:00000c38       ??_R0?AV?$SimpleKeyingInterfaceImpl@V?$TwoBases@VBlockCipher@CryptoPP@@UDES_EDE3_Info@2@@CryptoPP@@V12@@CryptoPP@@@8 00421c38     dlltest.obj
 0003:00000cb0       ??_R0?AV?$AlgorithmImpl@V?$SimpleKeyingInterfaceImpl@V?$TwoBases@VBlockCipher@CryptoPP@@UDES_EDE3_Info@2@@CryptoPP@@V12@@CryptoPP@@V12@@CryptoPP@@@8 00421cb0     dlltest.obj
 0003:00000d48       ??_R0?AV?$BlockCipherImpl@UDES_EDE3_Info@CryptoPP@@VBlockCipher@2@@CryptoPP@@@8 00421d48     dlltest.obj
 0003:00000d9c       ??_R0?AVBase@DES_EDE3@CryptoPP@@@8 00421d9c     dlltest.obj
 0003:00000dc8       ??_R0?AV?$ClonableImpl@V?$BlockCipherFinal@$0A@VBase@DES_EDE3@CryptoPP@@@CryptoPP@@VBase@DES_EDE3@2@@CryptoPP@@@8 00421dc8     dlltest.obj
 0003:00000e40       ??_R0?AV?$BlockCipherFinal@$0A@VBase@DES_EDE3@CryptoPP@@@CryptoPP@@@8 00421e40     dlltest.obj
 0003:00000e88       ??_R0?AVAlgorithmParametersBase@CryptoPP@@@8 00421e88     dlltest.obj
 0003:00000eb8       ??_R0?AV?$AlgorithmParametersTemplate@VConstByteArrayParameter@CryptoPP@@@CryptoPP@@@8 00421eb8     dlltest.obj
 0003:00000f18       ??_R0?AV?$AlgorithmImpl@V?$ConcretePolicyHolder@VEmpty@CryptoPP@@V?$CFB_RequireFullDataBlocks@V?$CFB_EncryptionTemplate@V?$AbstractPolicyHolder@VCFB_CipherAbstractPolicy@CryptoPP@@VCFB_ModePolicy@2@@CryptoPP@@@CryptoPP@@@2@VCFB_CipherAbstractPolicy@2@@CryptoPP@@V?$CipherModeFinalTemplate_CipherHolder@V?$BlockCipherFinal@$0A@VBase@DES_EDE3@CryptoPP@@@CryptoPP@@V?$ConcretePolicyHolder@VEmpty@CryptoPP@@V?$CFB_RequireFullDataBlocks@V?$CFB_EncryptionTemplate@V?$AbstractPolicyHolder@VCFB_CipherAbstractPolicy@CryptoPP@@VCFB_ModePolicy@2@@CryptoPP@@@CryptoPP@@@2@VCFB_CipherAbstractPolicy@2@@2@@2@@CryptoPP@@@8 00421f18     dlltest.obj
 0003:00001180       ??_R0?AV?$ObjectHolder@V?$BlockCipherFinal@$0A@VBase@DES_EDE3@CryptoPP@@@CryptoPP@@@CryptoPP@@@8 00422180     dlltest.obj
 0003:000011e8       ??_R0?AV?$CipherModeFinalTemplate_CipherHolder@V?$BlockCipherFinal@$0A@VBase@DES_EDE3@CryptoPP@@@CryptoPP@@V?$ConcretePolicyHolder@VEmpty@CryptoPP@@V?$CFB_RequireFullDataBlocks@V?$CFB_EncryptionTemplate@V?$AbstractPolicyHolder@VCFB_CipherAbstractPolicy@CryptoPP@@VCFB_ModePolicy@2@@CryptoPP@@@CryptoPP@@@2@VCFB_CipherAbstractPolicy@2@@2@@CryptoPP@@@8 004221e8     dlltest.obj
 0003:00001350       ??_R0?AV?$AlgorithmImpl@V?$ConcretePolicyHolder@VEmpty@CryptoPP@@V?$CFB_RequireFullDataBlocks@V?$CFB_DecryptionTemplate@V?$AbstractPolicyHolder@VCFB_CipherAbstractPolicy@CryptoPP@@VCFB_ModePolicy@2@@CryptoPP@@@CryptoPP@@@2@VCFB_CipherAbstractPolicy@2@@CryptoPP@@V?$CipherModeFinalTemplate_CipherHolder@V?$BlockCipherFinal@$0A@VBase@DES_EDE3@CryptoPP@@@CryptoPP@@V?$ConcretePolicyHolder@VEmpty@CryptoPP@@V?$CFB_RequireFullDataBlocks@V?$CFB_DecryptionTemplate@V?$AbstractPolicyHolder@VCFB_CipherAbstractPolicy@CryptoPP@@VCFB_ModePolicy@2@@CryptoPP@@@CryptoPP@@@2@VCFB_CipherAbstractPolicy@2@@2@@2@@CryptoPP@@@8 00422350     dlltest.obj
 0003:000015b8       ??_R0?AV?$CipherModeFinalTemplate_CipherHolder@V?$BlockCipherFinal@$0A@VBase@DES_EDE3@CryptoPP@@@CryptoPP@@V?$ConcretePolicyHolder@VEmpty@CryptoPP@@V?$CFB_RequireFullDataBlocks@V?$CFB_DecryptionTemplate@V?$AbstractPolicyHolder@VCFB_CipherAbstractPolicy@CryptoPP@@VCFB_ModePolicy@2@@CryptoPP@@@CryptoPP@@@2@VCFB_CipherAbstractPolicy@2@@2@@CryptoPP@@@8 004225b8     dlltest.obj
 0003:0000171c       ??_R0?AVBlockOrientedCipherModeBase@CryptoPP@@@8 0042271c     dlltest.obj
 0003:00001750       ??_R0?AVECB_OneWay@CryptoPP@@@8 00422750     dlltest.obj
 0003:00001778       ??_R0?AV?$AlgorithmImpl@VECB_OneWay@CryptoPP@@V?$CipherModeFinalTemplate_CipherHolder@V?$BlockCipherFinal@$0A@VBase@DES_EDE3@CryptoPP@@@CryptoPP@@VECB_OneWay@2@@2@@CryptoPP@@@8 00422778     dlltest.obj
 0003:00001830       ??_R0?AV?$CipherModeFinalTemplate_CipherHolder@V?$BlockCipherFinal@$0A@VBase@DES_EDE3@CryptoPP@@@CryptoPP@@VECB_OneWay@2@@CryptoPP@@@8 00422830     dlltest.obj
 0003:000018bc       ??_R0?AVexception@@@8      004228bc     dlltest.obj
 0003:000018d4       ??_R0?AVException@CryptoPP@@@8 004228d4     dlltest.obj
 0003:000018f8       ??_R0?AVInvalidArgument@CryptoPP@@@8 004228f8     dlltest.obj
 0003:00001920       ??_R0?AV?$DL_Base@V?$DL_PrivateKey@VInteger@CryptoPP@@@CryptoPP@@@CryptoPP@@@8 00422920     dlltest.obj
 0003:00001974       ??_R0?AVAsymmetricAlgorithm@CryptoPP@@@8 00422974     dlltest.obj
 0003:000019a0       ??_R0?AVPrivateKeyAlgorithm@CryptoPP@@@8 004229a0     dlltest.obj
 0003:000019cc       ??_R0?AVPK_SignatureScheme@CryptoPP@@@8 004229cc     dlltest.obj
 0003:000019f8       ??_R0?AVPK_Signer@CryptoPP@@@8 004229f8     dlltest.obj
 0003:00001a20       ??_R0?AV?$DL_SignatureSchemeBase@VPK_Signer@CryptoPP@@V?$DL_PrivateKey@VInteger@CryptoPP@@@2@@CryptoPP@@@8 00422a20     dlltest.obj
 0003:00001a90       ??_R0?AV?$DL_SignerBase@VInteger@CryptoPP@@@CryptoPP@@@8 00422a90     dlltest.obj
 0003:00001ad0       ??_R0?AV?$AlgorithmImpl@V?$DL_SignerBase@VInteger@CryptoPP@@@CryptoPP@@UDSA@2@@CryptoPP@@@8 00422ad0     dlltest.obj
 0003:00001b30       ??_R0?AV?$DL_ObjectImplBase@V?$DL_SignerBase@VInteger@CryptoPP@@@CryptoPP@@U?$DL_SignatureSchemeOptions@UDSA@CryptoPP@@UDL_Keys_DSA@2@V?$DL_Algorithm_GDSA@VInteger@CryptoPP@@@2@VDL_SignatureMessageEncodingMethod_DSA@2@VSHA1@2@@2@V?$DL_PrivateKey_WithSignaturePairwiseConsistencyTest@V?$DL_PrivateKey_GFP@VDL_GroupParameters_DSA@CryptoPP@@@CryptoPP@@UDSA@2@@2@@CryptoPP@@@8 00422b30     dlltest.obj
 0003:00001ca8       ??_R0?AV?$DL_ObjectImpl@V?$DL_SignerBase@VInteger@CryptoPP@@@CryptoPP@@U?$DL_SignatureSchemeOptions@UDSA@CryptoPP@@UDL_Keys_DSA@2@V?$DL_Algorithm_GDSA@VInteger@CryptoPP@@@2@VDL_SignatureMessageEncodingMethod_DSA@2@VSHA1@2@@2@V?$DL_PrivateKey_WithSignaturePairwiseConsistencyTest@V?$DL_PrivateKey_GFP@VDL_GroupParameters_DSA@CryptoPP@@@CryptoPP@@UDSA@2@@2@@CryptoPP@@@8 00422ca8     dlltest.obj
 0003:00001e20       ??_R0?AV?$DL_SignerImpl@U?$DL_SignatureSchemeOptions@UDSA@CryptoPP@@UDL_Keys_DSA@2@V?$DL_Algorithm_GDSA@VInteger@CryptoPP@@@2@VDL_SignatureMessageEncodingMethod_DSA@2@VSHA1@2@@CryptoPP@@@CryptoPP@@@8 00422e20     dlltest.obj
 0003:00001eec       ??_R0?AV?$ObjectHolder@VSHA1@CryptoPP@@@CryptoPP@@@8 00422eec     dlltest.obj
 0003:00001f24       ??_R0?AVHashTransformation@CryptoPP@@@8 00422f24     dlltest.obj
 0003:00001f50       ??_R0?AVPK_MessageAccumulator@CryptoPP@@@8 00422f50     dlltest.obj
 0003:00001f80       ??_R0?AVPK_MessageAccumulatorBase@CryptoPP@@@8 00422f80     dlltest.obj
 0003:00001fb8       ??_R0?AV?$PK_MessageAccumulatorImpl@VSHA1@CryptoPP@@@CryptoPP@@@8 00422fb8     dlltest.obj
 0003:00001ffc       ??_R0?AVPK_SignatureMessageEncodingMethod@CryptoPP@@@8 00422ffc     dlltest.obj
 0003:00002038       ??_R0?AVPK_DeterministicSignatureMessageEncodingMethod@CryptoPP@@@8 00423038     dlltest.obj
 0003:00002080       ??_R0?AVDL_SignatureMessageEncodingMethod_DSA@CryptoPP@@@8 00423080     dlltest.obj
 0003:000020c0       ??_R0?AV?$DL_Base@V?$DL_PublicKey@VInteger@CryptoPP@@@CryptoPP@@@CryptoPP@@@8 004230c0     dlltest.obj
 0003:00002110       ??_R0?AVPublicKeyAlgorithm@CryptoPP@@@8 00423110     dlltest.obj
 0003:0000213c       ??_R0?AVPK_Verifier@CryptoPP@@@8 0042313c     dlltest.obj
 0003:00002160       ??_R0?AV?$DL_SignatureSchemeBase@VPK_Verifier@CryptoPP@@V?$DL_PublicKey@VInteger@CryptoPP@@@2@@CryptoPP@@@8 00423160     dlltest.obj
 0003:000021d0       ??_R0?AV?$DL_VerifierBase@VInteger@CryptoPP@@@CryptoPP@@@8 004231d0     dlltest.obj
 0003:00002210       ??_R0?AV?$AlgorithmImpl@V?$DL_VerifierBase@VInteger@CryptoPP@@@CryptoPP@@UDSA@2@@CryptoPP@@@8 00423210     dlltest.obj
 0003:00002270       ??_R0?AV?$DL_ObjectImplBase@V?$DL_VerifierBase@VInteger@CryptoPP@@@CryptoPP@@U?$DL_SignatureSchemeOptions@UDSA@CryptoPP@@UDL_Keys_DSA@2@V?$DL_Algorithm_GDSA@VInteger@CryptoPP@@@2@VDL_SignatureMessageEncodingMethod_DSA@2@VSHA1@2@@2@V?$DL_PublicKey_GFP@VDL_GroupParameters_DSA@CryptoPP@@@2@@CryptoPP@@@8 00423270     dlltest.obj
 0003:000023a0       ??_R0?AV?$DL_ObjectImpl@V?$DL_VerifierBase@VInteger@CryptoPP@@@CryptoPP@@U?$DL_SignatureSchemeOptions@UDSA@CryptoPP@@UDL_Keys_DSA@2@V?$DL_Algorithm_GDSA@VInteger@CryptoPP@@@2@VDL_SignatureMessageEncodingMethod_DSA@2@VSHA1@2@@2@V?$DL_PublicKey_GFP@VDL_GroupParameters_DSA@CryptoPP@@@2@@CryptoPP@@@8 004233a0     dlltest.obj
 0003:000024d0       ??_R0?AV?$DL_VerifierImpl@U?$DL_SignatureSchemeOptions@UDSA@CryptoPP@@UDL_Keys_DSA@2@V?$DL_Algorithm_GDSA@VInteger@CryptoPP@@@2@VDL_SignatureMessageEncodingMethod_DSA@2@VSHA1@2@@CryptoPP@@@CryptoPP@@@8 004234d0     dlltest.obj
 0003:0000259c       ??_R0?AVNotImplemented@CryptoPP@@@8 0042359c     dlltest.obj
 0003:000025c4       ??_R0?AVWaitable@CryptoPP@@@8 004235c4     dlltest.obj
 0003:000025e4       ??_R0?AVBufferedTransformation@CryptoPP@@@8 004235e4     dlltest.obj
 0003:00002618       ??_R0?AV?$InputRejecting@VBufferedTransformation@CryptoPP@@@CryptoPP@@@8 00423618     dlltest.obj
 0003:00002668       ??_R0?AV?$AutoSignaling@V?$InputRejecting@VBufferedTransformation@CryptoPP@@@CryptoPP@@@CryptoPP@@@8 00423668     dlltest.obj
 0003:000026d0       ??_R0?AVStore@CryptoPP@@@8 004236d0     dlltest.obj
 0003:000026f0       ??_R0?AVStringStore@CryptoPP@@@8 004236f0     dlltest.obj
 0003:00002714       ??_R0?AVSelfTestFailure@CryptoPP@@@8 00423714     dlltest.obj
 0003:0000273b       ?_Sync@ios_base@std@@0_NA  0042373b     libcpmt:ios.obj
 0003:0000273c       ??_R0?AV?$_Iosb@H@std@@@8  0042373c     libcpmt:ios.obj
 0003:00002758       ??_R0?AVios_base@std@@@8   00423758     libcpmt:ios.obj
 0003:00002774       ??_R0?AVruntime_error@std@@@8 00423774     libcpmt:ios.obj
 0003:00002794       ??_R0?AVfailure@ios_base@std@@@8 00423794     libcpmt:ios.obj
 0003:000027b8       ??_R0?AVlogic_error@std@@@8 004237b8     libcpmt:string.obj
 0003:000027d8       ??_R0?AVlength_error@std@@@8 004237d8     libcpmt:string.obj
 0003:000027f8       ??_R0?AVout_of_range@std@@@8 004237f8     libcpmt:string.obj
 0003:00002818       ??_R0?AVfacet@locale@std@@@8 00423818     libcpmt:cerr.obj
 0003:00002838       ??_R0?AUctype_base@std@@@8 00423838     libcpmt:cerr.obj
 0003:00002858       ??_R0?AV?$basic_ios@DU?$char_traits@D@std@@@std@@@8 00423858     libcpmt:cerr.obj
 0003:00002890       ??_R0?AV?$basic_ostream@DU?$char_traits@D@std@@@std@@@8 00423890     libcpmt:cerr.obj
 0003:000028cc       ??_R0?AV?$ctype@D@std@@@8  004238cc     libcpmt:cerr.obj
 0003:000028e8       ??_R0?AV?$basic_streambuf@DU?$char_traits@D@std@@@std@@@8 004238e8     libcpmt:cerr.obj
 0003:00002924       ??_R0?AVbad_cast@@@8       00423924     libcpmt:cerr.obj
 0003:0000293c       ??_R0?AV?$basic_filebuf@DU?$char_traits@D@std@@@std@@@8 0042393c     libcpmt:cerr.obj
 0003:00002978       ??_R0?AVcodecvt_base@std@@@8 00423978     libcpmt:cerr.obj
 0003:00002998       ??_R0?AV?$codecvt@DDH@std@@@8 00423998     libcpmt:cerr.obj
 0003:000029bc       ??_R0?AV_Locimp@locale@std@@@8 004239bc     libcpmt:locale0.obj
 0003:000029e8       ?_PJP_CPP_Copyright@@3PADA 004239e8     libcpmt:iosptrs.obj
 0003:00002a50       ??_R0?AVtype_info@@@8      00423a50     LIBCMT:typinfo.obj
 0003:00002a68       __NLG_Destination          00423a68     LIBCMT:exsup.obj
 0003:00002a78       ?__pMyUnhandledExceptionFilter@@3PAXA 00423a78     LIBCMT:throw.obj
 0003:00002a7c       ??_R0?AVbad_typeid@@@8     00423a7c     LIBCMT:stdexcpt.obj
 0003:00002a98       ??_R0?AV__non_rtti_object@@@8 00423a98     LIBCMT:stdexcpt.obj
 0003:00002ac0       ___security_cookie         00423ac0     LIBCMT:seccook.obj
 0003:00002ac4       __aexit_rtn                00423ac4     LIBCMT:crt0.obj
 0003:00002ac8       ___app_type                00423ac8     LIBCMT:crt0.obj
 0003:00002ad0       __iob                      00423ad0     LIBCMT:_file.obj
 0003:00002d58       ___initiallocinfo          00423d58     LIBCMT:setlocal.obj
 0003:00002dac       ___ptlocinfo               00423dac     LIBCMT:setlocal.obj
 0003:00002ee8       ___lc_category             00423ee8     LIBCMT:setlocal.obj
 0003:00002f30       __pctype                   00423f30     LIBCMT:ctype.obj
 0003:00002f34       __pwctype                  00423f34     LIBCMT:ctype.obj
 0003:00003060       ___tlsindex                00424060     LIBCMT:tidtable.obj
 0003:00003064       ?__pInconsistency@@3P6AXXZA 00424064     LIBCMT:hooks.obj
 0003:00003108       __XcptActTab               00424108     LIBCMT:winxfltr.obj
 0003:00003180       __First_FPE_Indx           00424180     LIBCMT:winxfltr.obj
 0003:00003184       __Num_FPE                  00424184     LIBCMT:winxfltr.obj
 0003:00003188       __XcptActTabSize           00424188     LIBCMT:winxfltr.obj
 0003:0000318c       __XcptActTabCount          0042418c     LIBCMT:winxfltr.obj
 0003:00003190       ___badioinfo               00424190     LIBCMT:ioinit.obj
 0003:000031b4       __amblksiz                 004241b4     LIBCMT:heapinit.obj
 0003:00003328       ___lc_time_curr            00424328     LIBCMT:strftime.obj
 0003:00003330       ___lc_time_c               00424330     LIBCMT:strftime.obj
 0003:000033e8       ___lconv_static_decimal    004243e8     LIBCMT:lconv.obj
 0003:000033ec       ___lconv_c                 004243ec     LIBCMT:lconv.obj
 0003:0000341c       ___lconv                   0042441c     LIBCMT:lconv.obj
 0003:00003420       ___lc_clike                00424420     LIBCMT:nlsdata2.obj
 0003:00003430       ___mb_cur_max              00424430     LIBCMT:nlsdata1.obj
 0003:00003434       ___decimal_point           00424434     LIBCMT:nlsdata1.obj
 0003:00003438       ___decimal_point_length    00424438     LIBCMT:nlsdata1.obj
 0003:00003538       __timezone                 00424538     LIBCMT:timeset.obj
 0003:0000353c       __daylight                 0042453c     LIBCMT:timeset.obj
 0003:00003540       __dstbias                  00424540     LIBCMT:timeset.obj
 0003:000035c8       __tzname                   004245c8     LIBCMT:timeset.obj
 0003:000035f0       __lpdays                   004245f0     LIBCMT:days.obj
 0003:00003624       __days                     00424624     LIBCMT:days.obj
 0003:00003678       ?id@?$codecvt@DDH@std@@2V0locale@2@A 00424678     dlltest.obj
 0003:00003680       ?_Fpz@std@@3_JA            00424680     libcpmt:ios.obj
 0003:00003688       ?_Index@ios_base@std@@0HA  00424688     libcpmt:ios.obj
 0003:000036d4       ?_Stz@?$fpos@H@std@@0HA    004246d4     libcpmt:cerr.obj
 0003:000036d8       ?_Psave@?$_Facetptr@V?$ctype@D@std@@@std@@2PBVfacet@locale@2@B 004246d8     libcpmt:cerr.obj
 0003:000036dc       ?_Stinit@?1??_Init@?$basic_filebuf@DU?$char_traits@D@std@@@std@@IAEXPAU_iobuf@@W4_Initfl@23@@Z@4HA 004246dc     libcpmt:cerr.obj
 0003:000036e0       ?_Psave@?$_Facetptr@V?$codecvt@DDH@std@@@std@@2PBVfacet@locale@2@B 004246e0     libcpmt:cerr.obj
 0003:00003748       ?cerr@std@@3V?$basic_ostream@DU?$char_traits@D@std@@@1@A 00424748     libcpmt:cerr.obj
 0003:000037e0       ?cout@std@@3V?$basic_ostream@DU?$char_traits@D@std@@@1@A 004247e0     libcpmt:cout.obj
 0003:00003884       ?_Clocptr@_Locimp@locale@std@@0PAV123@A 00424884     libcpmt:locale0.obj
 0003:00003888       ?_Id_cnt@id@locale@std@@0HA 00424888     libcpmt:locale0.obj
 0003:00003890       ?id@?$ctype@D@std@@2V0locale@2@A 00424890     libcpmt:locale0.obj
 0003:00003894       ?id@?$codecvt@GDH@std@@2V0locale@2@A 00424894     libcpmt:locale0.obj
 0003:00003898       ?id@?$ctype@G@std@@2V0locale@2@A 00424898     libcpmt:locale0.obj
 0003:0000389c       ?id@?$codecvt@_WDH@std@@2V0locale@2@A 0042489c     libcpmt:locale0.obj
 0003:000038a0       ?id@?$ctype@_W@std@@2V0locale@2@A 004248a0     libcpmt:locale0.obj
 0003:000038a8       ?_Ptr_cin@std@@3PAV?$basic_istream@DU?$char_traits@D@std@@@1@A 004248a8     libcpmt:iosptrs.obj
 0003:000038ac       ?_Ptr_cout@std@@3PAV?$basic_ostream@DU?$char_traits@D@std@@@1@A 004248ac     libcpmt:iosptrs.obj
 0003:000038b0       ?_Ptr_cerr@std@@3PAV?$basic_ostream@DU?$char_traits@D@std@@@1@A 004248b0     libcpmt:iosptrs.obj
 0003:000038b4       ?_Ptr_clog@std@@3PAV?$basic_ostream@DU?$char_traits@D@std@@@1@A 004248b4     libcpmt:iosptrs.obj
 0003:000038b8       ?_Ptr_wcin@std@@3PAV?$basic_istream@_WU?$char_traits@_W@std@@@1@A 004248b8     libcpmt:iosptrs.obj
 0003:000038bc       ?_Ptr_wcout@std@@3PAV?$basic_ostream@_WU?$char_traits@_W@std@@@1@A 004248bc     libcpmt:iosptrs.obj
 0003:000038c0       ?_Ptr_wcerr@std@@3PAV?$basic_ostream@_WU?$char_traits@_W@std@@@1@A 004248c0     libcpmt:iosptrs.obj
 0003:000038c4       ?_Ptr_wclog@std@@3PAV?$basic_ostream@_WU?$char_traits@_W@std@@@1@A 004248c4     libcpmt:iosptrs.obj
 0003:000038f4       ___pPurecall               004248f4     LIBCMT:purevirt.obj
 0003:000038f8       __aenvptr                  004248f8     LIBCMT:crt0.obj
 0003:000038fc       __wenvptr                  004248fc     LIBCMT:crt0.obj
 0003:00003900       ___error_mode              00424900     LIBCMT:crt0.obj
 0003:00003904       __cflush                   00424904     LIBCMT:_file.obj
 0003:00003a68       _gpFlsAlloc                00424a68     LIBCMT:tidtable.obj
 0003:00003a6c       _gpFlsGetValue             00424a6c     LIBCMT:tidtable.obj
 0003:00003a70       _gpFlsSetValue             00424a70     LIBCMT:tidtable.obj
 0003:00003a74       _gpFlsFree                 00424a74     LIBCMT:tidtable.obj
 0003:00003a7c       __umaskval                 00424a7c     LIBCMT:crt0dat.obj
 0003:00003a80       __osplatform               00424a80     LIBCMT:crt0dat.obj
 0003:00003a84       __osver                    00424a84     LIBCMT:crt0dat.obj
 0003:00003a88       __winver                   00424a88     LIBCMT:crt0dat.obj
 0003:00003a8c       __winmajor                 00424a8c     LIBCMT:crt0dat.obj
 0003:00003a90       __winminor                 00424a90     LIBCMT:crt0dat.obj
 0003:00003a94       ___argc                    00424a94     LIBCMT:crt0dat.obj
 0003:00003a98       ___argv                    00424a98     LIBCMT:crt0dat.obj
 0003:00003a9c       ___wargv                   00424a9c     LIBCMT:crt0dat.obj
 0003:00003aa0       __environ                  00424aa0     LIBCMT:crt0dat.obj
 0003:00003aa4       ___initenv                 00424aa4     LIBCMT:crt0dat.obj
 0003:00003aa8       __wenviron                 00424aa8     LIBCMT:crt0dat.obj
 0003:00003aac       ___winitenv                00424aac     LIBCMT:crt0dat.obj
 0003:00003ab0       __pgmptr                   00424ab0     LIBCMT:crt0dat.obj
 0003:00003ab4       __wpgmptr                  00424ab4     LIBCMT:crt0dat.obj
 0003:00003ab8       __exitflag                 00424ab8     LIBCMT:crt0dat.obj
 0003:00003abc       __C_Termination_Done       00424abc     LIBCMT:crt0dat.obj
 0003:00003ac0       __C_Exit_Done              00424ac0     LIBCMT:crt0dat.obj
 0003:00003ad8       __adbgmsg                  00424ad8     LIBCMT:crt0msg.obj
 0003:00003bec       ___lconv_static_null       00424bec     LIBCMT:lconv.obj
 0003:00003bf0       ___lc_time_intl            00424bf0     LIBCMT:inittime.obj
 0003:00003bf4       ___lconv_intl              00424bf4     LIBCMT:initmon.obj
 0003:00003c1c       ___lc_handle               00424c1c     LIBCMT:nlsdata2.obj
 0003:00003c34       ___lc_codepage             00424c34     LIBCMT:nlsdata2.obj
 0003:00003c38       ___lc_collate_cp           00424c38     LIBCMT:nlsdata2.obj
 0003:00003c40       ___lc_id                   00424c40     LIBCMT:nlsdata3.obj
 0003:00003c70       ?_pnhHeap@@3P6AHI@ZA       00424c70     LIBCMT:handler.obj
 0003:00003c74       __newmode                  00424c74     LIBCMT:_newmode.obj
 0003:00003da4       ___mblcid                  00424da4     <common>
 0003:00003da8       ___ptmbcinfo               00424da8     <common>
 0003:00003dac       ___ismbcodepage            00424dac     <common>
 0003:00003dc0       __mbctype                  00424dc0     <common>
 0003:00003ec4       ___mbcodepage              00424ec4     <common>
 0003:00003ed0       ___mbulinfo                00424ed0     <common>
 0003:00003ee0       __mbcasemap                00424ee0     <common>
 0003:00003fe0       ___lconv_mon_refcount      00424fe0     <common>
 0003:00003fe4       ___lconv_intl_refcount     00424fe4     <common>
 0003:00003fe8       ___lconv_num_refcount      00424fe8     <common>
 0003:00003fec       ___sbh_initialized         00424fec     <common>
 0003:00003ff0       ___sbh_pHeaderDefer        00424ff0     <common>
 0003:00003ff4       ___sbh_cntHeaderList       00424ff4     <common>
 0003:00003ff8       ___sbh_pHeaderList         00424ff8     <common>
 0003:00003ffc       ___sbh_threshold           00424ffc     <common>
 0003:00004000       ___sbh_pHeaderScan         00425000     <common>
 0003:00004004       ___sbh_sizeHeaderList      00425004     <common>
 0003:00004008       ___sbh_indGroupDefer       00425008     <common>
 0003:0000400c       __crtheap                  0042500c     <common>
 0003:00004010       ___active_heap             00425010     <common>
 0003:00004014       __nhandle                  00425014     <common>
 0003:00004020       ___pioinfo                 00425020     <common>
 0003:00004120       ___env_initialized         00425120     <common>
 0003:00004124       ___onexitend               00425124     <common>
 0003:00004128       ___onexitbegin             00425128     <common>
 0003:0000412c       ___mbctype_initialized     0042512c     <common>
 0003:00004130       __FPinit                   00425130     <common>
 0003:00004134       ___ctype1                  00425134     <common>
 0003:00004138       ___ctype1_refcount         00425138     <common>
 0003:0000413c       ___setlc_active            0042513c     <common>
 0003:00004140       ___unguarded_readlc_active 00425140     <common>
 0003:00004144       ___piob                    00425144     <common>
 0003:00004160       __bufin                    00425160     <common>
 0003:00005160       __nstream                  00426160     <common>
 0003:00005164       __acmdln                   00426164     <common>

 entry point at        0001:00006add

 Static symbols

 0001:fffff000       $L12775                    00400000 f   libcpmt:cout.obj
 0001:fffff000       $L13079                    00400000 f   libcpmt:cout.obj
 0001:fffff000       __ehhandler$?_Copy@?$basic_string@DU?$char_traits@D@std@@V?$allocator@D@2@@std@@IAEXII@Z 00400000 f   libcpmt:string.obj
 0001:fffff000       __ehhandler$?_Copy@?$basic_string@DU?$char_traits@D@std@@V?$allocator@D@2@@std@@IAEXII@Z 00400000 f   libcpmt:cerr.obj
 0001:fffff000       __ehhandler$?_Copy@?$basic_string@DU?$char_traits@D@std@@V?$allocator@D@2@@std@@IAEXII@Z 00400000 f   libcpmt:cout.obj
 0001:fffff000       $L12788                    00400000 f   libcpmt:cout.obj
 0001:fffff000       __ehhandler$?_Copy@?$basic_string@DU?$char_traits@D@std@@V?$allocator@D@2@@std@@IAEXII@Z 00400000 f   libcpmt:locale0.obj
 0001:fffff000       $L13187                    00400000 f   libcpmt:cout.obj
 0001:fffff000       $L12731                    00400000 f   libcpmt:cout.obj
 0001:fffff000       $L13234                    00400000 f   libcpmt:cout.obj
 0001:fffff000       $L13663                    00400000 f   libcpmt:cout.obj
 0001:fffff000       $L13105                    00400000 f   libcpmt:cout.obj
 0001:fffff000       $L14229                    00400000 f   libcpmt:cout.obj
 0001:fffff000       $L12442                    00400000 f   libcpmt:cout.obj
 0001:fffff000       $L13868                    00400000 f   libcpmt:cout.obj
 0001:fffff000       __ehhandler$?_Copy@?$basic_string@DU?$char_traits@D@std@@V?$allocator@D@2@@std@@IAEXII@Z 00400000 f   libcpmt:ios.obj
 0001:fffff000       $L12389                    00400000 f   libcpmt:cout.obj
 0001:fffff008       __ehhandler$??0?$ctype@D@std@@QAE@PBF_NI@Z 00400008 f   libcpmt:cout.obj
 0001:fffff008       __ehhandler$?overflow@?$basic_filebuf@DU?$char_traits@D@std@@@std@@MAEHH@Z 00400008 f   libcpmt:cout.obj
 0001:fffff008       __ehhandler$?widen@?$basic_ios@DU?$char_traits@D@std@@@std@@QBEDD@Z 00400008 f   libcpmt:cout.obj
 0001:fffff008       __ehhandler$??1?$basic_filebuf@DU?$char_traits@D@std@@@std@@UAE@XZ 00400008 f   libcpmt:cout.obj
 0001:fffff008       __ehhandler$??$use_facet@V?$ctype@D@std@@@std@@YAABV?$ctype@D@0@ABVlocale@0@@Z 00400008 f   libcpmt:cout.obj
 0001:fffff008       __ehhandler$??$use_facet@V?$codecvt@DDH@std@@@std@@YAABV?$codecvt@DDH@0@ABVlocale@0@@Z 00400008 f   libcpmt:cout.obj
 0001:fffff008       __ehhandler$?_Endwrite@?$basic_filebuf@DU?$char_traits@D@std@@@std@@IAE_NXZ 00400008 f   libcpmt:cout.obj
 0001:fffff00a       $L13237                    0040000a f   libcpmt:cout.obj
 0001:fffff00a       __ehhandler$?_Initcvt@?$basic_filebuf@DU?$char_traits@D@std@@@std@@IAEXPAV?$codecvt@DDH@2@@Z 0040000a f   libcpmt:cout.obj
 0001:fffff00a       __ehhandler$?_Getcat@?$ctype@D@std@@SAIPAPBVfacet@locale@2@@Z 0040000a f   libcpmt:cout.obj
 0001:fffff00b       __ehhandler$??0?$basic_streambuf@DU?$char_traits@D@std@@@std@@IAE@XZ 0040000b f   libcpmt:cout.obj
 0001:fffff012       __ehhandler$?_Getcat@?$codecvt@DDH@std@@SAIPAPBVfacet@locale@2@@Z 00400012 f   libcpmt:cout.obj
 0001:fffff01c       __ehhandler$??0?$basic_ostream@DU?$char_traits@D@std@@@std@@QAE@PAV?$basic_streambuf@DU?$char_traits@D@std@@@1@_N@Z 0040001c f   libcpmt:cout.obj
 0001:fffff05f       $L12682                    0040005f f   libcpmt:locale0.obj
 0001:fffff05f       $L11471                    0040005f f   libcpmt:string.obj
 0001:fffff05f       $L8367                     0040005f f   libcpmt:ios.obj
 0001:fffff05f       $L12801                    0040005f f   libcpmt:cout.obj
 0001:fffff05f       $L12794                    0040005f f   libcpmt:cerr.obj
 0001:fffff0d3       $L11473                    004000d3 f   libcpmt:string.obj
 0001:fffff0d3       $L12796                    004000d3 f   libcpmt:cerr.obj
 0001:fffff0d3       $L8369                     004000d3 f   libcpmt:ios.obj
 0001:fffff0d3       $L12684                    004000d3 f   libcpmt:locale0.obj
 0001:fffff0d3       $L12803                    004000d3 f   libcpmt:cout.obj
 0001:0000093c       $L64987                    0040193c f i dlltest.obj
 0001:000009b5       $L64989                    004019b5 f i dlltest.obj
 0001:00000e2d       $L65574                    00401e2d f i dlltest.obj
 0001:00000ee3       $L65919                    00401ee3 f i dlltest.obj
 0001:0000206a       $L67556                    0040306a f   dlltest.obj
 0001:00002658       $L67558                    00403658 f   dlltest.obj
 0001:00004e9a       _tidy_global               00405e9a f   libcpmt:locale0.obj
 0001:000061a4       ?CatchGuardHandler@@YA?AW4_EXCEPTION_DISPOSITION@@PAUEHExceptionRecord@@PAUCatchGuardRN@@PAX2@Z 004071a4 f   LIBCMT:trnsctrl.obj
 0001:000062a6       ?TranslatorGuardHandler@@YA?AW4_EXCEPTION_DISPOSITION@@PAUEHExceptionRecord@@PAUTranslatorGuardRN@@PAX2@Z 004072a6 f   LIBCMT:trnsctrl.obj
 0001:000064c0       $$$00001                   004074c0 f   LIBCMT:exsup.obj
 0001:000064e0       $$$00003                   004074e0 f   LIBCMT:exsup.obj
 0001:000064e0       __unwind_handler           004074e0 f   LIBCMT:exsup.obj
 0001:00006502       $$$00005                   00407502 f   LIBCMT:exsup.obj
 0001:0000656a       $$$00007                   0040756a f   LIBCMT:exsup.obj
 0001:000065ae       $$$00011                   004075ae f   LIBCMT:exsup.obj
 0001:00006806       __onexit_lk                00407806 f   LIBCMT:onexit.obj
 0001:000069c8       _report_failure            004079c8 f   LIBCMT:secchk.obj
 0001:00006a63       _fast_error_exit           00407a63 f   LIBCMT:crt0.obj
 0001:00006a87       _check_managed_app         00407a87 f   LIBCMT:crt0.obj
 0001:00006c9d       ?TypeMatch@@YAHPBU_s_HandlerType@@PBU_s_CatchableType@@PBU_s_ThrowInfo@@@Z 00407c9d f   LIBCMT:frame.obj
 0001:00006cec       ?FrameUnwindFilter@@YAHPAU_EXCEPTION_POINTERS@@@Z 00407cec f   LIBCMT:frame.obj
 0001:00006dd8       ?ExFilterRethrow@@YAHPAU_EXCEPTION_POINTERS@@@Z 00407dd8 f   LIBCMT:frame.obj
 0001:00006e4d       ?AdjustPointer@@YAPAXPAXABUPMD@@@Z 00407e4d f   LIBCMT:frame.obj
 0001:00007061       ?CallCatchBlock@@YAPAXPAUEHExceptionRecord@@PAUEHRegistrationNode@@PAU_CONTEXT@@PBU_s_FuncInfo@@PAXHK@Z 00408061 f   LIBCMT:frame.obj
 0001:00007225       ?BuildCatchObject@@YAXPAUEHExceptionRecord@@PAXPBU_s_HandlerType@@PBU_s_CatchableType@@@Z 00408225 f   LIBCMT:frame.obj
 0001:000074c6       ?CatchIt@@YAXPAUEHExceptionRecord@@PAUEHRegistrationNode@@PAU_CONTEXT@@PAXPBU_s_FuncInfo@@PBU_s_HandlerType@@PBU_s_CatchableType@@PBU_s_TryBlockMapEntry@@H1E@Z 004084c6 f   LIBCMT:frame.obj
 0001:0000752d       ?FindHandlerForForeignException@@YAXPAUEHExceptionRecord@@PAUEHRegistrationNode@@PAU_CONTEXT@@PAXPBU_s_FuncInfo@@HH1@Z 0040852d f   LIBCMT:frame.obj
 0001:000075eb       ?FindHandler@@YAXPAUEHExceptionRecord@@PAUEHRegistrationNode@@PAU_CONTEXT@@PAXPBU_s_FuncInfo@@EH1@Z 004085eb f   LIBCMT:frame.obj
 0001:00007add       _flsall                    00408add f   LIBCMT:fflush.obj
 0001:00008351       ___updatetlocinfo_lk       00409351 f   LIBCMT:setlocal.obj
 0001:0000859e       __setlocale_get_all        0040959e f   LIBCMT:setlocal.obj
 0001:000087b9       __setlocale_set_cat        004097b9 f   LIBCMT:setlocal.obj
 0001:00008a48       __setlocale_lk             00409a48 f   LIBCMT:setlocal.obj
 0001:00008d7b       _strncnt                   00409d7b f   LIBCMT:a_map.obj
 0001:00009a25       $$$00003                   0040aa25 f   LIBCMT:exsup3.obj
 0001:0000a1f7       __initterm                 0040b1f7 f   LIBCMT:crt0dat.obj
 0001:0000a20f       __initterm_e               0040b20f f   LIBCMT:crt0dat.obj
 0001:0000a297       _doexit                    0040b297 f   LIBCMT:crt0dat.obj
 0001:0000a410       _ctrlevent_capture@4       0040b410 f   LIBCMT:winsig.obj
 0001:0000a49f       _siglookup                 0040b49f f   LIBCMT:winsig.obj
 0001:0000abad       _xcptlookup                0040bbad f   LIBCMT:winxfltr.obj
 0001:0000ae1f       _parse_cmdline             0040be1f f   LIBCMT:stdargv.obj
 0001:0000d685       __store_str                0040e685 f   LIBCMT:strftime.obj
 0001:0000d6a5       __store_number             0040e6a5 f   LIBCMT:strftime.obj
 0001:0000d6db       __store_num                0040e6db f   LIBCMT:strftime.obj
 0001:0000d754       __expandtime               0040e754 f   LIBCMT:strftime.obj
 0001:0000d9ba       __store_winword            0040e9ba f   LIBCMT:strftime.obj
 0001:0000df5c       __get_lc_time              0040ef5c f   LIBCMT:inittime.obj
 0001:0000e4b2       _fix_grouping              0040f4b2 f   LIBCMT:initnum.obj
 0001:0000e711       _fix_grouping              0040f711 f   LIBCMT:initmon.obj
 0001:0000ebd4       _TranslateName             0040fbd4 f   LIBCMT:getqloc.obj
 0001:0000ec34       _GetLcidFromDefault        0040fc34 f   LIBCMT:getqloc.obj
 0001:0000ec4e       _ProcessCodePage           0040fc4e f   LIBCMT:getqloc.obj
 0001:0000ecc4       _TestDefaultCountry        0040fcc4 f   LIBCMT:getqloc.obj
 0001:0000ece2       _crtGetLocaleInfoA@16      0040fce2 f   LIBCMT:getqloc.obj
 0001:0000edc5       _LcidFromHexString         0040fdc5 f   LIBCMT:getqloc.obj
 0001:0000edfa       _GetPrimaryLen             0040fdfa f   LIBCMT:getqloc.obj
 0001:0000ee17       _CountryEnumProc@4         0040fe17 f   LIBCMT:getqloc.obj
 0001:0000eeab       _TestDefaultLanguage       0040feab f   LIBCMT:getqloc.obj
 0001:0000ef1c       _LangCountryEnumProc@4     0040ff1c f   LIBCMT:getqloc.obj
 0001:0000f136       _LanguageEnumProc@4        00410136 f   LIBCMT:getqloc.obj
 0001:0000f201       _GetLcidFromCountry        00410201 f   LIBCMT:getqloc.obj
 0001:0000f238       _GetLcidFromLangCountry    00410238 f   LIBCMT:getqloc.obj
 0001:0000f2be       _GetLcidFromLanguage       004102be f   LIBCMT:getqloc.obj
 0001:0000fbc4       ___crtInitCritSecNoSpinCount@8 00410bc4 f   LIBCMT:initcrit.obj
 0001:0000fecd       _getSystemCP               00410ecd f   LIBCMT:mbctype.obj
 0001:0000ff13       _CPtoLCID                  00410f13 f   LIBCMT:mbctype.obj
 0001:0000ff42       _setSBCS                   00410f42 f   LIBCMT:mbctype.obj
 0001:0000ff6b       _setSBUpLow                00410f6b f   LIBCMT:mbctype.obj
 0001:00010166       __setmbcp_lk               00411166 f   LIBCMT:mbctype.obj
 0001:00010d9f       __tzset_lk                 00411d9f f   LIBCMT:tzset.obj
 0001:00011047       _cvtdate                   00412047 f   LIBCMT:tzset.obj
 0001:000111ff       __isindst_lk               004121ff f   LIBCMT:tzset.obj
 0001:000116ba       _xtoa                      004126ba f   LIBCMT:xtoa.obj
 0001:00011763       _x64toa@20                 00412763 f   LIBCMT:xtoa.obj
 0001:00011e63       _strncnt                   00412e63 f   LIBCMT:a_cmp.obj
 0001:00012203       _findenv                   00413203 f   LIBCMT:setenv.obj
 0001:00012250       _copy_environ              00413250 f   LIBCMT:setenv.obj
 0001:00012530       _$$$00001                  00413530 f   LIBCMT:strchr.obj
 0001:000127f6       $L64507                    004137f6 f   dlltest.obj
 0001:000127ff       __ehhandler$??0?$DL_SignatureSchemeBase@VPK_Signer@CryptoPP@@V?$DL_PrivateKey@VInteger@CryptoPP@@@2@@CryptoPP@@QAE@XZ 004137ff f   dlltest.obj
 0001:00012809       $L64549                    00413809 f   dlltest.obj
 0001:00012812       __ehhandler$??0?$DL_SignatureSchemeBase@VPK_Verifier@CryptoPP@@V?$DL_PublicKey@VInteger@CryptoPP@@@2@@CryptoPP@@QAE@XZ 00413812 f   dlltest.obj
 0001:0001281c       $L64716                    0041381c f   dlltest.obj
 0001:00012826       $L64717                    00413826 f   dlltest.obj
 0001:0001282e       __ehhandler$??$?RVConstByteArrayParameter@CryptoPP@@@AlgorithmParameters@CryptoPP@@QAEAAV01@PBDABVConstByteArrayParameter@1@_N@Z 0041382e f   dlltest.obj
 0001:00012838       $L64877                    00413838 f   dlltest.obj
 0001:00012842       __ehhandler$?Clone@?$ClonableImpl@V?$BlockCipherFinal@$0A@VEnc@Rijndael@CryptoPP@@@CryptoPP@@VEnc@Rijndael@2@@CryptoPP@@UBEPAVClonable@2@XZ 00413842 f   dlltest.obj
 0001:0001284c       $L64903                    0041384c f   dlltest.obj
 0001:00012856       __ehhandler$?Clone@?$ClonableImpl@V?$BlockCipherFinal@$0A@VBase@DES_EDE3@CryptoPP@@@CryptoPP@@VBase@DES_EDE3@2@@CryptoPP@@UBEPAVClonable@2@XZ 00413856 f   dlltest.obj
 0001:00012860       $L64943                    00413860 f   dlltest.obj
 0001:00012868       __ehhandler$??0sentry@?$basic_ostream@DU?$char_traits@D@std@@@std@@QAE@AAV12@@Z 00413868 f   dlltest.obj
 0001:00012872       __ehhandler$?_Copy@?$basic_string@DU?$char_traits@D@std@@V?$allocator@D@2@@std@@IAEXII@Z 00413872 f   dlltest.obj
 0001:0001287c       $L65088                    0041387c f   dlltest.obj
 0001:00012885       $L65089                    00413885 f   dlltest.obj
 0001:0001289f       __ehhandler$??$MakeParameters@VConstByteArrayParameter@CryptoPP@@@CryptoPP@@YG?AVAlgorithmParameters@0@PBDABVConstByteArrayParameter@0@_N@Z 0041389f f   dlltest.obj
 0001:000128a9       $L65100                    004138a9 f   dlltest.obj
 0001:000128bd       __ehhandler$??1?$CipherModeFinalTemplate_CipherHolder@V?$BlockCipherFinal@$0A@VBase@DES_EDE3@CryptoPP@@@CryptoPP@@V?$ConcretePolicyHolder@VEmpty@CryptoPP@@V?$CFB_RequireFullDataBlocks@V?$CFB_EncryptionTemplate@V?$AbstractPolicyHolder@VCFB_CipherAbstractPolicy@CryptoPP@@VCFB_ModePolicy@2@@CryptoPP@@@CryptoPP@@@2@VCFB_CipherAbstractPolicy@2@@2@@CryptoPP@@UAE@XZ 004138bd f   dlltest.obj
 0001:000128c7       $L65147                    004138c7 f   dlltest.obj
 0001:000128db       __ehhandler$??1?$CipherModeFinalTemplate_CipherHolder@V?$BlockCipherFinal@$0A@VBase@DES_EDE3@CryptoPP@@@CryptoPP@@V?$ConcretePolicyHolder@VEmpty@CryptoPP@@V?$CFB_RequireFullDataBlocks@V?$CFB_DecryptionTemplate@V?$AbstractPolicyHolder@VCFB_CipherAbstractPolicy@CryptoPP@@VCFB_ModePolicy@2@@CryptoPP@@@CryptoPP@@@2@VCFB_CipherAbstractPolicy@2@@2@@CryptoPP@@UAE@XZ 004138db f   dlltest.obj
 0001:000128e5       $L65194                    004138e5 f   dlltest.obj
 0001:000128f9       __ehhandler$??1?$CipherModeFinalTemplate_CipherHolder@V?$BlockCipherFinal@$0A@VBase@DES_EDE3@CryptoPP@@@CryptoPP@@VECB_OneWay@2@@CryptoPP@@UAE@XZ 004138f9 f   dlltest.obj
 0001:00012903       $L65429                    00413903 f   dlltest.obj
 0001:0001290e       $L65430                    0041390e f   dlltest.obj
 0001:00012916       __ehhandler$??0?$CipherModeFinalTemplate_CipherHolder@V?$BlockCipherFinal@$0A@VBase@DES_EDE3@CryptoPP@@@CryptoPP@@V?$ConcretePolicyHolder@VEmpty@CryptoPP@@V?$CFB_RequireFullDataBlocks@V?$CFB_EncryptionTemplate@V?$AbstractPolicyHolder@VCFB_CipherAbstractPolicy@CryptoPP@@VCFB_ModePolicy@2@@CryptoPP@@@CryptoPP@@@2@VCFB_CipherAbstractPolicy@2@@2@@CryptoPP@@QAE@XZ 00413916 f   dlltest.obj
 0001:00012920       $L65452                    00413920 f   dlltest.obj
 0001:0001292b       $L65453                    0041392b f   dlltest.obj
 0001:00012933       __ehhandler$??0?$CipherModeFinalTemplate_CipherHolder@V?$BlockCipherFinal@$0A@VBase@DES_EDE3@CryptoPP@@@CryptoPP@@V?$ConcretePolicyHolder@VEmpty@CryptoPP@@V?$CFB_RequireFullDataBlocks@V?$CFB_DecryptionTemplate@V?$AbstractPolicyHolder@VCFB_CipherAbstractPolicy@CryptoPP@@VCFB_ModePolicy@2@@CryptoPP@@@CryptoPP@@@2@VCFB_CipherAbstractPolicy@2@@2@@CryptoPP@@QAE@XZ 00413933 f   dlltest.obj
 0001:0001293d       $L65475                    0041393d f   dlltest.obj
 0001:00012948       $L65476                    00413948 f   dlltest.obj
 0001:00012950       __ehhandler$??0?$CipherModeFinalTemplate_CipherHolder@V?$BlockCipherFinal@$0A@VBase@DES_EDE3@CryptoPP@@@CryptoPP@@VECB_OneWay@2@@CryptoPP@@QAE@XZ 00413950 f   dlltest.obj
 0001:0001295a       $L65520                    0041395a f   dlltest.obj
 0001:00012962       __ehhandler$??1sentry@?$basic_ostream@DU?$char_traits@D@std@@@std@@QAE@XZ 00413962 f   dlltest.obj
 0001:0001296c       $L65575                    0041396c f   dlltest.obj
 0001:00012974       __ehhandler$??$?6U?$char_traits@D@std@@@std@@YAAAV?$basic_ostream@DU?$char_traits@D@std@@@0@AAV10@PBD@Z 00413974 f   dlltest.obj
 0001:0001297e       $L65920                    0041397e f   dlltest.obj
 0001:00012986       __ehhandler$?put@?$basic_ostream@DU?$char_traits@D@std@@@std@@QAEAAV12@D@Z 00413986 f   dlltest.obj
 0001:00012990       $L66731                    00413990 f   dlltest.obj
 0001:00012998       __ehhandler$?memcpy_s@CryptoPP@@YGXPAXIPBXI@Z 00413998 f   dlltest.obj
 0001:000129a2       $L66804                    004139a2 f   dlltest.obj
 0001:000129ac       $L66810                    004139ac f   dlltest.obj
 0001:000129b5       __ehhandler$?NewSignatureAccumulator@?$DL_SignerImpl@U?$DL_SignatureSchemeOptions@UDSA@CryptoPP@@UDL_Keys_DSA@2@V?$DL_Algorithm_GDSA@VInteger@CryptoPP@@@2@VDL_SignatureMessageEncodingMethod_DSA@2@VSHA1@2@@CryptoPP@@@CryptoPP@@UBEPAVPK_MessageAccumulator@2@AAVRandomNumberGenerator@2@@Z 004139b5 f   dlltest.obj
 0001:000129bf       $L66863                    004139bf f   dlltest.obj
 0001:000129c8       __ehhandler$??1?$PK_MessageAccumulatorImpl@VSHA1@CryptoPP@@@CryptoPP@@UAE@XZ 004139c8 f   dlltest.obj
 0001:000129d2       $L66984                    004139d2 f   dlltest.obj
 0001:000129da       $L66985                    004139da f   dlltest.obj
 0001:000129e6       $L66986                    004139e6 f   dlltest.obj
 0001:000129f2       $L66987                    004139f2 f   dlltest.obj
 0001:000129fe       $L66988                    004139fe f   dlltest.obj
 0001:00012a0a       $L66989                    00413a0a f   dlltest.obj
 0001:00012a13       $L66990                    00413a13 f   dlltest.obj
 0001:00012a1c       $L66991                    00413a1c f   dlltest.obj
 0001:00012a25       $L66992                    00413a25 f   dlltest.obj
 0001:00012a31       $L66993                    00413a31 f   dlltest.obj
 0001:00012a3d       __ehhandler$?SignAndRestart@?$DL_SignerBase@VInteger@CryptoPP@@@CryptoPP@@UBEIAAVRandomNumberGenerator@2@AAVPK_MessageAccumulator@2@PAE_N@Z 00413a3d f   dlltest.obj
 0001:00012a47       $L67141                    00413a47 f   dlltest.obj
 0001:00012a51       $L67146                    00413a51 f   dlltest.obj
 0001:00012a5a       __ehhandler$?NewVerificationAccumulator@?$DL_VerifierImpl@U?$DL_SignatureSchemeOptions@UDSA@CryptoPP@@UDL_Keys_DSA@2@V?$DL_Algorithm_GDSA@VInteger@CryptoPP@@@2@VDL_SignatureMessageEncodingMethod_DSA@2@VSHA1@2@@CryptoPP@@@CryptoPP@@UBEPAVPK_MessageAccumulator@2@XZ 00413a5a f   dlltest.obj
 0001:00012a64       $L67183                    00413a64 f   dlltest.obj
 0001:00012a6c       $L67184                    00413a6c f   dlltest.obj
 0001:00012a75       $L67185                    00413a75 f   dlltest.obj
 0001:00012a7e       __ehhandler$?VerifyAndRestart@?$DL_VerifierBase@VInteger@CryptoPP@@@CryptoPP@@UBE_NAAVPK_MessageAccumulator@2@@Z 00413a7e f   dlltest.obj
 0001:00012a88       $L67259                    00413a88 f   dlltest.obj
 0001:00012a90       $L67260                    00413a90 f   dlltest.obj
 0001:00012a99       $L67261                    00413a99 f   dlltest.obj
 0001:00012aa2       $L67262                    00413aa2 f   dlltest.obj
 0001:00012aab       __ehhandler$?RecoverAndRestart@?$DL_VerifierBase@VInteger@CryptoPP@@@CryptoPP@@UBE?AUDecodingResult@2@PAEAAVPK_MessageAccumulator@2@@Z 00413aab f   dlltest.obj
 0001:00012ab5       $L67352                    00413ab5 f   dlltest.obj
 0001:00012abd       __ehhandler$?RecoverablePartFirst@PK_SignatureMessageEncodingMethod@CryptoPP@@UBE_NXZ 00413abd f   dlltest.obj
 0001:00012ac7       $L67368                    00413ac7 f   dlltest.obj
 0001:00012acf       __ehhandler$?RecoverMessageFromRepresentative@PK_SignatureMessageEncodingMethod@CryptoPP@@UBE?AUDecodingResult@2@AAVHashTransformation@2@U?$pair@PBEI@std@@_NPAEI3@Z 00413acf f   dlltest.obj
 0001:00012ad9       $L67384                    00413ad9 f   dlltest.obj
 0001:00012ae1       __ehhandler$?RecoverMessageFromSemisignature@PK_SignatureMessageEncodingMethod@CryptoPP@@UBE?AUDecodingResult@2@AAVHashTransformation@2@U?$pair@PBEI@std@@PBEI2IPAE@Z 00413ae1 f   dlltest.obj
 0001:00012aeb       $L67404                    00413aeb f   dlltest.obj
 0001:00012af3       __ehhandler$??0?$PK_FinalTemplate@V?$DL_SignerImpl@U?$DL_SignatureSchemeOptions@UDSA@CryptoPP@@UDL_Keys_DSA@2@V?$DL_Algorithm_GDSA@VInteger@CryptoPP@@@2@VDL_SignatureMessageEncodingMethod_DSA@2@VSHA1@2@@CryptoPP@@@CryptoPP@@@CryptoPP@@QAE@ABVCryptoMaterial@1@@Z 00413af3 f   dlltest.obj
 0001:00012afd       $L67432                    00413afd f   dlltest.obj
 0001:00012b05       __ehhandler$?AllowNonrecoverablePart@PK_SignatureMessageEncodingMethod@CryptoPP@@QBE_NXZ 00413b05 f   dlltest.obj
 0001:00012b0f       $L67447                    00413b0f f   dlltest.obj
 0001:00012b17       __ehhandler$??0?$PK_FinalTemplate@V?$DL_VerifierImpl@U?$DL_SignatureSchemeOptions@UDSA@CryptoPP@@UDL_Keys_DSA@2@V?$DL_Algorithm_GDSA@VInteger@CryptoPP@@@2@VDL_SignatureMessageEncodingMethod_DSA@2@VSHA1@2@@CryptoPP@@@CryptoPP@@@CryptoPP@@QAE@ABVCryptoMaterial@1@@Z 00413b17 f   dlltest.obj
 0001:00012b21       $L67477                    00413b21 f   dlltest.obj
 0001:00012b2c       __ehhandler$??$?0V?$basic_string@DU?$char_traits@D@std@@V?$allocator@D@2@@std@@@ConstByteArrayParameter@CryptoPP@@QAE@ABV?$basic_string@DU?$char_traits@D@std@@V?$allocator@D@2@@std@@_N@Z 00413b2c f   dlltest.obj
 0001:00012b36       $L67515                    00413b36 f   dlltest.obj
 0001:00012b3f       $L67516                    00413b3f f   dlltest.obj
 0001:00012b47       $L67517                    00413b47 f   dlltest.obj
 0001:00012b50       __ehhandler$??$?0V?$basic_string@DU?$char_traits@D@std@@V?$allocator@D@2@@std@@@StringStore@CryptoPP@@QAE@ABV?$basic_string@DU?$char_traits@D@std@@V?$allocator@D@2@@std@@@Z 00413b50 f   dlltest.obj
 0001:00012b5a       $L67559                    00413b5a f   dlltest.obj
 0001:00012b65       $L67560                    00413b65 f   dlltest.obj
 0001:00012b70       $L67561                    00413b70 f   dlltest.obj
 0001:00012b7b       $L67562                    00413b7b f   dlltest.obj
 0001:00012b87       $L67563                    00413b87 f   dlltest.obj
 0001:00012b93       $L67564                    00413b93 f   dlltest.obj
 0001:00012b9f       $L67565                    00413b9f f   dlltest.obj
 0001:00012bab       $L67566                    00413bab f   dlltest.obj
 0001:00012bb6       $L67567                    00413bb6 f   dlltest.obj
 0001:00012bc1       $L67568                    00413bc1 f   dlltest.obj
 0001:00012bcd       $L67569                    00413bcd f   dlltest.obj
 0001:00012bd9       $L67570                    00413bd9 f   dlltest.obj
 0001:00012be5       $L67571                    00413be5 f   dlltest.obj
 0001:00012bf0       $L67572                    00413bf0 f   dlltest.obj
 0001:00012bfc       $L67573                    00413bfc f   dlltest.obj
 0001:00012c07       $L67574                    00413c07 f   dlltest.obj
 0001:00012c12       $L67575                    00413c12 f   dlltest.obj
 0001:00012c1d       $L67576                    00413c1d f   dlltest.obj
 0001:00012c28       __ehhandler$?FIPS140_SampleApplication@@YGXXZ 00413c28 f   dlltest.obj
 0001:00012c32       $L68172                    00413c32 f   dlltest.obj
 0001:00012c3a       $L68173                    00413c3a f   dlltest.obj
 0001:00012c42       $L68174                    00413c42 f   dlltest.obj
 0001:00012c5b       __ehhandler$?StaticAlgorithmName@?$CipherModeFinalTemplate_CipherHolder@V?$BlockCipherFinal@$0A@VBase@DES_EDE3@CryptoPP@@@CryptoPP@@V?$ConcretePolicyHolder@VEmpty@CryptoPP@@V?$CFB_RequireFullDataBlocks@V?$CFB_EncryptionTemplate@V?$AbstractPolicyHolder@VCFB_CipherAbstractPolicy@CryptoPP@@VCFB_ModePolicy@2@@CryptoPP@@@CryptoPP@@@2@VCFB_CipherAbstractPolicy@2@@2@@CryptoPP@@SA?AV?$basic_string@DU?$char_traits@D@std@@V?$allocator@D@2@@std@@XZ 00413c5b f   dlltest.obj
 0001:00012c65       $L68192                    00413c65 f   dlltest.obj
 0001:00012c6d       $L68193                    00413c6d f   dlltest.obj
 0001:00012c86       __ehhandler$??$?HDU?$char_traits@D@std@@V?$allocator@D@1@@std@@YA?AV?$basic_string@DU?$char_traits@D@std@@V?$allocator@D@2@@0@ABV10@PBD@Z 00413c86 f   dlltest.obj
 0001:00012c90       $L68401                    00413c90 f   dlltest.obj
 0001:00012c98       $L68402                    00413c98 f   dlltest.obj
 0001:00012ca0       $L68403                    00413ca0 f   dlltest.obj
 0001:00012cb9       __ehhandler$?StaticAlgorithmName@?$CipherModeFinalTemplate_CipherHolder@V?$BlockCipherFinal@$0A@VBase@DES_EDE3@CryptoPP@@@CryptoPP@@V?$ConcretePolicyHolder@VEmpty@CryptoPP@@V?$CFB_RequireFullDataBlocks@V?$CFB_DecryptionTemplate@V?$AbstractPolicyHolder@VCFB_CipherAbstractPolicy@CryptoPP@@VCFB_ModePolicy@2@@CryptoPP@@@CryptoPP@@@2@VCFB_CipherAbstractPolicy@2@@2@@CryptoPP@@SA?AV?$basic_string@DU?$char_traits@D@std@@V?$allocator@D@2@@std@@XZ 00413cb9 f   dlltest.obj
 0001:00012cc3       $L68427                    00413cc3 f   dlltest.obj
 0001:00012ccb       $L68428                    00413ccb f   dlltest.obj
 0001:00012cd3       $L68429                    00413cd3 f   dlltest.obj
 0001:00012cec       __ehhandler$?StaticAlgorithmName@?$CipherModeFinalTemplate_CipherHolder@V?$BlockCipherFinal@$0A@VBase@DES_EDE3@CryptoPP@@@CryptoPP@@VECB_OneWay@2@@CryptoPP@@SA?AV?$basic_string@DU?$char_traits@D@std@@V?$allocator@D@2@@std@@XZ 00413cec f   dlltest.obj
 0001:00012cf6       $L8258                     00413cf6 f   libcpmt:ios.obj
 0001:00012cfe       __ehhandler$?imbue@ios_base@std@@QAE?AVlocale@2@ABV32@@Z 00413cfe f   libcpmt:ios.obj
 0001:00012d08       $L8601                     00413d08 f   libcpmt:ios.obj
 0001:00012d10       __ehhandler$??0runtime_error@std@@QAE@ABV?$basic_string@DU?$char_traits@D@std@@V?$allocator@D@2@@1@@Z 00413d10 f   libcpmt:ios.obj
 0001:00012d1a       $L8663                     00413d1a f   libcpmt:ios.obj
 0001:00012d22       $L8664                     00413d22 f   libcpmt:ios.obj
 0001:00012d2a       $L8665                     00413d2a f   libcpmt:ios.obj
 0001:00012d35       __ehhandler$?clear@ios_base@std@@QAEXH_N@Z 00413d35 f   libcpmt:ios.obj
 0001:00012d3f       $L8700                     00413d3f f   libcpmt:ios.obj
 0001:00012d47       __ehhandler$??0runtime_error@std@@QAE@ABV01@@Z 00413d47 f   libcpmt:ios.obj
 0001:00012d51       $L11600                    00413d51 f   libcpmt:string.obj
 0001:00012d59       __ehhandler$??0logic_error@std@@QAE@ABV?$basic_string@DU?$char_traits@D@std@@V?$allocator@D@2@@1@@Z 00413d59 f   libcpmt:string.obj
 0001:00012d63       $L11664                    00413d63 f   libcpmt:string.obj
 0001:00012d6b       __ehhandler$?_Xran@_String_base@std@@QBEXXZ 00413d6b f   libcpmt:string.obj
 0001:00012d75       $L11742                    00413d75 f   libcpmt:string.obj
 0001:00012d7d       __ehhandler$??0logic_error@std@@QAE@ABV01@@Z 00413d7d f   libcpmt:string.obj
 0001:00012d87       $L11871                    00413d87 f   libcpmt:string.obj
 0001:00012d8f       __ehhandler$?_Xlen@_String_base@std@@QBEXXZ 00413d8f f   libcpmt:string.obj
 0001:00012d99       $L12389                    00413d99 f   libcpmt:cerr.obj
 0001:00012da1       __ehhandler$??0?$ctype@D@std@@QAE@PBF_NI@Z 00413da1 f   libcpmt:cerr.obj
 0001:00012dab       $L12442                    00413dab f   libcpmt:cerr.obj
 0001:00012db5       __ehhandler$?_Getcat@?$ctype@D@std@@SAIPAPBVfacet@locale@2@@Z 00413db5 f   libcpmt:cerr.obj
 0001:00012dbf       $L12724                    00413dbf f   libcpmt:cerr.obj
 0001:00012dc7       __ehhandler$??$use_facet@V?$ctype@D@std@@@std@@YAABV?$ctype@D@0@ABVlocale@0@@Z 00413dc7 f   libcpmt:cerr.obj
 0001:00012dd1       $L12768                    00413dd1 f   libcpmt:cerr.obj
 0001:00012ddc       __ehhandler$??0?$basic_streambuf@DU?$char_traits@D@std@@@std@@IAE@XZ 00413ddc f   libcpmt:cerr.obj
 0001:00012de6       $L12781                    00413de6 f   libcpmt:cerr.obj
 0001:00012dee       __ehhandler$?widen@?$basic_ios@DU?$char_traits@D@std@@@std@@QBEDD@Z 00413dee f   libcpmt:cerr.obj
 0001:00012df8       $L13072                    00413df8 f   libcpmt:cerr.obj
 0001:00012e14       __ehhandler$??0?$basic_ostream@DU?$char_traits@D@std@@@std@@QAE@PAV?$basic_streambuf@DU?$char_traits@D@std@@@1@_N@Z 00413e14 f   libcpmt:cerr.obj
 0001:00012e1e       $L13098                    00413e1e f   libcpmt:cerr.obj
 0001:00012e28       __ehhandler$?_Initcvt@?$basic_filebuf@DU?$char_traits@D@std@@@std@@IAEXPAV?$codecvt@DDH@2@@Z 00413e28 f   libcpmt:cerr.obj
 0001:00012e32       $L13180                    00413e32 f   libcpmt:cerr.obj
 0001:00012e3a       __ehhandler$??$use_facet@V?$codecvt@DDH@std@@@std@@YAABV?$codecvt@DDH@0@ABVlocale@0@@Z 00413e3a f   libcpmt:cerr.obj
 0001:00012e44       $L13227                    00413e44 f   libcpmt:cerr.obj
 0001:00012e4e       $L13230                    00413e4e f   libcpmt:cerr.obj
 0001:00012e56       __ehhandler$?_Getcat@?$codecvt@DDH@std@@SAIPAPBVfacet@locale@2@@Z 00413e56 f   libcpmt:cerr.obj
 0001:00012e60       $L13656                    00413e60 f   libcpmt:cerr.obj
 0001:00012e68       __ehhandler$?_Endwrite@?$basic_filebuf@DU?$char_traits@D@std@@@std@@IAE_NXZ 00413e68 f   libcpmt:cerr.obj
 0001:00012e72       $L13861                    00413e72 f   libcpmt:cerr.obj
 0001:00012e7a       __ehhandler$?overflow@?$basic_filebuf@DU?$char_traits@D@std@@@std@@MAEHH@Z 00413e7a f   libcpmt:cerr.obj
 0001:00012e84       $L14222                    00413e84 f   libcpmt:cerr.obj
 0001:00012e8c       __ehhandler$??1?$basic_filebuf@DU?$char_traits@D@std@@@std@@UAE@XZ 00413e8c f   libcpmt:cerr.obj
 0001:00012e96       $L12841                    00413e96 f   libcpmt:locale0.obj
 0001:00012e9e       $L12842                    00413e9e f   libcpmt:locale0.obj
 0001:00012ea9       $L12843                    00413ea9 f   libcpmt:locale0.obj
 0001:00012eb1       __ehhandler$??1_Locimp@locale@std@@MAE@XZ 00413eb1 f   libcpmt:locale0.obj
 0001:00012ebb       $L13006                    00413ebb f   libcpmt:locale0.obj
 0001:00012ed4       $L13008                    00413ed4 f   libcpmt:locale0.obj
 0001:00012eed       $L13010                    00413eed f   libcpmt:locale0.obj
 0001:00012f06       __ehhandler$??8locale@std@@QBE_NABV01@@Z 00413f06 f   libcpmt:locale0.obj
 0001:00012f10       $L13072                    00413f10 f   libcpmt:locale0.obj
 0001:00012f18       __ehhandler$??0_Locimp@locale@std@@AAE@_N@Z 00413f18 f   libcpmt:locale0.obj
 0001:00012f22       $L13087                    00413f22 f   libcpmt:locale0.obj
 0001:00012f2a       $L13088                    00413f2a f   libcpmt:locale0.obj
 0001:00012f35       $L13089                    00413f35 f   libcpmt:locale0.obj
 0001:00012f40       $L13090                    00413f40 f   libcpmt:locale0.obj
 0001:00012f4b       $L13091                    00413f4b f   libcpmt:locale0.obj
 0001:00012f56       __ehhandler$??0_Locinfo@std@@QAE@PBD@Z 00413f56 f   libcpmt:locale0.obj
 0001:00012f60       $L13116                    00413f60 f   libcpmt:locale0.obj
 0001:00012f68       $L13117                    00413f68 f   libcpmt:locale0.obj
 0001:00012f72       __ehhandler$?_Init@locale@std@@CAPAV_Locimp@12@XZ 00413f72 f   libcpmt:locale0.obj
 0001:00012f7c       $L13156                    00413f7c f   libcpmt:locale0.obj
 0001:00012f86       __ehhandler$?empty@locale@std@@SA?AV12@XZ 00413f86 f   libcpmt:locale0.obj
 0001:00012f90       _$E1                       00413f90 f   libcpmt:cerr.obj
 0001:00012fa6       _$E4                       00413fa6 f   libcpmt:cerr.obj
 0001:00012fc5       _$E7                       00413fc5 f   libcpmt:cerr.obj
 0001:00012fe4       _$E10                      00413fe4 f   libcpmt:cerr.obj
 0001:00012fee       _$E1                       00413fee f   libcpmt:cout.obj
 0001:00013004       _$E4                       00414004 f   libcpmt:cout.obj
 0001:00013023       _$E7                       00414023 f   libcpmt:cout.obj
 0001:00013042       _$E10                      00414042 f   libcpmt:cout.obj
 0001:0001304c       _$E1                       0041404c f   libcpmt:xlock.obj
 0001:00013062       _$E1                       00414062 f   libcpmt:locale0.obj
 0001:0001306e       _$E1                       0041406e f   libcpmt:iosptrs.obj
 0001:00013084       _$E4                       00414084 f   libcpmt:iosptrs.obj
 0001:00013090       _$E8                       00414090 f   dlltest.obj
 0001:0001309a       _$E6                       0041409a f   dlltest.obj
 0001:000130af       _$E2                       004140af f   libcpmt:cerr.obj
 0001:000130b9       _$E8                       004140b9 f   libcpmt:cerr.obj
 0001:000130d5       _$E5                       004140d5 f   libcpmt:cerr.obj
 0001:000130df       _$E2                       004140df f   libcpmt:cout.obj
 0001:000130e9       _$E8                       004140e9 f   libcpmt:cout.obj
 0001:00013105       _$E5                       00414105 f   libcpmt:cout.obj
 0001:0001310f       _$E2                       0041410f f   libcpmt:xlock.obj
 0001:00013119       _$E2                       00414119 f   libcpmt:locale0.obj
 0001:00013123       _$E2                       00414123 f   libcpmt:iosptrs.obj
 0001:0001312d       _$E5                       0041412d f   libcpmt:iosptrs.obj
