 cryptopp

 Timestamp is 54dd86a4 (Fri Feb 13 00:07:48 2015)

 Preferred load address is 42900000

 Start         Length     Name                   Class
 0001:00000000 000817a4H .text                   CODE
 0001:000817a4 00007dc9H .text$x                 CODE
 0001:0008956d 000000c5H .text$yc                CODE
 0001:00089632 000001d9H .text$yd                CODE
 0002:00000000 0000014cH .idata$5                DATA
 0002:00000150 00015a00H .rdata                  DATA
 0002:00015b50 0000005bH .rdata$debug            DATA
 0002:00015bb0 00008e10H .rdata$r                DATA
 0002:0001e9c0 00000b3cH .rdata$sxdata           DATA
 0002:0001f4fc 00000004H .rtc$IAA                DATA
 0002:0001f500 00000004H .rtc$IZZ                DATA
 0002:0001f504 00000004H .rtc$TAA                DATA
 0002:0001f508 00000004H .rtc$TZZ                DATA
 0002:0001f50c 000115bcH .xdata$x                DATA
 0002:00030ac8 00000028H .idata$2                DATA
 0002:00030af0 00000014H .idata$3                DATA
 0002:00030b04 0000014cH .idata$4                DATA
 0002:00030c50 000005eaH .idata$6                DATA
 0002:00031240 00053f7fH .edata                  DATA
 0003:00000000 00000004H .CRT$XCA                DATA
 0003:00000004 00000004H .CRT$XCAA               DATA
 0003:00000008 0000000cH .CRT$XCC                DATA
 0003:00000014 0000001cH .CRT$XCU                DATA
 0003:00000030 00000004H .CRT$XCZ                DATA
 0003:00000034 00000004H .CRT$XIA                DATA
 0003:00000038 00000014H .CRT$XIC                DATA
 0003:0000004c 00000004H .CRT$XIY                DATA
 0003:00000050 00000004H .CRT$XIZ                DATA
 0003:00000054 00000004H .CRT$XPA                DATA
 0003:00000058 00000004H .CRT$XPX                DATA
 0003:0000005c 00000004H .CRT$XPZ                DATA
 0003:00000060 00000004H .CRT$XTA                DATA
 0003:00000064 00000004H .CRT$XTB                DATA
 0003:00000068 00000004H .CRT$XTZ                DATA
 0003:00000070 0000f050H .data                   DATA
 0003:0000f0c0 00003950H .bss                    DATA
 0004:00000000 00000058H .rsrc$01                DATA
 0004:00000060 000003d8H .rsrc$02                DATA

  Address         Publics by Value              Rva+Base     Lib:Object

 0000:00000000       __except_list              00000000     <absolute>
 0000:000002cf       ___safe_se_handler_count   000002cf     <absolute>
 0001:00000000       ?IsZero@Integer@CryptoPP@@QBE_NXZ 42901000 f i algebra.obj
 0001:00000005       ?NotZero@Integer@CryptoPP@@QBE_NXZ 42901005 f i algebra.obj
 0001:00000010       ?IsNegative@Integer@CryptoPP@@QBE_NXZ 42901010 f i algebra.obj
 0001:0000001a       ?NotNegative@Integer@CryptoPP@@QBE_NXZ 4290101a f i algebra.obj
 0001:00000024       ?IsPositive@Integer@CryptoPP@@QBE_NXZ 42901024 f i algebra.obj
 0001:0000003a       ?NotPositive@Integer@CryptoPP@@QBE_NXZ 4290103a f i algebra.obj
 0001:00000045       ?IsEven@Integer@CryptoPP@@QBE_NXZ 42901045 f i algebra.obj
 0001:00000052       ?IsOdd@Integer@CryptoPP@@QBE_NXZ 42901052 f i algebra.obj
 0001:00000061       ?SetPositive@Integer@CryptoPP@@QAEXXZ 42901061 f i algebra.obj
 0001:00000066       ?SetNegative@Integer@CryptoPP@@QAEXXZ 42901066 f i algebra.obj
 0001:0000007b       ??$SecureWipeBuffer@_K@CryptoPP@@YAXPA_KI@Z 4290107b f i algebra.obj
 0001:0000009e       ??$SecureWipeBuffer@I@CryptoPP@@YAXPAII@Z 4290109e f i algebra.obj
 0001:000000ba       ??$SecureWipeBuffer@G@CryptoPP@@YAXPAGI@Z 429010ba f i algebra.obj
 0001:000000d4       ??$SecureWipeBuffer@E@CryptoPP@@YAXPAEI@Z 429010d4 f i algebra.obj
 0001:000000ea       ?_Eos@?$basic_string@DU?$char_traits@D@std@@V?$allocator@D@2@@std@@IAEXI@Z 429010ea f i algebra.obj
 0001:00000106       ?_Inside@?$basic_string@DU?$char_traits@D@std@@V?$allocator@D@2@@std@@IAE_NPBD@Z 42901106 f i algebra.obj
 0001:0000013a       ?_Tidy@?$basic_string@DU?$char_traits@D@std@@V?$allocator@D@2@@std@@IAEX_NI@Z 4290113a f i algebra.obj
 0001:00000183       ?erase@?$basic_string@DU?$char_traits@D@std@@V?$allocator@D@2@@std@@QAEAAV12@II@Z 42901183 f i algebra.obj
 0001:000001ef       ?deallocate@?$AllocatorWithCleanup@I$00@CryptoPP@@QAEXPAXI@Z 429011ef f i algebra.obj
 0001:0000021f       ??1?$basic_string@DU?$char_traits@D@std@@V?$allocator@D@2@@std@@QAE@XZ 4290121f f i algebra.obj
 0001:00000229       ?_Copy@?$basic_string@DU?$char_traits@D@std@@V?$allocator@D@2@@std@@IAEXII@Z 42901229 f i algebra.obj
 0001:00000311       ??1?$SecBlock@IV?$AllocatorWithCleanup@I$00@CryptoPP@@@CryptoPP@@QAE@XZ 42901311 f i algebra.obj
 0001:0000031d       ??1Exception@CryptoPP@@UAE@XZ 4290131d f i algebra.obj
 0001:0000033a       ?what@Exception@CryptoPP@@UBEPBDXZ 4290133a f i algebra.obj
 0001:00000348       ??_EException@CryptoPP@@UAEPAXI@Z 42901348 f i algebra.obj
 0001:00000393       ?_Grow@?$basic_string@DU?$char_traits@D@std@@V?$allocator@D@2@@std@@IAE_NI_N@Z 42901393 f i algebra.obj
 0001:000003f1       ??1Integer@CryptoPP@@UAE@XZ 429013f1 f i algebra.obj
 0001:00000400       ?assign@?$basic_string@DU?$char_traits@D@std@@V?$allocator@D@2@@std@@QAEAAV12@ABV12@II@Z 42901400 f i algebra.obj
 0001:0000048f       ?assign@?$basic_string@DU?$char_traits@D@std@@V?$allocator@D@2@@std@@QAEAAV12@PBDI@Z 4290148f f i algebra.obj
 0001:000004fe       ??XInteger@CryptoPP@@QAEAAV01@ABV01@@Z 429014fe f i algebra.obj
 0001:0000054b       ??_0Integer@CryptoPP@@QAEAAV01@ABV01@@Z 4290154b f i algebra.obj
 0001:00000598       ??_1Integer@CryptoPP@@QAEAAV01@ABV01@@Z 42901598 f i algebra.obj
 0001:000005e5       ??_0Integer@CryptoPP@@QAEAAV01@I@Z 429015e5 f i algebra.obj
 0001:00000632       ??_1Integer@CryptoPP@@QAEAAV01@I@Z 42901632 f i algebra.obj
 0001:00000688       ??HInteger@CryptoPP@@QBE?AV01@XZ 42901688 f i algebra.obj
 0001:000006a0       ??EInteger@CryptoPP@@QAE?AV01@H@Z 429016a0 f i algebra.obj
 0001:000006ff       ??FInteger@CryptoPP@@QAE?AV01@H@Z 429016ff f i algebra.obj
 0001:0000075e       ??5Integer@CryptoPP@@QBE?AV01@I@Z 4290175e f i algebra.obj
 0001:000007b9       ??6Integer@CryptoPP@@QBE?AV01@I@Z 429017b9 f i algebra.obj
 0001:00000814       ?Doubled@Integer@CryptoPP@@QBE?AV12@XZ 42901814 f i algebra.obj
 0001:0000082c       ?Squared@Integer@CryptoPP@@QBE?AV12@XZ 4290182c f i algebra.obj
 0001:00000844       ??0?$basic_string@DU?$char_traits@D@std@@V?$allocator@D@2@@std@@QAE@ABV01@@Z 42901844 f i algebra.obj
 0001:0000086a       ?assign@?$basic_string@DU?$char_traits@D@std@@V?$allocator@D@2@@std@@QAEAAV12@PBD@Z 4290186a f i algebra.obj
 0001:00000887       ??0Exception@CryptoPP@@QAE@W4ErrorType@01@ABV?$basic_string@DU?$char_traits@D@std@@V?$allocator@D@2@@std@@@Z 42901887 f i algebra.obj
 0001:000008c9       ??0?$basic_string@DU?$char_traits@D@std@@V?$allocator@D@2@@std@@QAE@PBD@Z 429018c9 f i algebra.obj
 0001:000008eb       ??0RandomNumberNotFound@Integer@CryptoPP@@QAE@XZ 429018eb f i algebra.obj
 0001:0000093a       ?GenerateRandom@Integer@CryptoPP@@QAEXAAVRandomNumberGenerator@2@ABVNameValuePairs@2@@Z 4290193a f i algebra.obj
 0001:00000969       ??0Exception@CryptoPP@@QAE@ABV01@@Z 42901969 f i algebra.obj
 0001:000009b2       ??0RandomNumberNotFound@Integer@CryptoPP@@QAE@ABV012@@Z 429019b2 f i algebra.obj
 0001:000009ca       ?GetVoidValue@CombinedNameValuePairs@CryptoPP@@UBE_NPBDABVtype_info@@PAX@Z 429019ca f   algparam.obj
 0001:00000a21       ??0CombinedNameValuePairs@CryptoPP@@QAE@ABVNameValuePairs@1@0@Z 42901a21 f i algparam.obj
 0001:00000a3a       ??0CombinedNameValuePairs@CryptoPP@@QAE@ABV01@@Z 42901a3a f i algparam.obj
 0001:00000a55       ??_ECombinedNameValuePairs@CryptoPP@@UAEPAXI@Z 42901a55 f i algparam.obj
 0001:00000a55       ??_EBitBucket@CryptoPP@@UAEPAXI@Z 42901a55 f i cryptlib.obj
 0001:00000a55       ??_EX509PublicKey@CryptoPP@@UAEPAXI@Z 42901a55 f i asn.obj
 0001:00000a99       ??0AlgorithmParametersBase@CryptoPP@@QAE@ABV01@@Z 42901a99 f i algparam.obj
 0001:00000af2       ??0AlgorithmParametersBase@CryptoPP@@QAE@PBD_N@Z 42901af2 f i algparam.obj
 0001:00000b13       ??4?$AlgorithmParametersTemplate@_N@CryptoPP@@QAEAAV01@ABV01@@Z 42901b13 f i algparam.obj
 0001:00000b22       ??4?$AlgorithmParametersTemplate@H@CryptoPP@@QAEAAV01@ABV01@@Z 42901b22 f i algparam.obj
 0001:00000b31       ??_EAlgorithmParameters@CryptoPP@@UAEPAXI@Z 42901b31 f i algparam.obj
 0001:00000b7c       ??0AlgorithmParameters@CryptoPP@@QAE@XZ 42901b7c f   algparam.obj
 0001:00000b8d       ??0AlgorithmParameters@CryptoPP@@QAE@ABV01@@Z 42901b8d f   algparam.obj
 0001:00000bd5       ??4AlgorithmParameters@CryptoPP@@QAEAAV01@ABV01@@Z 42901bd5 f   algparam.obj
 0001:00000bf2       ?deallocate@?$AllocatorWithCleanup@E$0A@@CryptoPP@@QAEXPAXI@Z 42901bf2 f i algparam.obj
 0001:00000bf2       ?deallocate@?$AllocatorWithCleanup@D$0A@@CryptoPP@@QAEXPAXI@Z 42901bf2 f i gf2n.obj
 0001:00000c0e       ??_ENotImplemented@CryptoPP@@UAEPAXI@Z 42901c0e f i asn.obj
 0001:00000c0e       ??_EOS_RNG_Err@CryptoPP@@UAEPAXI@Z 42901c0e f i cryptlib.obj
 0001:00000c0e       ??_ESelfTestFailure@CryptoPP@@UAEPAXI@Z 42901c0e f i cryptlib.obj
 0001:00000c0e       ??_EInvalidDataFormat@CryptoPP@@UAEPAXI@Z 42901c0e f i asn.obj
 0001:00000c0e       ??_EInvalidArgument@CryptoPP@@UAEPAXI@Z 42901c0e f i algparam.obj
 0001:00000c0e       ??_ECannotFlush@CryptoPP@@UAEPAXI@Z 42901c0e f i asn.obj
 0001:00000c59       ??_EValueTypeMismatch@NameValuePairs@CryptoPP@@UAEPAXI@Z 42901c59 f i algparam.obj
 0001:00000ca4       ??1ConstByteArrayParameter@CryptoPP@@QAE@XZ 42901ca4 f i algparam.obj
 0001:00000ca4       ??1?$AdditiveCipherTemplate@V?$AbstractPolicyHolder@UAdditiveCipherAbstractPolicy@CryptoPP@@VSymmetricCipher@2@@CryptoPP@@@CryptoPP@@UAE@XZ 42901ca4 f i ccm.obj
 0001:00000cb3       ?append@?$basic_string@DU?$char_traits@D@std@@V?$allocator@D@2@@std@@QAEAAV12@ABV12@II@Z 42901cb3 f i algparam.obj
 0001:00000d48       ?append@?$basic_string@DU?$char_traits@D@std@@V?$allocator@D@2@@std@@QAEAAV12@PBDI@Z 42901d48 f i algparam.obj
 0001:00000dd8       ?append@?$basic_string@DU?$char_traits@D@std@@V?$allocator@D@2@@std@@QAEAAV12@PBD@Z 42901dd8 f i algparam.obj
 0001:00000df5       ??0InvalidArgument@CryptoPP@@QAE@ABV?$basic_string@DU?$char_traits@D@std@@V?$allocator@D@2@@std@@@Z 42901df5 f i algparam.obj
 0001:00000e0f       ?CheckSize@?$AllocatorBase@E@CryptoPP@@KAXI@Z 42901e0f f i algparam.obj
 0001:00000e62       ??0InvalidArgument@CryptoPP@@QAE@ABV01@@Z 42901e62 f i algparam.obj
 0001:00000e7a       ??$?HDU?$char_traits@D@std@@V?$allocator@D@1@@std@@YA?AV?$basic_string@DU?$char_traits@D@std@@V?$allocator@D@2@@0@PBDABV10@@Z 42901e7a f i algparam.obj
 0001:00000ecc       ??$?HDU?$char_traits@D@std@@V?$allocator@D@1@@std@@YA?AV?$basic_string@DU?$char_traits@D@std@@V?$allocator@D@2@@0@ABV10@PBD@Z 42901ecc f i algparam.obj
 0001:00000f1a       ??0ParameterNotUsed@AlgorithmParametersBase@CryptoPP@@QAE@PBD@Z 42901f1a f i algparam.obj
 0001:00000fa7       ??1AlgorithmParametersBase@CryptoPP@@UAE@XZ 42901fa7 f i algparam.obj
 0001:00001009       ??_EAlgorithmParametersBase@CryptoPP@@UAEPAXI@Z 42902009 f i algparam.obj
 0001:00001054       ??0ParameterNotUsed@AlgorithmParametersBase@CryptoPP@@QAE@ABV012@@Z 42902054 f i algparam.obj
 0001:0000106c       ??0?$AlgorithmParametersTemplate@_N@CryptoPP@@QAE@ABV01@@Z 4290206c f i algparam.obj
 0001:0000108d       ??_E?$AlgorithmParametersTemplate@H@CryptoPP@@UAEPAXI@Z 4290208d f i algparam.obj
 0001:0000108d       ??_E?$AlgorithmParametersTemplate@_N@CryptoPP@@UAEPAXI@Z 4290208d f i algparam.obj
 0001:000010d8       ??0?$AlgorithmParametersTemplate@H@CryptoPP@@QAE@ABV01@@Z 429020d8 f i algparam.obj
 0001:000010f9       ??1?$AlgorithmParametersTemplate@VConstByteArrayParameter@CryptoPP@@@CryptoPP@@UAE@XZ 429020f9 f i algparam.obj
 0001:00001134       ??_E?$AlgorithmParametersTemplate@VConstByteArrayParameter@CryptoPP@@@CryptoPP@@UAEPAXI@Z 42902134 f i algparam.obj
 0001:0000117f       ?MoveInto@?$AlgorithmParametersTemplate@_N@CryptoPP@@UBEXPAX@Z 4290217f f i algparam.obj
 0001:000011ae       ?MoveInto@?$AlgorithmParametersTemplate@H@CryptoPP@@UBEXPAX@Z 429021ae f i algparam.obj
 0001:000011dd       ?allocate@?$AllocatorWithCleanup@E$0A@@CryptoPP@@QAEPAEIPBX@Z 429021dd f i algparam.obj
 0001:000011fc       ??0ValueTypeMismatch@NameValuePairs@CryptoPP@@QAE@ABV?$basic_string@DU?$char_traits@D@std@@V?$allocator@D@2@@std@@ABVtype_info@@1@Z 429021fc f i algparam.obj
 0001:00001318       ?ThrowIfTypeMismatch@NameValuePairs@CryptoPP@@SAXPBDABVtype_info@@1@Z 42902318 f i algparam.obj
 0001:0000136f       ??0ValueTypeMismatch@NameValuePairs@CryptoPP@@QAE@ABV012@@Z 4290236f f i algparam.obj
 0001:00001396       ?memcpy_s@CryptoPP@@YAXPAXIPBXI@Z 42902396 f i algparam.obj
 0001:000013fa       ?GetVoidValue@AlgorithmParametersBase@CryptoPP@@QBE_NPBDABVtype_info@@PAX@Z 429023fa f   algparam.obj
 0001:0000148b       ?GetVoidValue@AlgorithmParameters@CryptoPP@@UBE_NPBDABVtype_info@@PAX@Z 4290248b f   algparam.obj
 0001:0000149c       ??0?$SecBlock@EV?$AllocatorWithCleanup@E$0A@@CryptoPP@@@CryptoPP@@QAE@ABV01@@Z 4290249c f i algparam.obj
 0001:000014cd       ?AssignValue@?$AlgorithmParametersTemplate@_N@CryptoPP@@UBEXPBDABVtype_info@@PAX@Z 429024cd f i algparam.obj
 0001:00001526       ?AssignValue@?$AlgorithmParametersTemplate@H@CryptoPP@@UBEXPBDABVtype_info@@PAX@Z 42902526 f i algparam.obj
 0001:0000157e       ??$StandardReallocate@EV?$AllocatorWithCleanup@E$0A@@CryptoPP@@@CryptoPP@@YAPAEAAV?$AllocatorWithCleanup@E$0A@@0@PAEII_N@Z 4290257e f i algparam.obj
 0001:000015e8       ??0ConstByteArrayParameter@CryptoPP@@QAE@ABV01@@Z 429025e8 f i algparam.obj
 0001:00001611       ?reallocate@?$AllocatorWithCleanup@E$0A@@CryptoPP@@QAEPAEPAEII_N@Z 42902611 f i algparam.obj
 0001:0000162d       ??0?$AlgorithmParametersTemplate@VConstByteArrayParameter@CryptoPP@@@CryptoPP@@QAE@ABV01@@Z 4290262d f i algparam.obj
 0001:00001670       ?MoveInto@?$AlgorithmParametersTemplate@VConstByteArrayParameter@CryptoPP@@@CryptoPP@@UBEXPAX@Z 42902670 f i algparam.obj
 0001:0000169f       ?New@?$SecBlock@EV?$AllocatorWithCleanup@E$0A@@CryptoPP@@@CryptoPP@@QAEXI@Z 4290269f f i algparam.obj
 0001:000016c6       ?Assign@?$SecBlock@EV?$AllocatorWithCleanup@E$0A@@CryptoPP@@@CryptoPP@@QAEXABV12@@Z 429026c6 f i algparam.obj
 0001:000016f2       ??4ConstByteArrayParameter@CryptoPP@@QAEAAV01@ABV01@@Z 429026f2 f i algparam.obj
 0001:0000171b       ?AssignValue@?$AlgorithmParametersTemplate@VConstByteArrayParameter@CryptoPP@@@CryptoPP@@UBEXPBDABVtype_info@@PAX@Z 4290271b f i algparam.obj
 0001:00001778       ??4?$AlgorithmParametersTemplate@VConstByteArrayParameter@CryptoPP@@@CryptoPP@@QAEAAV01@ABV01@@Z 42902778 f i algparam.obj
 0001:00001791       ?MaxRetrievable@ByteQueue@CryptoPP@@UBE_KXZ 42902791 f i asn.obj
 0001:00001796       ?AnyRetrievable@ByteQueue@CryptoPP@@UBE_NXZ 42902796 f i asn.obj
 0001:000017a1       ??_FByteQueue@CryptoPP@@QAEXXZ 429027a1 f i asn.obj
 0001:000017a9       ??0LazyPutter@CryptoPP@@QAE@AAVByteQueue@1@PBEI@Z 429027a9 f i asn.obj
 0001:000017c5       ??1LazyPutter@CryptoPP@@QAE@XZ 429027c5 f i asn.obj
 0001:000017f6       ??0LazyPutter@CryptoPP@@IAE@AAVByteQueue@1@@Z 429027f6 f i asn.obj
 0001:00001801       ??_FFilter@CryptoPP@@QAEXXZ 42902801 f i asn.obj
 0001:00001809       ?SetTransparent@MeterFilter@CryptoPP@@QAEX_N@Z 42902809 f i asn.obj
 0001:00001813       ?IsolatedInitialize@MeterFilter@CryptoPP@@UAEXABVNameValuePairs@2@@Z 42902813 f i asn.obj
 0001:0000181b       ?GetTotalBytes@MeterFilter@CryptoPP@@QAE_KXZ 4290281b f i asn.obj
 0001:00001822       ?GetCurrentSeriesMessages@MeterFilter@CryptoPP@@QAEIXZ 42902822 f i asn.obj
 0001:00001822       ?GetRetrievingTypeInfo@ValueTypeMismatch@NameValuePairs@CryptoPP@@QBEABVtype_info@@XZ 42902822 f i dll.obj
 0001:00001826       ?KeystreamBufferBegin@?$AdditiveCipherTemplate@V?$AbstractPolicyHolder@UAdditiveCipherAbstractPolicy@CryptoPP@@VCTR_ModePolicy@2@@CryptoPP@@@CryptoPP@@IAEPAEXZ 42902826 f i dll.obj
 0001:00001826       ?GetTotalMessages@MeterFilter@CryptoPP@@QAEIXZ 42902826 f i asn.obj
 0001:0000182a       ?CreatePutSpace@MeterFilter@CryptoPP@@UAEPAEAAI@Z 4290282a f i asn.obj
 0001:00001839       ?ShouldPropagateMessageSeriesEnd@MeterFilter@CryptoPP@@EBE_NXZ 42902839 f i asn.obj
 0001:00001839       ?ShouldPropagateMessageEnd@MeterFilter@CryptoPP@@EBE_NXZ 42902839 f i asn.obj
 0001:0000183d       ?Put2@FilterWithBufferedInput@CryptoPP@@UAEIPBEIH_N@Z 4290283d f i asn.obj
 0001:00001857       ?PutModifiable2@FilterWithBufferedInput@CryptoPP@@UAEIPAEIH_N@Z 42902857 f i asn.obj
 0001:00001871       ?DidFirstPut@FilterWithBufferedInput@CryptoPP@@IAE_NXZ 42902871 f i asn.obj
 0001:00001875       ?InitializeDerivedAndReturnNewSizes@FilterWithBufferedInput@CryptoPP@@MAEXABVNameValuePairs@2@AAI11@Z 42902875 f i asn.obj
 0001:00001884       ?NextPutModifiable@FilterWithBufferedInput@CryptoPP@@MAEXPAEI@Z 42902884 f i asn.obj
 0001:0000188c       ?NextPutMaybeModifiable@FilterWithBufferedInput@CryptoPP@@IAEXPAEI_N@Z 4290288c f i asn.obj
 0001:000018af       ?IsolatedInitialize@FilterWithInputQueue@CryptoPP@@MAEXABVNameValuePairs@2@@Z 429028af f i asn.obj
 0001:000018ba       ?CreatePutSpace@HashFilter@CryptoPP@@UAEPAEAAI@Z 429028ba f i asn.obj
 0001:000018c2       ?GetLastResult@HashVerificationFilter@CryptoPP@@QBE_NXZ 429028c2 f i asn.obj
 0001:000018c6       ?GetLastResult@AuthenticatedDecryptionFilter@CryptoPP@@QBE_NXZ 429028c6 f i asn.obj
 0001:000018cd       ?GetLastResult@SignatureVerificationFilter@CryptoPP@@QBE_NXZ 429028cd f i asn.obj
 0001:000018d1       ?StopRedirection@Redirector@CryptoPP@@QAEXXZ 429028d1 f i asn.obj
 0001:000018d6       ?SetBehavior@Redirector@CryptoPP@@QAEXW4Behavior@12@@Z 429028d6 f i asn.obj
 0001:000018e0       ?GetPassSignals@Redirector@CryptoPP@@QBE_NXZ 429028e0 f i asn.obj
 0001:000018e7       ?SetPassSignals@Redirector@CryptoPP@@QAEX_N@Z 429028e7 f i asn.obj
 0001:000018fb       ?GetPassWaitObjects@Redirector@CryptoPP@@QBE_NXZ 429028fb f i asn.obj
 0001:00001904       ?SetPassWaitObjects@Redirector@CryptoPP@@QAEX_N@Z 42902904 f i asn.obj
 0001:00001918       ?CanModifyInput@Redirector@CryptoPP@@UBE_NXZ 42902918 f i asn.obj
 0001:00001928       ?CreatePutSpace@Redirector@CryptoPP@@UAEPAEAAI@Z 42902928 f i asn.obj
 0001:00001940       ?Put2@Redirector@CryptoPP@@UAEIPBEIH_N@Z 42902940 f i asn.obj
 0001:00001971       ?Flush@Redirector@CryptoPP@@UAE_N_NH0@Z 42902971 f i asn.obj
 0001:00001989       ?MessageSeriesEnd@Redirector@CryptoPP@@UAE_NH_N@Z 42902989 f i asn.obj
 0001:000019a1       ?ChannelCreatePutSpace@Redirector@CryptoPP@@UAEPAEABV?$basic_string@DU?$char_traits@D@std@@V?$allocator@D@2@@std@@AAI@Z 429029a1 f i asn.obj
 0001:000019bc       ?ChannelPut2@Redirector@CryptoPP@@UAEIABV?$basic_string@DU?$char_traits@D@std@@V?$allocator@D@2@@std@@PBEIH_N@Z 429029bc f i asn.obj
 0001:000019f3       ?ChannelPutModifiable2@Redirector@CryptoPP@@UAEIABV?$basic_string@DU?$char_traits@D@std@@V?$allocator@D@2@@std@@PAEIH_N@Z 429029f3 f i asn.obj
 0001:00001a2a       ?ChannelFlush@Redirector@CryptoPP@@UAE_NABV?$basic_string@DU?$char_traits@D@std@@V?$allocator@D@2@@std@@_NH1@Z 42902a2a f i asn.obj
 0001:00001a45       ?ChannelMessageSeriesEnd@Redirector@CryptoPP@@UAE_NABV?$basic_string@DU?$char_traits@D@std@@V?$allocator@D@2@@std@@H_N@Z 42902a45 f i asn.obj
 0001:00001a60       ?GetMaxWaitObjectCount@Redirector@CryptoPP@@UBEIXZ 42902a60 f i asn.obj
 0001:00001a7d       ?GetWaitObjects@Redirector@CryptoPP@@UAEXAAVWaitObjectContainer@2@ABVCallStack@2@@Z 42902a7d f i asn.obj
 0001:00001a9a       ?GetPassSignal@OutputProxy@CryptoPP@@QBE_NXZ 42902a9a f i asn.obj
 0001:00001a9e       ?SetPassSignal@OutputProxy@CryptoPP@@QAEX_N@Z 42902a9e f i asn.obj
 0001:00001aa8       ?CreatePutSpace@OutputProxy@CryptoPP@@UAEPAEAAI@Z 42902aa8 f i asn.obj
 0001:00001aba       ?Put2@OutputProxy@CryptoPP@@UAEIPBEIH_N@Z 42902aba f i asn.obj
 0001:00001aeb       ?PutModifiable2@OutputProxy@CryptoPP@@UAEIPAEIH_N@Z 42902aeb f i asn.obj
 0001:00001b1c       ?Initialize@OutputProxy@CryptoPP@@UAEXABVNameValuePairs@2@H@Z 42902b1c f i asn.obj
 0001:00001b37       ?Flush@OutputProxy@CryptoPP@@UAE_N_NH0@Z 42902b37 f i asn.obj
 0001:00001b53       ?MessageSeriesEnd@OutputProxy@CryptoPP@@UAE_NH_N@Z 42902b53 f i asn.obj
 0001:00001b6f       ?ChannelCreatePutSpace@OutputProxy@CryptoPP@@UAEPAEABV?$basic_string@DU?$char_traits@D@std@@V?$allocator@D@2@@std@@AAI@Z 42902b6f f i asn.obj
 0001:00001b84       ?ChannelPut2@OutputProxy@CryptoPP@@UAEIABV?$basic_string@DU?$char_traits@D@std@@V?$allocator@D@2@@std@@PBEIH_N@Z 42902b84 f i asn.obj
 0001:00001bbb       ?ChannelPutModifiable2@OutputProxy@CryptoPP@@UAEIABV?$basic_string@DU?$char_traits@D@std@@V?$allocator@D@2@@std@@PAEIH_N@Z 42902bbb f i asn.obj
 0001:00001bf2       ?ChannelFlush@OutputProxy@CryptoPP@@UAE_NABV?$basic_string@DU?$char_traits@D@std@@V?$allocator@D@2@@std@@_NH1@Z 42902bf2 f i asn.obj
 0001:00001c11       ?ChannelMessageSeriesEnd@OutputProxy@CryptoPP@@UAE_NABV?$basic_string@DU?$char_traits@D@std@@V?$allocator@D@2@@std@@H_N@Z 42902c11 f i asn.obj
 0001:00001c30       ?destroy@?$AllocatorBase@_K@CryptoPP@@QAEXPA_K@Z 42902c30 f i dll.obj
 0001:00001c30       ?StoreInitialize@BERGeneralDecoder@CryptoPP@@EAEXABVNameValuePairs@2@@Z 42902c30 f i asn.obj
 0001:00001c30       ?imbue@?$basic_streambuf@DU?$char_traits@D@std@@@std@@MAEXABVlocale@2@@Z 42902c30 f i files.obj
 0001:00001c30       ?SetAutoSignalPropagation@BufferedTransformation@CryptoPP@@UAEXH@Z 42902c30 f i asn.obj
 0001:00001c30       ?NextPutSingle@FilterWithBufferedInput@CryptoPP@@MAEXPBE@Z 42902c30 f i asn.obj
 0001:00001c30       ??4AlgorithmParametersBase@CryptoPP@@IAEXABV01@@Z 42902c30 f i algparam.obj
 0001:00001c30       ?destroy@?$AllocatorBase@I@CryptoPP@@QAEXPAI@Z 42902c30 f i dll.obj
 0001:00001c30       ?destroy@?$AllocatorBase@G@CryptoPP@@QAEXPAG@Z 42902c30 f i dll.obj
 0001:00001c30       ?AssertValidKeyLength@SimpleKeyingInterface@CryptoPP@@IBEXI@Z 42902c30 f i des.obj
 0001:00001c30       ?destroy@?$AllocatorBase@E@CryptoPP@@QAEXPAE@Z 42902c30 f i dll.obj
 0001:00001c30       ?IsolatedInitialize@BitBucket@CryptoPP@@UAEXABVNameValuePairs@2@@Z 42902c30 f i cryptlib.obj
 0001:00001c30       ?FirstPut@SimpleProxyFilter@CryptoPP@@UAEXPBE@Z 42902c30 f i asn.obj
 0001:00001c30       ?InitializeDerived@FilterWithBufferedInput@CryptoPP@@MAEXABVNameValuePairs@2@@Z 42902c30 f i asn.obj
 0001:00001c30       ?StoreInitialize@NullStore@CryptoPP@@UAEXABVNameValuePairs@2@@Z 42902c30 f i asn.obj
 0001:00001c30       ?IsolatedInitialize@?$CustomSignalPropagation@VSink@CryptoPP@@@CryptoPP@@EAEXABVNameValuePairs@2@@Z 42902c30 f i asn.obj
 0001:00001c30       ?DEREncode@GF2NP@CryptoPP@@UBEXAAVBufferedTransformation@2@@Z 42902c30 f i dll.obj
 0001:00001c33       ?AnyRetrievable@RandomNumberStore@CryptoPP@@UBE_NXZ 42902c33 f i asn.obj
 0001:00001c43       ?MaxRetrievable@RandomNumberStore@CryptoPP@@UBE_KXZ 42902c43 f i asn.obj
 0001:00001c50       ?TotalPutLength@ArraySink@CryptoPP@@QAE_KXZ 42902c50 f i asn.obj
 0001:00001c50       ?MaxRetrievable@NullStore@CryptoPP@@UBE_KXZ 42902c50 f i asn.obj
 0001:00001c57       ?Pump@Source@CryptoPP@@QAE_K_K@Z 42902c57 f i asn.obj
 0001:00001c71       ?PumpMessages@Source@CryptoPP@@QAEII@Z 42902c71 f i asn.obj
 0001:00001c87       ?PumpAll@Source@CryptoPP@@QAEXXZ 42902c87 f i asn.obj
 0001:00001c92       ?SourceInitialize@Source@CryptoPP@@IAEX_NABVNameValuePairs@2@@Z 42902c92 f i asn.obj
 0001:00001cb5       ?IsDefiniteLength@BERGeneralDecoder@CryptoPP@@QBE_NXZ 42902cb5 f i asn.obj
 0001:00001cb9       ?GetCurrentMessageBytes@MeterFilter@CryptoPP@@QBE_KXZ 42902cb9 f i asn.obj
 0001:00001cb9       ?RemainingLength@BERGeneralDecoder@CryptoPP@@QBE_KXZ 42902cb9 f i asn.obj
 0001:00001cc0       ?EndReached@BERGeneralDecoder@CryptoPP@@QBE_NXZ 42902cc0 f   asn.obj
 0001:00001cf5       ?Put@BufferedTransformation@CryptoPP@@QAEIPBEI_N@Z 42902cf5 f i asn.obj
 0001:00001d0b       ?MessageEnd@BufferedTransformation@CryptoPP@@QAE_NH_N@Z 42902d0b f i asn.obj
 0001:00001d30       ??0DERGeneralEncoder@CryptoPP@@QAE@AAV01@E@Z 42902d30 f   asn.obj
 0001:00001d30       ??0DERGeneralEncoder@CryptoPP@@QAE@AAVBufferedTransformation@1@E@Z 42902d30 f   asn.obj
 0001:00001d5f       ?IsolatedMessageSeriesEnd@BufferedTransformation@CryptoPP@@UAE_N_N@Z 42902d5f f i asn.obj
 0001:00001d64       ?TransferTo@BufferedTransformation@CryptoPP@@QAE_KAAV12@_KABV?$basic_string@DU?$char_traits@D@std@@V?$allocator@D@2@@std@@@Z 42902d64 f i asn.obj
 0001:00001d82       ?CopyRangeTo@BufferedTransformation@CryptoPP@@QBE_KAAV12@_K1ABV?$basic_string@DU?$char_traits@D@std@@V?$allocator@D@2@@std@@@Z 42902d82 f i asn.obj
 0001:00001dc7       ?TransferAllTo@BufferedTransformation@CryptoPP@@QAEXAAV12@ABV?$basic_string@DU?$char_traits@D@std@@V?$allocator@D@2@@std@@@Z 42902dc7 f i asn.obj
 0001:00001dd9       ?NumberOfMessagesInThisSeries@BufferedTransformation@CryptoPP@@UBEIXZ 42902dd9 f i asn.obj
 0001:00001dde       ?AttachedTransformation@BufferedTransformation@CryptoPP@@UBEPBV12@XZ 42902dde f i asn.obj
 0001:00001de6       ?IsolatedFlush@?$CustomFlushPropagation@VSink@CryptoPP@@@CryptoPP@@EAE_N_N0@Z 42902de6 f i asn.obj
 0001:00001de6       ?IsolatedFlush@?$InputRejecting@VFilter@CryptoPP@@@CryptoPP@@UAE_N_N0@Z 42902de6 f i asn.obj
 0001:00001de6       ?IsolatedFlush@?$Unflushable@V?$Multichannel@VFilter@CryptoPP@@@CryptoPP@@@CryptoPP@@UAE_N_N0@Z 42902de6 f i dll.obj
 0001:00001de6       ?IsolatedFlush@?$Bufferless@VBufferedTransformation@CryptoPP@@@CryptoPP@@UAE_N_N0@Z 42902de6 f i asn.obj
 0001:00001de6       ?IsolatedFlush@MessageQueue@CryptoPP@@UAE_N_N0@Z 42902de6 f i dll.obj
 0001:00001de6       ?IsolatedFlush@?$InputRejecting@VBufferedTransformation@CryptoPP@@@CryptoPP@@UAE_N_N0@Z 42902de6 f i asn.obj
 0001:00001de6       ?IsolatedFlush@?$Unflushable@VFilter@CryptoPP@@@CryptoPP@@UAE_N_N0@Z 42902de6 f i asn.obj
 0001:00001de6       ?IsolatedFlush@?$Bufferless@VSink@CryptoPP@@@CryptoPP@@UAE_N_N0@Z 42902de6 f i asn.obj
 0001:00001de6       ?IsolatedFlush@?$Bufferless@VFilter@CryptoPP@@@CryptoPP@@UAE_N_N0@Z 42902de6 f i asn.obj
 0001:00001de6       ?IsolatedFlush@?$CustomFlushPropagation@VFilter@CryptoPP@@@CryptoPP@@EAE_N_N0@Z 42902de6 f i dll.obj
 0001:00001deb       ?Pump2@?$SourceTemplate@VStringStore@CryptoPP@@@CryptoPP@@UAEIAA_K_N@Z 42902deb f i asn.obj
 0001:00001deb       ?Pump2@?$SourceTemplate@VFileStore@CryptoPP@@@CryptoPP@@UAEIAA_K_N@Z 42902deb f i dll.obj
 0001:00001deb       ?Pump2@?$SourceTemplate@VRandomNumberStore@CryptoPP@@@CryptoPP@@UAEIAA_K_N@Z 42902deb f i asn.obj
 0001:00001e12       ?PumpMessages2@?$SourceTemplate@VRandomNumberStore@CryptoPP@@@CryptoPP@@UAEIAAI_N@Z 42902e12 f i asn.obj
 0001:00001e12       ?PumpMessages2@?$SourceTemplate@VStringStore@CryptoPP@@@CryptoPP@@UAEIAAI_N@Z 42902e12 f i asn.obj
 0001:00001e12       ?PumpMessages2@?$SourceTemplate@VFileStore@CryptoPP@@@CryptoPP@@UAEIAAI_N@Z 42902e12 f i dll.obj
 0001:00001e37       ?SourceExhausted@?$SourceTemplate@VStringStore@CryptoPP@@@CryptoPP@@UBE_NXZ 42902e37 f i asn.obj
 0001:00001e37       ?SourceExhausted@?$SourceTemplate@VRandomNumberStore@CryptoPP@@@CryptoPP@@UBE_NXZ 42902e37 f i asn.obj
 0001:00001e37       ?SourceExhausted@?$SourceTemplate@VFileStore@CryptoPP@@@CryptoPP@@UBE_NXZ 42902e37 f i dll.obj
 0001:00001e5a       ?size@?$vector@IV?$allocator@I@std@@@std@@QBEIXZ 42902e5a f i asn.obj
 0001:00001e6d       ?Save@?$ASN1CryptoMaterial@VPublicKey@CryptoPP@@@CryptoPP@@UBEXAAVBufferedTransformation@2@@Z 42902e6d f i asn.obj
 0001:00001e75       ?Load@?$ASN1CryptoMaterial@VPublicKey@CryptoPP@@@CryptoPP@@UAEXAAVBufferedTransformation@2@@Z 42902e75 f i asn.obj
 0001:00001e7d       ?Save@?$ASN1CryptoMaterial@VPrivateKey@CryptoPP@@@CryptoPP@@UBEXAAVBufferedTransformation@2@@Z 42902e7d f i asn.obj
 0001:00001e85       ?Load@?$ASN1CryptoMaterial@VPrivateKey@CryptoPP@@@CryptoPP@@UAEXAAVBufferedTransformation@2@@Z 42902e85 f i asn.obj
 0001:00001e8d       ?capacity@?$vector@IV?$allocator@I@std@@@std@@QBEIXZ 42902e8d f i asn.obj
 0001:00001ea0       ??$SaturatingSubtract@I_K@CryptoPP@@YAIABIAB_K@Z 42902ea0 f i asn.obj
 0001:00001ecd       ??$BytePrecision@_K@CryptoPP@@YAIAB_K@Z 42902ecd f i asn.obj
 0001:00001f20       ??$SafeConvert@_KI@CryptoPP@@YA_N_KAAI@Z 42902f20 f i asn.obj
 0001:00001f4d       ??$BitPrecision@I@CryptoPP@@YAIABI@Z 42902f4d f i asn.obj
 0001:00001f81       ??$STDMIN@_K@CryptoPP@@YAAB_KAB_K0@Z 42902f81 f i asn.obj
 0001:00001f9c       ??$_Uninit_copy@PA_KPA_K@std@@YAPAPA_KPAPA_K00AAV?$allocator@PA_K@0@U_Scalar_ptr_iterator_tag@0@@Z 42902f9c f i dll.obj
 0001:00001f9c       ??$_Copy_opt@PAIPAI@std@@YAPAIPAI00U_Scalar_ptr_iterator_tag@0@@Z 42902f9c f i asn.obj
 0001:00001f9c       ??$_Uninit_copy@PAUMessageRange@MeterFilter@CryptoPP@@PAU123@@std@@YAPAPAUMessageRange@MeterFilter@CryptoPP@@PAPAU123@00AAV?$allocator@PAUMessageRange@MeterFilter@CryptoPP@@@0@U_Scalar_ptr_iterator_tag@0@@Z 42902f9c f i filters.obj
 0001:00001f9c       ??$_Uninit_copy@PAIPAI@std@@YAPAPAIPAPAI00AAV?$allocator@PAI@0@U_Scalar_ptr_iterator_tag@0@@Z 42902f9c f i dll.obj
 0001:00001f9c       ??$_Uninit_copy@II@std@@YAPAIPAI00AAV?$allocator@I@0@U_Scalar_ptr_iterator_tag@0@@Z 42902f9c f i asn.obj
 0001:00001fc2       ??$_Copy_backward_opt@PAIPAI@std@@YAPAIPAI00U_Scalar_ptr_iterator_tag@0@@Z 42902fc2 f i asn.obj
 0001:00001fe5       ??$fill_n@PAIII@std@@YAXPAIIABI@Z 42902fe5 f i asn.obj
 0001:00001fe5       ??$fill_n@PAPAUMessageRange@MeterFilter@CryptoPP@@IPAU123@@std@@YAXPAPAUMessageRange@MeterFilter@CryptoPP@@IABQAU123@@Z 42902fe5 f i filters.obj
 0001:00001fe5       ??$fill_n@PAPAIIPAI@std@@YAXPAPAIIABQAI@Z 42902fe5 f i dll.obj
 0001:00001fe5       ??$fill_n@PAPA_KIPA_K@std@@YAXPAPA_KIABQA_K@Z 42902fe5 f i dll.obj
 0001:00002000       ?GetAutoSignalPropagation@?$AutoSignaling@VBufferedTransformation@CryptoPP@@@CryptoPP@@UBEHXZ 42903000 f i dll.obj
 0001:00002000       ?GetErrorType@Exception@CryptoPP@@QBE?AW4ErrorType@12@XZ 42903000 f i dll.obj
 0001:00002000       ?MandatoryBlockSize@BlockOrientedCipherModeBase@CryptoPP@@UBEIXZ 42903000 f i ccm.obj
 0001:00002000       ?length@DNameStatusNode@@UBEHXZ 42903000 f i LIBCMT:undname.obj
 0001:00002000       ?length@pcharNode@@UBEHXZ  42903000 f i LIBCMT:undname.obj
 0001:00002000       ?GetAutoSignalPropagation@?$AutoSignaling@V?$InputRejecting@VBufferedTransformation@CryptoPP@@@CryptoPP@@@CryptoPP@@UBEHXZ 42903000 f i asn.obj
 0001:00002004       ??$IsPowerOf2@I@CryptoPP@@YA_NABI@Z 42903004 f i asn.obj
 0001:0000201c       ??1?$Unflushable@VFilter@CryptoPP@@@CryptoPP@@UAE@XZ 4290301c f i asn.obj
 0001:0000201c       ??1Filter@CryptoPP@@UAE@XZ 4290301c f i asn.obj
 0001:0000201c       ??1Source@CryptoPP@@UAE@XZ 4290301c f i asn.obj
 0001:0000201c       ??1?$Bufferless@VFilter@CryptoPP@@@CryptoPP@@UAE@XZ 4290301c f i asn.obj
 0001:0000201c       ??1?$Unflushable@V?$Multichannel@VFilter@CryptoPP@@@CryptoPP@@@CryptoPP@@UAE@XZ 4290301c f i dll.obj
 0001:0000201c       ??1?$Multichannel@VFilter@CryptoPP@@@CryptoPP@@UAE@XZ 4290301c f i dll.obj
 0001:0000201c       ??1?$SourceTemplate@VStringStore@CryptoPP@@@CryptoPP@@UAE@XZ 4290301c f i asn.obj
 0001:0000201c       ??1RandomNumberSource@CryptoPP@@UAE@XZ 4290301c f i asn.obj
 0001:0000201c       ??1?$InputRejecting@VFilter@CryptoPP@@@CryptoPP@@UAE@XZ 4290301c f i asn.obj
 0001:0000201c       ??1?$CustomFlushPropagation@VFilter@CryptoPP@@@CryptoPP@@UAE@XZ 4290301c f i dll.obj
 0001:0000201c       ??1StringSource@CryptoPP@@UAE@XZ 4290301c f i asn.obj
 0001:0000201c       ??1?$SourceTemplate@VRandomNumberStore@CryptoPP@@@CryptoPP@@UAE@XZ 4290301c f i asn.obj
 0001:00002024       ??0?$Unflushable@V?$Multichannel@VFilter@CryptoPP@@@CryptoPP@@@CryptoPP@@QAE@XZ 42903024 f i dll.obj
 0001:00002024       ??0?$Bufferless@VFilter@CryptoPP@@@CryptoPP@@QAE@XZ 42903024 f i asn.obj
 0001:00002024       ??0?$InputRejecting@VFilter@CryptoPP@@@CryptoPP@@QAE@XZ 42903024 f i asn.obj
 0001:00002024       ??0?$CustomFlushPropagation@VFilter@CryptoPP@@@CryptoPP@@QAE@XZ 42903024 f i dll.obj
 0001:00002024       ??0?$Multichannel@VFilter@CryptoPP@@@CryptoPP@@QAE@XZ 42903024 f i dll.obj
 0001:00002024       ??0?$Unflushable@VFilter@CryptoPP@@@CryptoPP@@QAE@XZ 42903024 f i asn.obj
 0001:00002032       ??0FilterWithInputQueue@CryptoPP@@QAE@PAVBufferedTransformation@1@@Z 42903032 f i asn.obj
 0001:00002077       ??1FilterWithInputQueue@CryptoPP@@UAE@XZ 42903077 f i asn.obj
 0001:000020ad       ??_FFilterWithInputQueue@CryptoPP@@QAEXXZ 429030ad f i asn.obj
 0001:000020b5       ??_EFilterWithInputQueue@CryptoPP@@UAEPAXI@Z 429030b5 f i asn.obj
 0001:00002100       ??_ERedirector@CryptoPP@@UAEPAXI@Z 42903100 f i asn.obj
 0001:00002100       ??_EOutputProxy@CryptoPP@@UAEPAXI@Z 42903100 f i asn.obj
 0001:00002144       ?LastPut@SimpleProxyFilter@CryptoPP@@UAEXPBEI@Z 42903144 f i asn.obj
 0001:00002157       ??_E?$StringSinkTemplate@V?$basic_string@DU?$char_traits@D@std@@V?$allocator@D@2@@std@@@CryptoPP@@UAEPAXI@Z 42903157 f i asn.obj
 0001:0000219b       ?AvailableSize@ArraySink@CryptoPP@@QAEIXZ 4290319b f i asn.obj
 0001:000021ab       ?CreateUpdateSpace@HashTransformation@CryptoPP@@UAEPAEAAI@Z 429031ab f i dh.obj
 0001:000021ab       ?CreatePutSpace@BufferedTransformation@CryptoPP@@UAEPAEAAI@Z 429031ab f i asn.obj
 0001:000021ab       ?CreatePutSpace@ArrayXorSink@CryptoPP@@UAEPAEAAI@Z 429031ab f i asn.obj
 0001:000021b7       ??_ERandomNumberStore@CryptoPP@@UAEPAXI@Z 429031b7 f i asn.obj
 0001:000021fb       ??_EArrayXorSink@CryptoPP@@UAEPAXI@Z 429031fb f i asn.obj
 0001:000021fb       ??_EArraySink@CryptoPP@@UAEPAXI@Z 429031fb f i asn.obj
 0001:000021fb       ??_ENullStore@CryptoPP@@UAEPAXI@Z 429031fb f i asn.obj
 0001:0000223f       ??_EStringSource@CryptoPP@@UAEPAXI@Z 4290323f f i asn.obj
 0001:0000223f       ??_E?$SourceTemplate@VStringStore@CryptoPP@@@CryptoPP@@UAEPAXI@Z 4290323f f i asn.obj
 0001:0000228a       ??_ERandomNumberSource@CryptoPP@@UAEPAXI@Z 4290328a f i asn.obj
 0001:0000228a       ??_E?$SourceTemplate@VRandomNumberStore@CryptoPP@@@CryptoPP@@UAEPAXI@Z 4290328a f i asn.obj
 0001:000022d5       ??_ODERGeneralEncoder@CryptoPP@@QAEXAAV01@@Z 429032d5 f i asn.obj
 0001:000022e3       ??1PKCS8PrivateKey@CryptoPP@@UAE@XZ 429032e3 f i asn.obj
 0001:000022eb       ??_DPKCS8PrivateKey@CryptoPP@@QAEXXZ 429032eb f i asn.obj
 0001:000022f0       ??0BufferedTransformation@CryptoPP@@QAE@XZ 429032f0 f i asn.obj
 0001:000022fe       ?Put@BufferedTransformation@CryptoPP@@QAEIE_N@Z 429032fe f i asn.obj
 0001:00002313       ?CopyRangeTo2@BERGeneralDecoder@CryptoPP@@UBEIAAVBufferedTransformation@2@AA_K_KABV?$basic_string@DU?$char_traits@D@std@@V?$allocator@D@2@@std@@_N@Z 42903313 f   asn.obj
 0001:0000235b       ?CopyTo@BufferedTransformation@CryptoPP@@QBE_KAAV12@_KABV?$basic_string@DU?$char_traits@D@std@@V?$allocator@D@2@@std@@@Z 4290335b f i asn.obj
 0001:00002377       ?DEREncodeOptionalAttributes@PKCS8PrivateKey@CryptoPP@@UBEXAAVBufferedTransformation@2@@Z 42903377 f   asn.obj
 0001:00002393       ??4BufferedTransformation@CryptoPP@@QAEAAV01@ABV01@@Z 42903393 f i asn.obj
 0001:000023b1       ??0GeneratableCryptoMaterial@CryptoPP@@QAE@XZ 429033b1 f i asn.obj
 0001:000023cc       ??0GeneratableCryptoMaterial@CryptoPP@@QAE@ABV01@@Z 429033cc f i asn.obj
 0001:000023e7       ??0PublicKey@CryptoPP@@QAE@XZ 429033e7 f i asn.obj
 0001:00002401       ??0PublicKey@CryptoPP@@QAE@ABV01@@Z 42903401 f i asn.obj
 0001:0000241b       ??0PrivateKey@CryptoPP@@QAE@XZ 4290341b f i asn.obj
 0001:00002442       ??0PrivateKey@CryptoPP@@QAE@ABV01@@Z 42903442 f i asn.obj
 0001:0000246c       ??$copy@PAIPAI@std@@YAPAIPAI00@Z 4290346c f i asn.obj
 0001:00002486       ??$copy_backward@PAIPAI@std@@YAPAIPAI00@Z 42903486 f i asn.obj
 0001:000024a0       ??$RoundDownToMultipleOf@II@CryptoPP@@YAIABI0@Z 429034a0 f i asn.obj
 0001:000024cd       ??0?$AutoSignaling@V?$InputRejecting@VBufferedTransformation@CryptoPP@@@CryptoPP@@@CryptoPP@@QAE@ABV01@@Z 429034cd f i asn.obj
 0001:000024e8       ??$mismatch@Vconst_iterator@?$vector@IV?$allocator@I@std@@@std@@V123@@std@@YA?AU?$pair@Vconst_iterator@?$vector@IV?$allocator@I@std@@@std@@V123@@0@Vconst_iterator@?$vector@IV?$allocator@I@std@@@0@00@Z 429034e8 f i asn.obj
 0001:0000250e       ??0Store@CryptoPP@@QAE@ABV01@@Z 4290350e f i asn.obj
 0001:00002529       ??4Store@CryptoPP@@QAEAAV01@ABV01@@Z 42903529 f i asn.obj
 0001:00002544       ??_EFilterWithInputQueue@CryptoPP@@W3AEPAXI@Z 42903544 f i asn.obj
 0001:0000254c       ??4?$Bufferless@VBufferedTransformation@CryptoPP@@@CryptoPP@@QAEAAV01@ABV01@@Z 4290354c f i asn.obj
 0001:0000254c       ??4?$CustomSignalPropagation@VSink@CryptoPP@@@CryptoPP@@QAEAAV01@ABV01@@Z 4290354c f i asn.obj
 0001:0000254c       ??4?$InputRejecting@VBufferedTransformation@CryptoPP@@@CryptoPP@@QAEAAV01@ABV01@@Z 4290354c f i asn.obj
 0001:0000254c       ??4?$Bufferless@VSink@CryptoPP@@@CryptoPP@@QAEAAV01@ABV01@@Z 4290354c f i asn.obj
 0001:0000254c       ??4?$CustomFlushPropagation@VSink@CryptoPP@@@CryptoPP@@QAEAAV01@ABV01@@Z 4290354c f i asn.obj
 0001:0000254c       ??4?$Multichannel@VSink@CryptoPP@@@CryptoPP@@QAEAAV01@ABV01@@Z 4290354c f i channels.obj
 0001:0000254c       ??4BitBucket@CryptoPP@@QAEAAV01@ABV01@@Z 4290354c f i dll.obj
 0001:0000254c       ??4Sink@CryptoPP@@QAEAAV01@ABV01@@Z 4290354c f i asn.obj
 0001:0000255e       ??0?$CustomFlushPropagation@VSink@CryptoPP@@@CryptoPP@@QAE@ABV01@@Z 4290355e f i asn.obj
 0001:0000255e       ??0?$Bufferless@VSink@CryptoPP@@@CryptoPP@@QAE@ABV01@@Z 4290355e f i asn.obj
 0001:00002570       ??0?$AutoSignaling@V?$InputRejecting@VBufferedTransformation@CryptoPP@@@CryptoPP@@@CryptoPP@@QAE@H@Z 42903570 f i asn.obj
 0001:00002585       ??0Walker@ByteQueue@CryptoPP@@QAE@ABV12@@Z 42903585 f i asn.obj
 0001:000025b6       ?MaxRetrievable@Walker@ByteQueue@CryptoPP@@UBE_KXZ 429035b6 f i asn.obj
 0001:000025c9       ??0?$Bufferless@VBufferedTransformation@CryptoPP@@@CryptoPP@@QAE@ABV01@@Z 429035c9 f i asn.obj
 0001:000025c9       ??0?$InputRejecting@VBufferedTransformation@CryptoPP@@@CryptoPP@@QAE@ABV01@@Z 429035c9 f i asn.obj
 0001:000025c9       ??0?$CFB_EncryptionTemplate@V?$AbstractPolicyHolder@VCFB_CipherAbstractPolicy@CryptoPP@@VSymmetricCipher@2@@CryptoPP@@@CryptoPP@@QAE@ABV01@@Z 429035c9 f i ccm.obj
 0001:000025c9       ??0?$CFB_DecryptionTemplate@V?$AbstractPolicyHolder@VCFB_CipherAbstractPolicy@CryptoPP@@VSymmetricCipher@2@@CryptoPP@@@CryptoPP@@QAE@ABV01@@Z 429035c9 f i ccm.obj
 0001:000025c9       ??0Sink@CryptoPP@@QAE@ABV01@@Z 429035c9 f i asn.obj
 0001:000025db       ??0?$InputRejecting@VBufferedTransformation@CryptoPP@@@CryptoPP@@QAE@XZ 429035db f i asn.obj
 0001:000025db       ??0Sink@CryptoPP@@QAE@XZ   429035db f i asn.obj
 0001:000025db       ??0?$Bufferless@VBufferedTransformation@CryptoPP@@@CryptoPP@@QAE@XZ 429035db f i asn.obj
 0001:000025e7       ??0?$Bufferless@VSink@CryptoPP@@@CryptoPP@@QAE@XZ 429035e7 f i asn.obj
 0001:000025e7       ??0?$CustomFlushPropagation@VSink@CryptoPP@@@CryptoPP@@QAE@XZ 429035e7 f i asn.obj
 0001:000025f3       ??0?$CustomSignalPropagation@VSink@CryptoPP@@@CryptoPP@@QAE@ABV01@@Z 429035f3 f i asn.obj
 0001:000025f3       ??0?$Multichannel@VSink@CryptoPP@@@CryptoPP@@QAE@ABV01@@Z 429035f3 f i channels.obj
 0001:00002605       ??0Redirector@CryptoPP@@QAE@ABV01@@Z 42903605 f i asn.obj
 0001:00002633       ?TransferTo2@Sink@CryptoPP@@UAEIAAVBufferedTransformation@2@AA_KABV?$basic_string@DU?$char_traits@D@std@@V?$allocator@D@2@@std@@_N@Z 42903633 f i asn.obj
 0001:00002643       ?CopyRangeTo2@Sink@CryptoPP@@UBEIAAVBufferedTransformation@2@AA_K_KABV?$basic_string@DU?$char_traits@D@std@@V?$allocator@D@2@@std@@_N@Z 42903643 f i asn.obj
 0001:00002648       ??_EOutputProxy@CryptoPP@@W3AEPAXI@Z 42903648 f i asn.obj
 0001:00002648       ??_ERedirector@CryptoPP@@W3AEPAXI@Z 42903648 f i asn.obj
 0001:00002650       ??4Redirector@CryptoPP@@QAEAAV01@ABV01@@Z 42903650 f i asn.obj
 0001:00002671       ??0OutputProxy@CryptoPP@@QAE@AAVBufferedTransformation@1@_N@Z 42903671 f i asn.obj
 0001:0000269a       ??0OutputProxy@CryptoPP@@QAE@ABV01@@Z 4290369a f i asn.obj
 0001:000026c8       ??0?$StringSinkTemplate@V?$basic_string@DU?$char_traits@D@std@@V?$allocator@D@2@@std@@@CryptoPP@@QAE@ABV01@@Z 429036c8 f i asn.obj
 0001:000026f0       ??_E?$StringSinkTemplate@V?$basic_string@DU?$char_traits@D@std@@V?$allocator@D@2@@std@@@CryptoPP@@W3AEPAXI@Z 429036f0 f i asn.obj
 0001:000026f8       ??0ArraySink@CryptoPP@@QAE@ABVNameValuePairs@1@@Z 429036f8 f i asn.obj
 0001:0000271e       ??_ENullStore@CryptoPP@@W3AEPAXI@Z 4290371e f i asn.obj
 0001:0000271e       ??_EArrayXorSink@CryptoPP@@W3AEPAXI@Z 4290371e f i asn.obj
 0001:0000271e       ??_EArraySink@CryptoPP@@W3AEPAXI@Z 4290371e f i asn.obj
 0001:00002726       ??0ArraySink@CryptoPP@@QAE@PAEI@Z 42903726 f i asn.obj
 0001:00002757       ??0ArraySink@CryptoPP@@QAE@ABV01@@Z 42903757 f i asn.obj
 0001:00002791       ??4ArraySink@CryptoPP@@QAEAAV01@ABV01@@Z 42903791 f i asn.obj
 0001:000027be       ??_FArraySink@CryptoPP@@QAEXXZ 429037be f i asn.obj
 0001:000027ca       ??0ArrayXorSink@CryptoPP@@QAE@PAEI@Z 429037ca f i asn.obj
 0001:000027ed       ??0ArrayXorSink@CryptoPP@@QAE@ABV01@@Z 429037ed f i asn.obj
 0001:0000280c       ??4ArrayXorSink@CryptoPP@@QAEAAV01@ABV01@@Z 4290380c f i asn.obj
 0001:0000281e       ??0RandomNumberStore@CryptoPP@@QAE@ABV01@@Z 4290381e f i asn.obj
 0001:0000285e       ?IsolatedInitialize@Store@CryptoPP@@UAEXABVNameValuePairs@2@@Z 4290385e f i asn.obj
 0001:0000286a       ?NumberOfMessages@Store@CryptoPP@@UBEIXZ 4290386a f i asn.obj
 0001:00002873       ??_ERandomNumberStore@CryptoPP@@W3AEPAXI@Z 42903873 f i asn.obj
 0001:0000287b       ??4RandomNumberStore@CryptoPP@@QAEAAV01@ABV01@@Z 4290387b f i asn.obj
 0001:000028ae       ??0NullStore@CryptoPP@@QAE@ABV01@@Z 429038ae f i asn.obj
 0001:000028dc       ??4NullStore@CryptoPP@@QAEAAV01@ABV01@@Z 429038dc f i asn.obj
 0001:000028fd       ??0Source@CryptoPP@@QAE@PAVBufferedTransformation@1@@Z 429038fd f i asn.obj
 0001:00002934       ??_FSource@CryptoPP@@QAEXXZ 42903934 f i asn.obj
 0001:0000293c       ??0BERGeneralDecoder@CryptoPP@@QAE@ABV01@@Z 4290393c f i asn.obj
 0001:0000297c       ??0?$ASN1CryptoMaterial@VPublicKey@CryptoPP@@@CryptoPP@@QAE@XZ 4290397c f i asn.obj
 0001:000029a4       ??0?$ASN1CryptoMaterial@VPublicKey@CryptoPP@@@CryptoPP@@QAE@ABV01@@Z 429039a4 f i asn.obj
 0001:000029db       ??0X509PublicKey@CryptoPP@@QAE@XZ 429039db f i asn.obj
 0001:00002a16       ??0X509PublicKey@CryptoPP@@QAE@ABV01@@Z 42903a16 f i asn.obj
 0001:00002a54       ??0?$ASN1CryptoMaterial@VPrivateKey@CryptoPP@@@CryptoPP@@QAE@XZ 42903a54 f i asn.obj
 0001:00002a7c       ??0?$ASN1CryptoMaterial@VPrivateKey@CryptoPP@@@CryptoPP@@QAE@ABV01@@Z 42903a7c f i asn.obj
 0001:00002ab3       ??0PKCS8PrivateKey@CryptoPP@@QAE@XZ 42903ab3 f i asn.obj
 0001:00002b00       ?Save@?$ASN1CryptoMaterial@VPrivateKey@CryptoPP@@@CryptoPP@@WCI@BEXAAVBufferedTransformation@2@@Z 42903b00 f i asn.obj
 0001:00002b08       ?Load@?$ASN1CryptoMaterial@VPrivateKey@CryptoPP@@@CryptoPP@@WCI@AEXAAVBufferedTransformation@2@@Z 42903b08 f i asn.obj
 0001:00002b10       ??0PKCS8PrivateKey@CryptoPP@@QAE@ABV01@@Z 42903b10 f i asn.obj
 0001:00002b64       ??4PKCS8PrivateKey@CryptoPP@@QAEAAV01@ABV01@@Z 42903b64 f i asn.obj
 0001:00002b7d       ??_EPKCS8PrivateKey@CryptoPP@@UAEPAXI@Z 42903b7d f i asn.obj
 0001:00002bc8       ?DERLengthEncode@CryptoPP@@YAIAAVBufferedTransformation@1@_K@Z 42903bc8 f   asn.obj
 0001:00002c6e       ?DEREncodeNull@CryptoPP@@YAXAAVBufferedTransformation@1@@Z 42903c6e f   asn.obj
 0001:00002ca3       ?DEREncodeOctetString@CryptoPP@@YAIAAVBufferedTransformation@1@PBEI@Z 42903ca3 f   asn.obj
 0001:00002ceb       ?DEREncodeOctetString@CryptoPP@@YAIAAVBufferedTransformation@1@ABV?$SecBlock@EV?$AllocatorWithCleanup@E$0A@@CryptoPP@@@1@@Z 42903ceb f   asn.obj
 0001:00002d04       ?DEREncodeBitString@CryptoPP@@YAIAAVBufferedTransformation@1@PBEII@Z 42903d04 f   asn.obj
 0001:00002d68       ?MessageEnd@DERGeneralEncoder@CryptoPP@@QAEXXZ 42903d68 f   asn.obj
 0001:00002dc7       ?end@?$basic_string@DU?$char_traits@D@std@@V?$allocator@D@2@@std@@QAE?AViterator@12@XZ 42903dc7 f i asn.obj
 0001:00002de3       ?erase@?$vector@IV?$allocator@I@std@@@std@@QAE?AViterator@12@V312@0@Z 42903de3 f i asn.obj
 0001:00002e0f       ??$DEREncodeUnsigned@I@CryptoPP@@YAIAAVBufferedTransformation@0@IE@Z 42903e0f f i asn.obj
 0001:00002ebf       ??$equal@Vconst_iterator@?$vector@IV?$allocator@I@std@@@std@@V123@@std@@YA_NVconst_iterator@?$vector@IV?$allocator@I@std@@@0@00@Z 42903ebf f i asn.obj
 0001:00002ee7       ??0Store@CryptoPP@@QAE@XZ  42903ee7 f i asn.obj
 0001:00002ef9       ??$_Uninit_copy@Vconst_iterator@?$vector@IV?$allocator@I@std@@@std@@PAIV?$allocator@I@3@@std@@YAPAIVconst_iterator@?$vector@IV?$allocator@I@std@@@0@0PAIAAV?$allocator@I@0@U_Nonscalar_ptr_iterator_tag@0@@Z 42903ef9 f i asn.obj
 0001:00002f1f       ??_EPKCS8PrivateKey@CryptoPP@@WDE@AEPAXI@Z 42903f1f f i asn.obj
 0001:00002f27       ??_EX509PublicKey@CryptoPP@@W7AEPAXI@Z 42903f27 f i asn.obj
 0001:00002f2f       ??1logic_error@std@@UAE@XZ 42903f2f f i asn.obj
 0001:00002f4c       ?what@logic_error@std@@UBEPBDXZ 42903f4c f i asn.obj
 0001:00002f4c       ?what@runtime_error@std@@UBEPBDXZ 42903f4c f i libcpmt:ios.obj
 0001:00002f5a       ??_Glogic_error@std@@UAEPAXI@Z 42903f5a f i asn.obj
 0001:00002f5a       ??_Elogic_error@std@@UAEPAXI@Z 42903f5a f i asn.obj
 0001:00002f76       ?AlgorithmName@StreamTransformationFilter@CryptoPP@@UBE?AV?$basic_string@DU?$char_traits@D@std@@V?$allocator@D@2@@std@@XZ 42903f76 f i asn.obj
 0001:00002f90       ?AlgorithmName@HashFilter@CryptoPP@@UBE?AV?$basic_string@DU?$char_traits@D@std@@V?$allocator@D@2@@std@@XZ 42903f90 f i asn.obj
 0001:00002faa       ?AlgorithmName@HashVerificationFilter@CryptoPP@@UBE?AV?$basic_string@DU?$char_traits@D@std@@V?$allocator@D@2@@std@@XZ 42903faa f i asn.obj
 0001:00002fc4       ?AlgorithmName@AuthenticatedDecryptionFilter@CryptoPP@@UBE?AV?$basic_string@DU?$char_traits@D@std@@V?$allocator@D@2@@std@@XZ 42903fc4 f i asn.obj
 0001:00002fde       ?AlgorithmName@SignerFilter@CryptoPP@@UBE?AV?$basic_string@DU?$char_traits@D@std@@V?$allocator@D@2@@std@@XZ 42903fde f i asn.obj
 0001:00002ffb       ?AlgorithmName@SignatureVerificationFilter@CryptoPP@@UBE?AV?$basic_string@DU?$char_traits@D@std@@V?$allocator@D@2@@std@@XZ 42903ffb f i asn.obj
 0001:00003018       ??0Redirector@CryptoPP@@QAE@XZ 42904018 f i asn.obj
 0001:0000303c       ??0Redirector@CryptoPP@@QAE@AAVBufferedTransformation@1@W4Behavior@01@@Z 4290403c f i asn.obj
 0001:00003065       ??0RandomNumberStore@CryptoPP@@QAE@XZ 42904065 f i asn.obj
 0001:0000308f       ??0RandomNumberStore@CryptoPP@@QAE@AAVRandomNumberGenerator@1@_K@Z 4290408f f i asn.obj
 0001:000030c7       ??0NullStore@CryptoPP@@QAE@_K@Z 429040c7 f i asn.obj
 0001:000030f0       ??_FNullStore@CryptoPP@@QAEXXZ 429040f0 f i asn.obj
 0001:000030fa       ?DEREncodeAlgorithmParameters@PKCS8PrivateKey@CryptoPP@@UBE_NAAVBufferedTransformation@2@@Z 429040fa f i asn.obj
 0001:000030fa       ?DEREncodeAlgorithmParameters@X509PublicKey@CryptoPP@@UBE_NAAVBufferedTransformation@2@@Z 429040fa f i asn.obj
 0001:00003109       ?DEREncodeTextString@CryptoPP@@YAIAAVBufferedTransformation@1@ABV?$basic_string@DU?$char_traits@D@std@@V?$allocator@D@2@@std@@E@Z 42904109 f   asn.obj
 0001:00003167       ??1DERGeneralEncoder@CryptoPP@@UAE@XZ 42904167 f   asn.obj
 0001:000031c3       ??0?$SourceTemplate@VRandomNumberStore@CryptoPP@@@CryptoPP@@QAE@PAVBufferedTransformation@1@@Z 429041c3 f i asn.obj
 0001:00003206       ??1?$EcRecommendedParameters@VECP@CryptoPP@@@CryptoPP@@QAE@XZ 42904206 f i dll.obj
 0001:00003206       ??1?$vector@IV?$allocator@I@std@@@std@@QAE@XZ 42904206 f i asn.obj
 0001:00003206       ??1?$EcRecommendedParameters@VEC2N@CryptoPP@@@CryptoPP@@QAE@XZ 42904206 f i dll.obj
 0001:00003206       ??1OID@CryptoPP@@QAE@XZ    42904206 f i asn.obj
 0001:0000320b       ?_Tidy@?$deque@UMessageRange@MeterFilter@CryptoPP@@V?$allocator@UMessageRange@MeterFilter@CryptoPP@@@std@@@std@@IAEXXZ 4290420b f i asn.obj
 0001:0000325b       ?_Ufill@?$vector@IV?$allocator@I@std@@@std@@IAEPAIPAIIABI@Z 4290425b f i asn.obj
 0001:0000327b       ??$?8IV?$allocator@I@std@@@std@@YA_NABV?$vector@IV?$allocator@I@std@@@0@0@Z 4290427b f i asn.obj
 0001:000032bd       ??$?9IV?$allocator@I@std@@@std@@YA_NABV?$vector@IV?$allocator@I@std@@@0@0@Z 429042bd f i asn.obj
 0001:000032d2       ??$_Uninitialized_copy@Vconst_iterator@?$vector@IV?$allocator@I@std@@@std@@PAIV?$allocator@I@3@@std@@YAPAIVconst_iterator@?$vector@IV?$allocator@I@std@@@0@0PAIAAV?$allocator@I@0@@Z 429042d2 f i asn.obj
 0001:000032ef       ??1?$SecBlock@DV?$AllocatorWithCleanup@D$0A@@CryptoPP@@@CryptoPP@@QAE@XZ 429042ef f i gf2n.obj
 0001:000032ef       ??1FilterPutSpaceHelper@CryptoPP@@QAE@XZ 429042ef f i asn.obj
 0001:000032ef       ??1?$SecBlock@EV?$AllocatorWithCleanup@E$0A@@CryptoPP@@@CryptoPP@@QAE@XZ 429042ef f i algparam.obj
 0001:000032ef       ??1BlockQueue@FilterWithBufferedInput@CryptoPP@@QAE@XZ 429042ef f i asn.obj
 0001:000032fb       ??1HashFilter@CryptoPP@@UAE@XZ 429042fb f i asn.obj
 0001:00003357       ??1SignerFilter@CryptoPP@@UAE@XZ 42904357 f i asn.obj
 0001:000033a2       ??_ESignerFilter@CryptoPP@@UAEPAXI@Z 429043a2 f i asn.obj
 0001:000033ed       ??1UnknownOID@CryptoPP@@UAE@XZ 429043ed f i asn.obj
 0001:000033f2       ??_EUnknownOID@CryptoPP@@UAEPAXI@Z 429043f2 f i asn.obj
 0001:0000343d       ??_EDERGeneralEncoder@CryptoPP@@UAEPAXI@Z 4290443d f i asn.obj
 0001:00003488       ??0DERSequenceEncoder@CryptoPP@@QAE@AAV01@E@Z 42904488 f i asn.obj
 0001:00003488       ??0DERSequenceEncoder@CryptoPP@@QAE@AAVBufferedTransformation@1@E@Z 42904488 f i asn.obj
 0001:000034ab       ??1DERSetEncoder@CryptoPP@@UAE@XZ 429044ab f i asn.obj
 0001:000034ab       ??1DERSequenceEncoder@CryptoPP@@UAE@XZ 429044ab f i asn.obj
 0001:000034b0       ??_ODERSequenceEncoder@CryptoPP@@QAEXAAV01@@Z 429044b0 f i asn.obj
 0001:000034be       ??0DERSetEncoder@CryptoPP@@QAE@AAV01@E@Z 429044be f i asn.obj
 0001:000034be       ??0DERSetEncoder@CryptoPP@@QAE@AAVBufferedTransformation@1@E@Z 429044be f i asn.obj
 0001:000034e1       ??_ODERSetEncoder@CryptoPP@@QAEXAAV01@@Z 429044e1 f i asn.obj
 0001:000034ef       ??_EDERSequenceEncoder@CryptoPP@@UAEPAXI@Z 429044ef f i asn.obj
 0001:000034ef       ??_EDERSetEncoder@CryptoPP@@UAEPAXI@Z 429044ef f i asn.obj
 0001:0000353a       ??1?$deque@UMessageRange@MeterFilter@CryptoPP@@V?$allocator@UMessageRange@MeterFilter@CryptoPP@@@std@@@std@@QAE@XZ 4290453a f i asn.obj
 0001:0000353f       ?reserve@?$basic_string@DU?$char_traits@D@std@@V?$allocator@D@2@@std@@QAEXI@Z 4290453f f i asn.obj
 0001:0000356c       ?replace@?$basic_string@DU?$char_traits@D@std@@V?$allocator@D@2@@std@@QAEAAV12@IIABV12@II@Z 4290456c f i asn.obj
 0001:0000380e       ??_EDERGeneralEncoder@CryptoPP@@W3AEPAXI@Z 4290480e f i asn.obj
 0001:00003816       ??_EDERSetEncoder@CryptoPP@@W3AEPAXI@Z 42904816 f i asn.obj
 0001:00003816       ??_EDERSequenceEncoder@CryptoPP@@W3AEPAXI@Z 42904816 f i asn.obj
 0001:0000381e       ??0MeterFilter@CryptoPP@@QAE@PAVBufferedTransformation@1@_N@Z 4290481e f i asn.obj
 0001:00003881       ??1MeterFilter@CryptoPP@@UAE@XZ 42904881 f i asn.obj
 0001:00003895       ??_FMeterFilter@CryptoPP@@QAEXXZ 42904895 f i asn.obj
 0001:0000389f       ??_EMeterFilter@CryptoPP@@UAEPAXI@Z 4290489f f i asn.obj
 0001:000038ea       ??0TransparentFilter@CryptoPP@@QAE@PAVBufferedTransformation@1@@Z 429048ea f i asn.obj
 0001:0000390b       ??1OpaqueFilter@CryptoPP@@UAE@XZ 4290490b f i asn.obj
 0001:0000390b       ??1TransparentFilter@CryptoPP@@UAE@XZ 4290490b f i asn.obj
 0001:00003910       ??_FTransparentFilter@CryptoPP@@QAEXXZ 42904910 f i asn.obj
 0001:00003918       ??_ETransparentFilter@CryptoPP@@UAEPAXI@Z 42904918 f i asn.obj
 0001:00003918       ??_EOpaqueFilter@CryptoPP@@UAEPAXI@Z 42904918 f i asn.obj
 0001:00003963       ??0OpaqueFilter@CryptoPP@@QAE@PAVBufferedTransformation@1@@Z 42904963 f i asn.obj
 0001:00003984       ??_FOpaqueFilter@CryptoPP@@QAEXXZ 42904984 f i asn.obj
 0001:0000398c       ??1FilterWithBufferedInput@CryptoPP@@UAE@XZ 4290498c f i asn.obj
 0001:000039c8       ??1StreamTransformationFilter@CryptoPP@@UAE@XZ 429049c8 f i asn.obj
 0001:00003a09       ??1HashVerificationFilter@CryptoPP@@UAE@XZ 42904a09 f i asn.obj
 0001:00003a44       ??1AuthenticatedEncryptionFilter@CryptoPP@@UAE@XZ 42904a44 f i asn.obj
 0001:00003a79       ??1AuthenticatedDecryptionFilter@CryptoPP@@UAE@XZ 42904a79 f i asn.obj
 0001:00003ac0       ??1SignatureVerificationFilter@CryptoPP@@UAE@XZ 42904ac0 f i asn.obj
 0001:00003b0a       ??1ProxyFilter@CryptoPP@@UAE@XZ 42904b0a f i asn.obj
 0001:00003b3f       ??0SimpleProxyFilter@CryptoPP@@QAE@PAVBufferedTransformation@1@0@Z 42904b3f f i asn.obj
 0001:00003b66       ??1PK_EncryptorFilter@CryptoPP@@UAE@XZ 42904b66 f i asn.obj
 0001:00003b66       ??1PK_DecryptorFilter@CryptoPP@@UAE@XZ 42904b66 f i asn.obj
 0001:00003b66       ??1HexEncoder@CryptoPP@@UAE@XZ 42904b66 f i dll.obj
 0001:00003b66       ??1SimpleProxyFilter@CryptoPP@@UAE@XZ 42904b66 f i asn.obj
 0001:00003b6b       ??0PK_EncryptorFilter@CryptoPP@@QAE@AAVRandomNumberGenerator@1@ABVPK_Encryptor@1@PAVBufferedTransformation@1@@Z 42904b6b f i asn.obj
 0001:00003ba2       ??_EPK_DecryptorFilter@CryptoPP@@UAEPAXI@Z 42904ba2 f i asn.obj
 0001:00003ba2       ??_EPK_EncryptorFilter@CryptoPP@@UAEPAXI@Z 42904ba2 f i asn.obj
 0001:00003ba2       ??_ESimpleProxyFilter@CryptoPP@@UAEPAXI@Z 42904ba2 f i asn.obj
 0001:00003bed       ??0PK_DecryptorFilter@CryptoPP@@QAE@AAVRandomNumberGenerator@1@ABVPK_Decryptor@1@PAVBufferedTransformation@1@@Z 42904bed f i asn.obj
 0001:00003c24       ?replace@?$basic_string@DU?$char_traits@D@std@@V?$allocator@D@2@@std@@QAEAAV12@IIPBDI@Z 42904c24 f i asn.obj
 0001:00003d5a       ??_ESimpleProxyFilter@CryptoPP@@W3AEPAXI@Z 42904d5a f i asn.obj
 0001:00003d5a       ??_EPK_DecryptorFilter@CryptoPP@@W3AEPAXI@Z 42904d5a f i asn.obj
 0001:00003d5a       ??_EPK_EncryptorFilter@CryptoPP@@W3AEPAXI@Z 42904d5a f i asn.obj
 0001:00003d62       ??_EOpaqueFilter@CryptoPP@@W3AEPAXI@Z 42904d62 f i asn.obj
 0001:00003d62       ??_ETransparentFilter@CryptoPP@@W3AEPAXI@Z 42904d62 f i asn.obj
 0001:00003d6a       ??_EMeterFilter@CryptoPP@@W3AEPAXI@Z 42904d6a f i asn.obj
 0001:00003d72       ??0logic_error@std@@QAE@ABV?$basic_string@DU?$char_traits@D@std@@V?$allocator@D@2@@1@@Z 42904d72 f i asn.obj
 0001:00003dae       ??_Glength_error@std@@UAEPAXI@Z 42904dae f i asn.obj
 0001:00003dae       ??_Elength_error@std@@UAEPAXI@Z 42904dae f i asn.obj
 0001:00003dca       ??1length_error@std@@UAE@XZ 42904dca f i asn.obj
 0001:00003dd5       ??0NotImplemented@CryptoPP@@QAE@ABV?$basic_string@DU?$char_traits@D@std@@V?$allocator@D@2@@std@@@Z 42904dd5 f i asn.obj
 0001:00003def       ??0CannotFlush@CryptoPP@@QAE@ABV?$basic_string@DU?$char_traits@D@std@@V?$allocator@D@2@@std@@@Z 42904def f i asn.obj
 0001:00003e09       ?replace@?$basic_string@DU?$char_traits@D@std@@V?$allocator@D@2@@std@@QAEAAV12@Viterator@12@0PBD1@Z 42904e09 f i asn.obj
 0001:00003e83       ??0BERDecodeErr@CryptoPP@@QAE@ABV?$basic_string@DU?$char_traits@D@std@@V?$allocator@D@2@@std@@@Z 42904e83 f i asn.obj
 0001:00003e9b       ??0BERDecodeErr@CryptoPP@@QAE@ABV01@@Z 42904e9b f i asn.obj
 0001:00003eb3       ??0InputRejected@?$InputRejecting@VBufferedTransformation@CryptoPP@@@CryptoPP@@QAE@XZ 42904eb3 f i asn.obj
 0001:00003f00       ?CopyRangeTo2@RandomNumberStore@CryptoPP@@UBEIAAVBufferedTransformation@2@AA_K_KABV?$basic_string@DU?$char_traits@D@std@@V?$allocator@D@2@@std@@_N@Z 42904f00 f i asn.obj
 0001:00003f42       ??0NotImplemented@CryptoPP@@QAE@ABV01@@Z 42904f42 f i asn.obj
 0001:00003f5a       ??4Exception@CryptoPP@@QAEAAV01@ABV01@@Z 42904f5a f i asn.obj
 0001:00003f85       ??0UnknownOID@CryptoPP@@QAE@XZ 42904f85 f i asn.obj
 0001:00003fd2       ??0UnknownOID@CryptoPP@@QAE@PBD@Z 42904fd2 f i asn.obj
 0001:0000401f       ??0UnknownOID@CryptoPP@@QAE@ABV01@@Z 4290501f f i asn.obj
 0001:00004037       ?Clone@Clonable@CryptoPP@@UBEPAV12@XZ 42905037 f i asn.obj
 0001:00004079       ?AlgorithmName@Algorithm@CryptoPP@@UBE?AV?$basic_string@DU?$char_traits@D@std@@V?$allocator@D@2@@std@@XZ 42905079 f i asn.obj
 0001:00004095       ??0BlockingInputOnly@BufferedTransformation@CryptoPP@@QAE@ABV?$basic_string@DU?$char_traits@D@std@@V?$allocator@D@2@@std@@@Z 42905095 f i asn.obj
 0001:000040e8       ??_GBlockingInputOnly@BufferedTransformation@CryptoPP@@UAEPAXI@Z 429050e8 f i asn.obj
 0001:000040e8       ??_GInputRejected@?$InputRejecting@VBufferedTransformation@CryptoPP@@@CryptoPP@@UAEPAXI@Z 429050e8 f i asn.obj
 0001:000040e8       ??_GInputRejected@?$InputRejecting@VFilter@CryptoPP@@@CryptoPP@@UAEPAXI@Z 429050e8 f i asn.obj
 0001:000040e8       ??_EOpenErr@FileSink@CryptoPP@@UAEPAXI@Z 429050e8 f i files.obj
 0001:000040e8       ??_EDL_BadElement@CryptoPP@@UAEPAXI@Z 429050e8 f i dh.obj
 0001:000040e8       ??_EInputRejected@?$InputRejecting@VBufferedTransformation@CryptoPP@@@CryptoPP@@UAEPAXI@Z 429050e8 f i asn.obj
 0001:000040e8       ??_GInvalidChannelName@BufferedTransformation@CryptoPP@@UAEPAXI@Z 429050e8 f i filters.obj
 0001:000040e8       ??_ENoChannelSupport@BufferedTransformation@CryptoPP@@UAEPAXI@Z 429050e8 f i cryptlib.obj
 0001:000040e8       ??_EInvalidChannelName@BufferedTransformation@CryptoPP@@UAEPAXI@Z 429050e8 f i filters.obj
 0001:000040e8       ??_EInputRejected@?$InputRejecting@VFilter@CryptoPP@@@CryptoPP@@UAEPAXI@Z 429050e8 f i asn.obj
 0001:000040e8       ??_EOpenErr@FileStore@CryptoPP@@UAEPAXI@Z 429050e8 f i files.obj
 0001:000040e8       ??_GOpenErr@FileStore@CryptoPP@@UAEPAXI@Z 429050e8 f i files.obj
 0001:000040e8       ??_GReadErr@FileStore@CryptoPP@@UAEPAXI@Z 429050e8 f i files.obj
 0001:000040e8       ??_GOpenErr@FileSink@CryptoPP@@UAEPAXI@Z 429050e8 f i files.obj
 0001:000040e8       ??_EReadErr@FileStore@CryptoPP@@UAEPAXI@Z 429050e8 f i files.obj
 0001:000040e8       ??_GWriteErr@FileSink@CryptoPP@@UAEPAXI@Z 429050e8 f i files.obj
 0001:000040e8       ??_GDL_BadElement@CryptoPP@@UAEPAXI@Z 429050e8 f i dh.obj
 0001:000040e8       ??_GNoChannelSupport@BufferedTransformation@CryptoPP@@UAEPAXI@Z 429050e8 f i cryptlib.obj
 0001:000040e8       ??_EBlockingInputOnly@BufferedTransformation@CryptoPP@@UAEPAXI@Z 429050e8 f i asn.obj
 0001:000040e8       ??_EWriteErr@FileSink@CryptoPP@@UAEPAXI@Z 429050e8 f i files.obj
 0001:00004104       ?Detach@BufferedTransformation@CryptoPP@@UAEXPAV12@@Z 42905104 f i asn.obj
 0001:00004146       ?ThrowIfInvalid@CryptoMaterial@CryptoPP@@UBEXAAVRandomNumberGenerator@2@I@Z 42905146 f i asn.obj
 0001:000041a4       ??0InvalidDataFormat@CryptoPP@@QAE@ABV01@@Z 429051a4 f i asn.obj
 0001:000041bc       ??0InvalidMaterial@CryptoMaterial@CryptoPP@@QAE@ABV012@@Z 429051bc f i asn.obj
 0001:000041d4       ?SavePrecomputation@CryptoMaterial@CryptoPP@@UBEXAAVBufferedTransformation@2@@Z 429051d4 f i asn.obj
 0001:000041d4       ?LoadPrecomputation@CryptoMaterial@CryptoPP@@UAEXAAVBufferedTransformation@2@@Z 429051d4 f i asn.obj
 0001:000041d4       ?Precompute@CryptoMaterial@CryptoPP@@UAEXI@Z 429051d4 f i asn.obj
 0001:00004216       ?ChannelFlush@?$Unflushable@VFilter@CryptoPP@@@CryptoPP@@UAE_NABV?$basic_string@DU?$char_traits@D@std@@V?$allocator@D@2@@std@@_NH1@Z 42905216 f i asn.obj
 0001:000042a9       ??0CannotFlush@CryptoPP@@QAE@ABV01@@Z 429052a9 f i asn.obj
 0001:000042c1       ?IsolatedInitialize@?$StringSinkTemplate@V?$basic_string@DU?$char_traits@D@std@@V?$allocator@D@2@@std@@@CryptoPP@@UAEXABVNameValuePairs@2@@Z 429052c1 f i asn.obj
 0001:0000432c       ?GenerateRandom@GeneratableCryptoMaterial@CryptoPP@@UAEXAAVRandomNumberGenerator@2@ABVNameValuePairs@2@@Z 4290532c f i asn.obj
 0001:0000436e       ?append@?$basic_string@DU?$char_traits@D@std@@V?$allocator@D@2@@std@@QAEAAV12@PBD0@Z 4290536e f i asn.obj
 0001:000043a4       ??0InputRejected@?$InputRejecting@VFilter@CryptoPP@@@CryptoPP@@QAE@XZ 429053a4 f i asn.obj
 0001:000043f1       ?_Xlen@?$vector@IV?$allocator@I@std@@@std@@IBEXXZ 429053f1 f i asn.obj
 0001:00004431       ??0logic_error@std@@QAE@ABV01@@Z 42905431 f i asn.obj
 0001:00004474       ??0length_error@std@@QAE@ABV01@@Z 42905474 f i asn.obj
 0001:0000448c       ??0BERDecodeErr@CryptoPP@@QAE@XZ 4290548c f i asn.obj
 0001:000044d9       ??$RoundUpToMultipleOf@II@CryptoPP@@YAIABI0@Z 429054d9 f i asn.obj
 0001:00004547       ??0?$AlgorithmParametersTemplate@H@CryptoPP@@QAE@PBDABH_N@Z 42905547 f i asn.obj
 0001:0000456c       ??0?$AlgorithmParametersTemplate@PAVRandomNumberGenerator@CryptoPP@@@CryptoPP@@QAE@PBDABQAVRandomNumberGenerator@1@_N@Z 4290556c f i asn.obj
 0001:00004591       ?AssignValue@?$AlgorithmParametersTemplate@PAVRandomNumberGenerator@CryptoPP@@@CryptoPP@@UBEXPBDABVtype_info@@PAX@Z 42905591 f i asn.obj
 0001:000045ea       ?Put2@?$InputRejecting@VBufferedTransformation@CryptoPP@@@CryptoPP@@UAEIPBEIH_N@Z 429055ea f i asn.obj
 0001:000045ea       ?ChannelMessageSeriesEnd@?$InputRejecting@VBufferedTransformation@CryptoPP@@@CryptoPP@@UAE_NABV?$basic_string@DU?$char_traits@D@std@@V?$allocator@D@2@@std@@H_N@Z 429055ea f i asn.obj
 0001:000045ea       ?IsolatedMessageSeriesEnd@?$InputRejecting@VBufferedTransformation@CryptoPP@@@CryptoPP@@UAE_N_N@Z 429055ea f i asn.obj
 0001:000045ea       ?ChannelPut2@?$InputRejecting@VBufferedTransformation@CryptoPP@@@CryptoPP@@UAEIABV?$basic_string@DU?$char_traits@D@std@@V?$allocator@D@2@@std@@PBEIH_N@Z 429055ea f i asn.obj
 0001:00004607       ??0InputRejected@?$InputRejecting@VBufferedTransformation@CryptoPP@@@CryptoPP@@QAE@ABU012@@Z 42905607 f i asn.obj
 0001:0000461f       ?Put2@FilterWithInputQueue@CryptoPP@@UAEIPBEIH_N@Z 4290561f f i asn.obj
 0001:000046ab       ??0BlockingInputOnly@BufferedTransformation@CryptoPP@@QAE@ABU012@@Z 429056ab f i asn.obj
 0001:000046c3       ?BERDecodeError@CryptoPP@@YAXXZ 429056c3 f i asn.obj
 0001:000046e0       ?BERLengthDecode@CryptoPP@@YA_NAAVBufferedTransformation@1@AA_KAA_N@Z 429056e0 f   asn.obj
 0001:00004788       ?BERLengthDecode@CryptoPP@@YA_NAAVBufferedTransformation@1@AAI@Z 42905788 f   asn.obj
 0001:000047c4       ?BERDecodeNull@CryptoPP@@YAXAAVBufferedTransformation@1@@Z 429057c4 f   asn.obj
 0001:000047ff       ?BERDecodeOctetString@CryptoPP@@YAIAAVBufferedTransformation@1@0@Z 429057ff f   asn.obj
 0001:0000484b       ?EncodeValue@OID@CryptoPP@@CAXAAVBufferedTransformation@2@I@Z 4290584b f   asn.obj
 0001:000048c9       ?DecodeValue@OID@CryptoPP@@CAIAAVBufferedTransformation@2@AAI@Z 429058c9 f   asn.obj
 0001:00004915       ?DEREncode@OID@CryptoPP@@QBEXAAVBufferedTransformation@2@@Z 42905915 f   asn.obj
 0001:000049f6       ?Init@BERGeneralDecoder@CryptoPP@@AAEXE@Z 429059f6 f   asn.obj
 0001:00004a45       ?PeekByte@BERGeneralDecoder@CryptoPP@@QBEEXZ 42905a45 f   asn.obj
 0001:00004a60       ?CheckByte@BERGeneralDecoder@CryptoPP@@QAEXE@Z 42905a60 f   asn.obj
 0001:00004a82       ?MessageEnd@BERGeneralDecoder@CryptoPP@@QAEXXZ 42905a82 f   asn.obj
 0001:00004ab9       ?ReduceLength@BERGeneralDecoder@CryptoPP@@AAE_K_K@Z 42905ab9 f   asn.obj
 0001:00004aef       ?DEREncode@X509PublicKey@CryptoPP@@UBEXAAVBufferedTransformation@2@@Z 42905aef f   asn.obj
 0001:00004bfa       ?DEREncode@PKCS8PrivateKey@CryptoPP@@UBEXAAVBufferedTransformation@2@@Z 42905bfa f   asn.obj
 0001:00004d06       ??0?$SecBlock@EV?$AllocatorWithCleanup@E$0A@@CryptoPP@@@CryptoPP@@QAE@I@Z 42905d06 f i asn.obj
 0001:00004d21       ?Put2@?$StringSinkTemplate@V?$basic_string@DU?$char_traits@D@std@@V?$allocator@D@2@@std@@@CryptoPP@@UAEIPBEIH_N@Z 42905d21 f i asn.obj
 0001:00004d5f       ??0InputRejected@?$InputRejecting@VFilter@CryptoPP@@@CryptoPP@@QAE@ABU012@@Z 42905d5f f i asn.obj
 0001:00004d77       ?ChannelMessageSeriesEnd@?$InputRejecting@VFilter@CryptoPP@@@CryptoPP@@UAE_NABV?$basic_string@DU?$char_traits@D@std@@V?$allocator@D@2@@std@@H_N@Z 42905d77 f i asn.obj
 0001:00004d77       ?Put2@?$InputRejecting@VFilter@CryptoPP@@@CryptoPP@@UAEIPBEIH_N@Z 42905d77 f i asn.obj
 0001:00004d77       ?ChannelPut2@?$InputRejecting@VFilter@CryptoPP@@@CryptoPP@@UAEIABV?$basic_string@DU?$char_traits@D@std@@V?$allocator@D@2@@std@@PBEIH_N@Z 42905d77 f i asn.obj
 0001:00004d77       ?IsolatedMessageSeriesEnd@?$InputRejecting@VFilter@CryptoPP@@@CryptoPP@@UAE_N_N@Z 42905d77 f i asn.obj
 0001:00004d94       ?_Buy@?$vector@IV?$allocator@I@std@@@std@@IAE_NI@Z 42905d94 f i asn.obj
 0001:00004ddb       ?_Insert_n@?$vector@IV?$allocator@I@std@@@std@@IAEXViterator@12@IABI@Z 42905ddb f i asn.obj
 0001:00004f55       ??$BERDecodeUnsigned@I@CryptoPP@@YAXAAVBufferedTransformation@0@AAIEII@Z 42905f55 f i asn.obj
 0001:0000501a       ??$?RPAVRandomNumberGenerator@CryptoPP@@@AlgorithmParameters@CryptoPP@@QAEAAV01@PBDABQAVRandomNumberGenerator@1@_N@Z 4290601a f i asn.obj
 0001:00005088       ??$?RH@AlgorithmParameters@CryptoPP@@QAEAAV01@PBDABH_N@Z 42906088 f i asn.obj
 0001:000050f6       ?MoveInto@?$AlgorithmParametersTemplate@PAVRandomNumberGenerator@CryptoPP@@@CryptoPP@@UBEXPAX@Z 429060f6 f i asn.obj
 0001:00005137       ??0FilterPutSpaceHelper@CryptoPP@@QAE@XZ 42906137 f i asn.obj
 0001:00005145       ??0FilterPutSpaceHelper@CryptoPP@@QAE@ABU01@@Z 42906145 f i asn.obj
 0001:00005157       ??0SignerFilter@CryptoPP@@QAE@AAVRandomNumberGenerator@1@ABVPK_Signer@1@PAVBufferedTransformation@1@_N@Z 42906157 f i asn.obj
 0001:000051c8       ??_ESignerFilter@CryptoPP@@W3AEPAXI@Z 429061c8 f i asn.obj
 0001:000051d0       ?BERDecodeAlgorithmParameters@PKCS8PrivateKey@CryptoPP@@UAE_NAAVBufferedTransformation@2@@Z 429061d0 f i asn.obj
 0001:000051d0       ?BERDecodeAlgorithmParameters@X509PublicKey@CryptoPP@@UAE_NAAVBufferedTransformation@2@@Z 429061d0 f i asn.obj
 0001:000051df       ?BERDecodeTextString@CryptoPP@@YAIAAVBufferedTransformation@1@AAV?$basic_string@DU?$char_traits@D@std@@V?$allocator@D@2@@std@@E@Z 429061df f   asn.obj
 0001:0000526a       ??0BERGeneralDecoder@CryptoPP@@QAE@AAV01@E@Z 4290626a f   asn.obj
 0001:0000526a       ??0BERGeneralDecoder@CryptoPP@@QAE@AAVBufferedTransformation@1@E@Z 4290626a f   asn.obj
 0001:0000529b       ??1BERGeneralDecoder@CryptoPP@@UAE@XZ 4290629b f   asn.obj
 0001:000052dd       ?TransferTo2@BERGeneralDecoder@CryptoPP@@UAEIAAVBufferedTransformation@2@AA_KABV?$basic_string@DU?$char_traits@D@std@@V?$allocator@D@2@@std@@_N@Z 429062dd f   asn.obj
 0001:00005331       ?resize@?$SecBlock@EV?$AllocatorWithCleanup@E$0A@@CryptoPP@@@CryptoPP@@QAEXI@Z 42906331 f i asn.obj
 0001:00005358       ??0?$vector@IV?$allocator@I@std@@@std@@QAE@ABV01@@Z 42906358 f i asn.obj
 0001:000053c6       ??4?$vector@IV?$allocator@I@std@@@std@@QAEAAV01@ABV01@@Z 429063c6 f i asn.obj
 0001:000054a4       ?_Construct_n@?$vector@IV?$allocator@I@std@@@std@@QAEXIABI@Z 429064a4 f i asn.obj
 0001:000054cd       ?resize@?$vector@IV?$allocator@I@std@@@std@@QAEXII@Z 429064cd f i asn.obj
 0001:00005522       ?insert@?$vector@IV?$allocator@I@std@@@std@@QAE?AViterator@12@V312@ABI@Z 42906522 f i asn.obj
 0001:0000555f       ??$MakeParameters@PAVRandomNumberGenerator@CryptoPP@@@CryptoPP@@YA?AVAlgorithmParameters@0@PBDABQAVRandomNumberGenerator@0@_N@Z 4290655f f i asn.obj
 0001:000055b7       ??0?$AlgorithmParametersTemplate@VConstByteArrayParameter@CryptoPP@@@CryptoPP@@QAE@PBDABVConstByteArrayParameter@1@_N@Z 429065b7 f i asn.obj
 0001:000055f9       ?HelpCreatePutSpace@FilterPutSpaceHelper@CryptoPP@@QAEPAEAAVBufferedTransformation@2@ABV?$basic_string@DU?$char_traits@D@std@@V?$allocator@D@2@@std@@IIAAI@Z 429065f9 f i asn.obj
 0001:00005643       ?HelpCreatePutSpace@FilterPutSpaceHelper@CryptoPP@@QAEPAEAAVBufferedTransformation@2@ABV?$basic_string@DU?$char_traits@D@std@@V?$allocator@D@2@@std@@I@Z 42906643 f i asn.obj
 0001:0000565f       ?HelpCreatePutSpace@FilterPutSpaceHelper@CryptoPP@@QAEPAEAAVBufferedTransformation@2@ABV?$basic_string@DU?$char_traits@D@std@@V?$allocator@D@2@@std@@II@Z 4290665f f i asn.obj
 0001:0000567b       ??0RandomNumberSource@CryptoPP@@QAE@AAVRandomNumberGenerator@1@H_NPAVBufferedTransformation@1@@Z 4290667b f i asn.obj
 0001:00005706       ??_E?$SourceTemplate@VRandomNumberStore@CryptoPP@@@CryptoPP@@W3AEPAXI@Z 42906706 f i asn.obj
 0001:00005706       ??_ERandomNumberSource@CryptoPP@@W3AEPAXI@Z 42906706 f i asn.obj
 0001:0000570e       ??0OID@CryptoPP@@QAE@XZ    4290670e f i asn.obj
 0001:0000571c       ??0OID@CryptoPP@@QAE@ABV01@@Z 4290671c f i asn.obj
 0001:0000572e       ??4OID@CryptoPP@@QAEAAV01@ABV01@@Z 4290672e f i asn.obj
 0001:00005740       ??_EBERGeneralDecoder@CryptoPP@@UAEPAXI@Z 42906740 f i asn.obj
 0001:0000578b       ??0BERSequenceDecoder@CryptoPP@@QAE@AAV01@E@Z 4290678b f i asn.obj
 0001:0000578b       ??0BERSequenceDecoder@CryptoPP@@QAE@AAVBufferedTransformation@1@E@Z 4290678b f i asn.obj
 0001:000057ae       ??1BERSetDecoder@CryptoPP@@UAE@XZ 429067ae f i asn.obj
 0001:000057ae       ??1BERSequenceDecoder@CryptoPP@@UAE@XZ 429067ae f i asn.obj
 0001:000057b3       ??_OBERSequenceDecoder@CryptoPP@@QAEXAAV01@@Z 429067b3 f i asn.obj
 0001:000057c1       ??_EBERSequenceDecoder@CryptoPP@@UAEPAXI@Z 429067c1 f i asn.obj
 0001:000057c1       ??_EBERSetDecoder@CryptoPP@@UAEPAXI@Z 429067c1 f i asn.obj
 0001:0000580c       ??0BERSetDecoder@CryptoPP@@QAE@AAVBufferedTransformation@1@E@Z 4290680c f i asn.obj
 0001:0000580c       ??0BERSetDecoder@CryptoPP@@QAE@AAV01@E@Z 4290680c f i asn.obj
 0001:0000582f       ??_OBERSetDecoder@CryptoPP@@QAEXAAV01@@Z 4290682f f i asn.obj
 0001:0000583d       ?BERDecodeOctetString@CryptoPP@@YAIAAVBufferedTransformation@1@AAV?$SecBlock@EV?$AllocatorWithCleanup@E$0A@@CryptoPP@@@1@@Z 4290683d f   asn.obj
 0001:00005896       ?BERDecodeBitString@CryptoPP@@YAIAAVBufferedTransformation@1@AAV?$SecBlock@EV?$AllocatorWithCleanup@E$0A@@CryptoPP@@@1@AAI@Z 42906896 f   asn.obj
 0001:00005909       ?DERReencode@CryptoPP@@YAXAAVBufferedTransformation@1@0@Z 42906909 f   asn.obj
 0001:000059d3       ?BERDecodeOptionalAttributes@PKCS8PrivateKey@CryptoPP@@UAEXAAVBufferedTransformation@2@@Z 429069d3 f   asn.obj
 0001:000059e5       ?Assign@?$SecBlock@EV?$AllocatorWithCleanup@E$0A@@CryptoPP@@@CryptoPP@@QAEXPBEI@Z 429069e5 f i asn.obj
 0001:00005a0b       ?push_back@?$vector@IV?$allocator@I@std@@@std@@QAEXABI@Z 42906a0b f i asn.obj
 0001:00005a4b       ??$?RVConstByteArrayParameter@CryptoPP@@@AlgorithmParameters@CryptoPP@@QAEAAV01@PBDABVConstByteArrayParameter@1@_N@Z 42906a4b f i asn.obj
 0001:00005ac1       ??_EBERSetDecoder@CryptoPP@@W3AEPAXI@Z 42906ac1 f i asn.obj
 0001:00005ac1       ??_EBERSequenceDecoder@CryptoPP@@W3AEPAXI@Z 42906ac1 f i asn.obj
 0001:00005ac9       ??_EBERGeneralDecoder@CryptoPP@@W3AEPAXI@Z 42906ac9 f i asn.obj
 0001:00005ad1       ?Assign@ConstByteArrayParameter@CryptoPP@@QAEXPBEI_N@Z 42906ad1 f i asn.obj
 0001:00005b03       ??4FilterPutSpaceHelper@CryptoPP@@QAEAAU01@ABU01@@Z 42906b03 f i asn.obj
 0001:00005b15       ??0OID@CryptoPP@@QAE@I@Z   42906b15 f i asn.obj
 0001:00005b2a       ??YOID@CryptoPP@@QAEAAV01@I@Z 42906b2a f i asn.obj
 0001:00005b3d       ?BERDecode@OID@CryptoPP@@QAEXAAVBufferedTransformation@2@@Z 42906b3d f   asn.obj
 0001:00005be8       ??$MakeParameters@VConstByteArrayParameter@CryptoPP@@@CryptoPP@@YA?AVAlgorithmParameters@0@PBDABVConstByteArrayParameter@0@_N@Z 42906be8 f i asn.obj
 0001:00005c40       ??$?0V?$basic_string@DU?$char_traits@D@std@@V?$allocator@D@2@@std@@@ConstByteArrayParameter@CryptoPP@@QAE@ABV?$basic_string@DU?$char_traits@D@std@@V?$allocator@D@2@@std@@_N@Z 42906c40 f i asn.obj
 0001:00005c90       ??0ConstByteArrayParameter@CryptoPP@@QAE@PBD_N@Z 42906c90 f i asn.obj
 0001:00005ce1       ??0ConstByteArrayParameter@CryptoPP@@QAE@PBEI_N@Z 42906ce1 f i asn.obj
 0001:00005d21       ??0StringStore@CryptoPP@@QAE@PBD@Z 42906d21 f i asn.obj
 0001:00005dac       ??_EWalker@ByteQueue@CryptoPP@@W3AEPAXI@Z 42906dac f i asn.obj
 0001:00005dac       ??_EStringStore@CryptoPP@@W3AEPAXI@Z 42906dac f i asn.obj
 0001:00005db4       ??0OID@CryptoPP@@QAE@AAVBufferedTransformation@1@@Z 42906db4 f i asn.obj
 0001:00005dec       ?BERDecodeAndCheck@OID@CryptoPP@@QBEXAAVBufferedTransformation@2@@Z 42906dec f   asn.obj
 0001:00005e37       ?BERDecode@X509PublicKey@CryptoPP@@UAEXAAVBufferedTransformation@2@@Z 42906e37 f   asn.obj
 0001:00005f50       ?BERDecode@PKCS8PrivateKey@CryptoPP@@UAEXAAVBufferedTransformation@2@@Z 42906f50 f   asn.obj
 0001:00006088       ??0?$SourceTemplate@VStringStore@CryptoPP@@@CryptoPP@@QAE@PAVBufferedTransformation@1@@Z 42907088 f i asn.obj
 0001:000060cd       ??_EStringSource@CryptoPP@@W3AEPAXI@Z 429070cd f i asn.obj
 0001:000060cd       ??_E?$SourceTemplate@VStringStore@CryptoPP@@@CryptoPP@@W3AEPAXI@Z 429070cd f i asn.obj
 0001:000060d5       ??0StringSource@CryptoPP@@QAE@PAVBufferedTransformation@1@@Z 429070d5 f i asn.obj
 0001:000060f4       ??0StringSource@CryptoPP@@QAE@PBD_NPAVBufferedTransformation@1@@Z 429070f4 f i asn.obj
 0001:00006183       ??0StringSource@CryptoPP@@QAE@PBEI_NPAVBufferedTransformation@1@@Z 42907183 f i asn.obj
 0001:00006215       ??0StringSource@CryptoPP@@QAE@ABV?$basic_string@DU?$char_traits@D@std@@V?$allocator@D@2@@std@@_NPAVBufferedTransformation@1@@Z 42907215 f i asn.obj
 0001:000062a4       ??_FStringSource@CryptoPP@@QAEXXZ 429072a4 f i asn.obj
 0001:000062ac       ?Restart@AuthenticatedSymmetricCipherBase@CryptoPP@@UAEXXZ 429072ac f i authenc.obj
 0001:000062b8       ?GetSymmetricCipher@AuthenticatedSymmetricCipherBase@CryptoPP@@IBEABVSymmetricCipher@2@XZ 429072b8 f i authenc.obj
 0001:000062bd       ?SetKey@AuthenticatedSymmetricCipherBase@CryptoPP@@UAEXPBEIABVNameValuePairs@2@@Z 429072bd f   authenc.obj
 0001:00006302       ?assign@?$char_traits@D@std@@SAPADPADID@Z 42907302 f i authenc.obj
 0001:00006319       ??0AuthenticatedSymmetricCipher@CryptoPP@@QAE@XZ 42907319 f i authenc.obj
 0001:0000632d       ??4?$TF_Base@VRandomizedTrapdoorFunction@CryptoPP@@VPK_EncryptionMessageEncodingMethod@2@@CryptoPP@@QAEAAV01@ABV01@@Z 4290732d f i dh.obj
 0001:0000632d       ??4TrapdoorFunctionInverse@CryptoPP@@QAEAAV01@ABV01@@Z 4290732d f i dh.obj
 0001:0000632d       ??0?$AbstractGroup@UECPPoint@CryptoPP@@@CryptoPP@@QAE@ABV01@@Z 4290732d f i dll.obj
 0001:0000632d       ??0AuthenticatedSymmetricCipher@CryptoPP@@QAE@ABV01@@Z 4290732d f i authenc.obj
 0001:0000632d       ??4?$AbstractRing@VPolynomialMod2@CryptoPP@@@CryptoPP@@QAEAAV01@ABV01@@Z 4290732d f i dll.obj
 0001:0000632d       ??4?$DL_GroupPrecomputation@UECPPoint@CryptoPP@@@CryptoPP@@QAEAAV01@ABV01@@Z 4290732d f i dll.obj
 0001:0000632d       ??4?$EMSA2HashId@VSHA224@CryptoPP@@@CryptoPP@@QAEAAV01@ABV01@@Z 4290732d f i dll.obj
 0001:0000632d       ??0PK_SignatureScheme@CryptoPP@@QAE@ABV01@@Z 4290732d f i dh.obj
 0001:0000632d       ??0RandomNumberGenerator@CryptoPP@@QAE@ABV01@@Z 4290732d f i ccm.obj
 0001:0000632d       ??4?$DL_Key@UEC2NPoint@CryptoPP@@@CryptoPP@@QAEAAV01@ABV01@@Z 4290732d f i dll.obj
 0001:0000632d       ??4SymmetricCipher@CryptoPP@@QAEAAV01@ABV01@@Z 4290732d f i ccm.obj
 0001:0000632d       ??4AsymmetricAlgorithm@CryptoPP@@QAEAAV01@ABV01@@Z 4290732d f i dh.obj
 0001:0000632d       ??4TF_EncryptorBase@CryptoPP@@QAEAAV01@ABV01@@Z 4290732d f i dh.obj
 0001:0000632d       ??0PK_Encryptor@CryptoPP@@QAE@ABV01@@Z 4290732d f i dh.obj
 0001:0000632d       ??4TrapdoorFunctionBounds@CryptoPP@@QAEAAV01@ABV01@@Z 4290732d f i dh.obj
 0001:0000632d       ??4AuthenticatedSymmetricCipher@CryptoPP@@QAEAAV01@ABV01@@Z 4290732d f i authenc.obj
 0001:0000632d       ??0SimpleKeyingInterface@CryptoPP@@QAE@ABV01@@Z 4290732d f i authenc.obj
 0001:0000632d       ??0?$AbstractPolicyHolder@VCFB_CipherAbstractPolicy@CryptoPP@@VSymmetricCipher@2@@CryptoPP@@QAE@ABV01@@Z 4290732d f i ccm.obj
 0001:0000632d       ??4?$DL_FixedBasePrecomputation@VInteger@CryptoPP@@@CryptoPP@@QAEAAV01@ABV01@@Z 4290732d f i dh.obj
 0001:0000632d       ??4?$DL_Key@UECPPoint@CryptoPP@@@CryptoPP@@QAEAAV01@ABV01@@Z 4290732d f i dll.obj
 0001:0000632d       ??4GeneratableCryptoMaterial@CryptoPP@@QAEAAV01@ABV01@@Z 4290732d f i asn.obj
 0001:0000632d       ??0PK_RecoverableSignatureMessageEncodingMethod@CryptoPP@@QAE@ABV01@@Z 4290732d f i dh.obj
 0001:0000632d       ??0Clonable@CryptoPP@@QAE@ABV01@@Z 4290732d f i asn.obj
 0001:0000632d       ??4?$AllocatorWithCleanup@I$0A@@CryptoPP@@QAEAAV01@ABV01@@Z 4290732d f i dll.obj
 0001:0000632d       ??0?$DL_ElgamalLikeSignatureAlgorithm@UECPPoint@CryptoPP@@@CryptoPP@@QAE@ABV01@@Z 4290732d f i dll.obj
 0001:0000632d       ??4DSA@CryptoPP@@QAEAAU01@ABU01@@Z 4290732d f i dh.obj
 0001:0000632d       ??0PK_CryptoSystem@CryptoPP@@QAE@ABV01@@Z 4290732d f i dh.obj
 0001:0000632d       ??4?$DL_PublicKey@UECPPoint@CryptoPP@@@CryptoPP@@QAEAAV01@ABV01@@Z 4290732d f i dll.obj
 0001:0000632d       ??4?$AllocatorBase@E@CryptoPP@@QAEAAV01@ABV01@@Z 4290732d f i dll.obj
 0001:0000632d       ??4?$AbstractGroup@UECPPoint@CryptoPP@@@CryptoPP@@QAEAAV01@ABV01@@Z 4290732d f i dll.obj
 0001:0000632d       ??0TrapdoorFunctionBounds@CryptoPP@@QAE@ABV01@@Z 4290732d f i dh.obj
 0001:0000632d       ??4?$AllocatorBase@_K@CryptoPP@@QAEAAV01@ABV01@@Z 4290732d f i dll.obj
 0001:0000632d       ??0TrapdoorFunctionInverse@CryptoPP@@QAE@ABV01@@Z 4290732d f i dh.obj
 0001:0000632d       ??4?$DL_PublicKey@VInteger@CryptoPP@@@CryptoPP@@QAEAAV01@ABV01@@Z 4290732d f i dh.obj
 0001:0000632d       ??4KeyAgreementAlgorithm@CryptoPP@@QAEAAV01@ABV01@@Z 4290732d f i dh.obj
 0001:0000632d       ??0ASN1Object@CryptoPP@@QAE@ABV01@@Z 4290732d f i asn.obj
 0001:0000632d       ??4?$DL_PublicKey@UEC2NPoint@CryptoPP@@@CryptoPP@@QAEAAV01@ABV01@@Z 4290732d f i dll.obj
 0001:0000632d       ??4SimpleKeyingInterface@CryptoPP@@QAEAAV01@ABV01@@Z 4290732d f i authenc.obj
 0001:0000632d       ??0StreamTransformation@CryptoPP@@QAE@ABV01@@Z 4290732d f i authenc.obj
 0001:0000632d       ??0?$TF_Base@VTrapdoorFunction@CryptoPP@@VPK_SignatureMessageEncodingMethod@2@@CryptoPP@@QAE@ABV01@@Z 4290732d f i dh.obj
 0001:0000632d       ??4ASN1Object@CryptoPP@@QAEAAV01@ABV01@@Z 4290732d f i asn.obj
 0001:0000632d       ??0SymmetricCipher@CryptoPP@@QAE@ABV01@@Z 4290732d f i ccm.obj
 0001:0000632d       ??0?$DL_PublicKey@VInteger@CryptoPP@@@CryptoPP@@QAE@ABV01@@Z 4290732d f i dh.obj
 0001:0000632d       ??4?$PKCS_DigestDecoration@VSHA224@CryptoPP@@@CryptoPP@@QAEAAV01@ABV01@@Z 4290732d f i dll.obj
 0001:0000632d       ??4?$ASN1CryptoMaterial@VPublicKey@CryptoPP@@@CryptoPP@@QAEAAV01@ABV01@@Z 4290732d f i asn.obj
 0001:0000632d       ??0AdditiveCipherAbstractPolicy@CryptoPP@@QAE@ABU01@@Z 4290732d f i ccm.obj
 0001:0000632d       ??4?$TF_SignatureSchemeBase@VPK_Verifier@CryptoPP@@V?$TF_Base@VTrapdoorFunction@CryptoPP@@VPK_SignatureMessageEncodingMethod@2@@2@@CryptoPP@@QAEAAV01@ABV01@@Z 4290732d f i dh.obj
 0001:0000632d       ??0RandomizedTrapdoorFunctionInverse@CryptoPP@@QAE@ABV01@@Z 4290732d f i dh.obj
 0001:0000632d       ??4PK_SignatureScheme@CryptoPP@@QAEAAV01@ABV01@@Z 4290732d f i dh.obj
 0001:0000632d       ??4?$TF_CryptoSystemBase@VPK_Decryptor@CryptoPP@@V?$TF_Base@VTrapdoorFunctionInverse@CryptoPP@@VPK_EncryptionMessageEncodingMethod@2@@2@@CryptoPP@@QAEAAV01@ABV01@@Z 4290732d f i dh.obj
 0001:0000632d       ??0PK_MessageAccumulator@CryptoPP@@QAE@ABV01@@Z 4290732d f i dh.obj
 0001:0000632d       ??0CryptoMaterial@CryptoPP@@QAE@ABV01@@Z 4290732d f i asn.obj
 0001:0000632d       ??0?$DL_PublicKey@UECPPoint@CryptoPP@@@CryptoPP@@QAE@ABV01@@Z 4290732d f i dll.obj
 0001:0000632d       ??4?$AbstractPolicyHolder@VCFB_CipherAbstractPolicy@CryptoPP@@VSymmetricCipher@2@@CryptoPP@@QAEAAV01@ABV01@@Z 4290732d f i ccm.obj
 0001:0000632d       ??4?$AllocatorWithCleanup@_K$0A@@CryptoPP@@QAEAAV01@ABV01@@Z 4290732d f i dll.obj
 0001:0000632d       ??0?$DL_ElgamalLikeSignatureAlgorithm@VInteger@CryptoPP@@@CryptoPP@@QAE@ABV01@@Z 4290732d f i dh.obj
 0001:0000632d       ??4RSA@CryptoPP@@QAEAAU01@ABU01@@Z 4290732d f i dll.obj
 0001:0000632d       ??4?$TF_Base@VRandomizedTrapdoorFunctionInverse@CryptoPP@@VPK_SignatureMessageEncodingMethod@2@@CryptoPP@@QAEAAV01@ABV01@@Z 4290732d f i dh.obj
 0001:0000632d       ??4AuthenticatedKeyAgreementDomain@CryptoPP@@QAEAAV01@ABV01@@Z 4290732d f i dll.obj
 0001:0000632d       ??4?$DL_PrivateKey@UEC2NPoint@CryptoPP@@@CryptoPP@@QAEAAV01@ABV01@@Z 4290732d f i dll.obj
 0001:0000632d       ??4?$DL_Algorithm_GDSA@UEC2NPoint@CryptoPP@@@CryptoPP@@QAEAAV01@ABV01@@Z 4290732d f i dll.obj
 0001:0000632d       ??0PublicKeyAlgorithm@CryptoPP@@QAE@ABV01@@Z 4290732d f i dh.obj
 0001:0000632d       ??4?$DL_ElgamalLikeSignatureAlgorithm@VInteger@CryptoPP@@@CryptoPP@@QAEAAV01@ABV01@@Z 4290732d f i dh.obj
 0001:0000632d       ??4?$DL_Algorithm_GDSA@UECPPoint@CryptoPP@@@CryptoPP@@QAEAAV01@ABV01@@Z 4290732d f i dll.obj
 0001:0000632d       ??0?$PK_FixedLengthCryptoSystemImpl@VPK_Decryptor@CryptoPP@@@CryptoPP@@QAE@ABV01@@Z 4290732d f i dh.obj
 0001:0000632d       ??0?$TF_CryptoSystemBase@VPK_Encryptor@CryptoPP@@V?$TF_Base@VRandomizedTrapdoorFunction@CryptoPP@@VPK_EncryptionMessageEncodingMethod@2@@2@@CryptoPP@@QAE@ABV01@@Z 4290732d f i dh.obj
 0001:0000632d       ??4CFB_CipherAbstractPolicy@CryptoPP@@QAEAAV01@ABV01@@Z 4290732d f i ccm.obj
 0001:0000632d       ??4?$OAEP@VSHA1@CryptoPP@@VP1363_MGF1@2@@CryptoPP@@QAEAAV01@ABV01@@Z 4290732d f i dll.obj
 0001:0000632d       ??4StreamTransformation@CryptoPP@@QAEAAV01@ABV01@@Z 4290732d f i authenc.obj
 0001:0000632d       ??0SimpleKeyAgreementDomain@CryptoPP@@QAE@ABV01@@Z 4290732d f i dh.obj
 0001:0000632d       ??4?$DL_FixedBasePrecomputation@UECPPoint@CryptoPP@@@CryptoPP@@QAEAAV01@ABV01@@Z 4290732d f i dll.obj
 0001:0000632d       ??0?$DL_Key@VInteger@CryptoPP@@@CryptoPP@@QAE@ABV01@@Z 4290732d f i dh.obj
 0001:0000632d       ??4?$TF_Base@VTrapdoorFunctionInverse@CryptoPP@@VPK_EncryptionMessageEncodingMethod@2@@CryptoPP@@QAEAAV01@ABV01@@Z 4290732d f i dh.obj
 0001:0000632d       ??4X509PublicKey@CryptoPP@@QAEAAV01@ABV01@@Z 4290732d f i asn.obj
 0001:0000632d       ??4?$EMSA2HashId@VSHA256@CryptoPP@@@CryptoPP@@QAEAAV01@ABV01@@Z 4290732d f i dll.obj
 0001:0000632d       ??0AuthenticatedKeyAgreementDomain@CryptoPP@@QAE@ABV01@@Z 4290732d f i dll.obj
 0001:0000632d       ??4RandomizedTrapdoorFunction@CryptoPP@@QAEAAV01@ABV01@@Z 4290732d f i dh.obj
 0001:0000632d       ??4RSA_ISO@CryptoPP@@QAEAAU01@ABU01@@Z 4290732d f i dll.obj
 0001:0000632d       ??0PK_Signer@CryptoPP@@QAE@ABV01@@Z 4290732d f i dh.obj
 0001:0000632d       ??0?$DL_SimpleKeyAgreementDomainBase@VInteger@CryptoPP@@@CryptoPP@@QAE@ABV01@@Z 4290732d f i dh.obj
 0001:0000632d       ??0?$TF_CryptoSystemBase@VPK_Decryptor@CryptoPP@@V?$TF_Base@VTrapdoorFunctionInverse@CryptoPP@@VPK_EncryptionMessageEncodingMethod@2@@2@@CryptoPP@@QAE@ABV01@@Z 4290732d f i dh.obj
 0001:0000632d       ??4?$DL_SimpleKeyAgreementDomainBase@VInteger@CryptoPP@@@CryptoPP@@QAEAAV01@ABV01@@Z 4290732d f i dh.obj
 0001:0000632d       ??0MessageAuthenticationCode@CryptoPP@@QAE@ABV01@@Z 4290732d f i authenc.obj
 0001:0000632d       ??4PK_Decryptor@CryptoPP@@QAEAAV01@ABV01@@Z 4290732d f i dh.obj
 0001:0000632d       ??0?$AbstractGroup@VPolynomialMod2@CryptoPP@@@CryptoPP@@QAE@ABV01@@Z 4290732d f i dll.obj
 0001:0000632d       ??4?$AbstractGroup@VPolynomialMod2@CryptoPP@@@CryptoPP@@QAEAAV01@ABV01@@Z 4290732d f i dll.obj
 0001:0000632d       ??4?$AllocatorWithCleanup@G$0A@@CryptoPP@@QAEAAV01@ABV01@@Z 4290732d f i dll.obj
 0001:0000632d       ??0?$DL_PrivateKey@VInteger@CryptoPP@@@CryptoPP@@QAE@ABV01@@Z 4290732d f i dh.obj
 0001:0000632d       ??0?$AbstractPolicyHolder@UAdditiveCipherAbstractPolicy@CryptoPP@@VSymmetricCipher@2@@CryptoPP@@QAE@ABV01@@Z 4290732d f i ccm.obj
 0001:0000632d       ??4PK_Verifier@CryptoPP@@QAEAAV01@ABV01@@Z 4290732d f i dh.obj
 0001:0000632d       ??4PK_MessageAccumulator@CryptoPP@@QAEAAV01@ABV01@@Z 4290732d f i dh.obj
 0001:0000632d       ??4?$AbstractGroup@UEC2NPoint@CryptoPP@@@CryptoPP@@QAEAAV01@ABV01@@Z 4290732d f i dll.obj
 0001:0000632d       ??4?$AllocatorBase@G@CryptoPP@@QAEAAV01@ABV01@@Z 4290732d f i dll.obj
 0001:0000632d       ??4?$TF_Base@VTrapdoorFunction@CryptoPP@@VPK_SignatureMessageEncodingMethod@2@@CryptoPP@@QAEAAV01@ABV01@@Z 4290732d f i dh.obj
 0001:0000632d       ??0TF_EncryptorBase@CryptoPP@@QAE@ABV01@@Z 4290732d f i dh.obj
 0001:0000632d       ??4?$DL_PrivateKey@VInteger@CryptoPP@@@CryptoPP@@QAEAAV01@ABV01@@Z 4290732d f i dh.obj
 0001:0000632d       ??4PK_DeterministicSignatureMessageEncodingMethod@CryptoPP@@QAEAAV01@ABV01@@Z 4290732d f i dh.obj
 0001:0000632d       ??4EMSA2Pad@CryptoPP@@QAEAAV01@ABV01@@Z 4290732d f i dll.obj
 0001:0000632d       ??0TF_VerifierBase@CryptoPP@@QAE@ABV01@@Z 4290732d f i dh.obj
 0001:0000632d       ??4?$DL_SS@UDL_Keys_DSA@CryptoPP@@V?$DL_Algorithm_GDSA@VInteger@CryptoPP@@@2@VDL_SignatureMessageEncodingMethod_DSA@2@VSHA1@2@UDSA@2@@CryptoPP@@QAEAAV01@ABV01@@Z 4290732d f i dh.obj
 0001:0000632d       ??4PK_RecoverableSignatureMessageEncodingMethod@CryptoPP@@QAEAAV01@ABV01@@Z 4290732d f i dh.obj
 0001:0000632d       ??4AdditiveCipherAbstractPolicy@CryptoPP@@QAEAAU01@ABU01@@Z 4290732d f i ccm.obj
 0001:0000632d       ??4RandomNumberGenerator@CryptoPP@@QAEAAV01@ABV01@@Z 4290732d f i ccm.obj
 0001:0000632d       ??4?$DL_PrivateKey@UECPPoint@CryptoPP@@@CryptoPP@@QAEAAV01@ABV01@@Z 4290732d f i dll.obj
 0001:0000632d       ??4TrapdoorFunction@CryptoPP@@QAEAAV01@ABV01@@Z 4290732d f i dh.obj
 0001:0000632d       ??4?$EMSA2HashId@VSHA512@CryptoPP@@@CryptoPP@@QAEAAV01@ABV01@@Z 4290732d f i dll.obj
 0001:0000632d       ??4RandomizedTrapdoorFunctionInverse@CryptoPP@@QAEAAV01@ABV01@@Z 4290732d f i dh.obj
 0001:0000632d       ??0?$DL_PrivateKey@UECPPoint@CryptoPP@@@CryptoPP@@QAE@ABV01@@Z 4290732d f i dll.obj
 0001:0000632d       ??0CFB_CipherAbstractPolicy@CryptoPP@@QAE@ABV01@@Z 4290732d f i ccm.obj
 0001:0000632d       ??4PKCS1v15_SignatureMessageEncodingMethod@CryptoPP@@QAEAAV01@ABV01@@Z 4290732d f i dll.obj
 0001:0000632d       ??4?$PKCS_DigestDecoration@VSHA256@CryptoPP@@@CryptoPP@@QAEAAV01@ABV01@@Z 4290732d f i dll.obj
 0001:0000632d       ??0TF_DecryptorBase@CryptoPP@@QAE@ABV01@@Z 4290732d f i dh.obj
 0001:0000632d       ??4PrivateKey@CryptoPP@@QAEAAV01@ABV01@@Z 4290732d f i asn.obj
 0001:0000632d       ??4?$DL_Key@VInteger@CryptoPP@@@CryptoPP@@QAEAAV01@ABV01@@Z 4290732d f i dh.obj
 0001:0000632d       ??0?$DL_Key@UECPPoint@CryptoPP@@@CryptoPP@@QAE@ABV01@@Z 4290732d f i dll.obj
 0001:0000632d       ??0?$DL_PublicKey@UEC2NPoint@CryptoPP@@@CryptoPP@@QAE@ABV01@@Z 4290732d f i dll.obj
 0001:0000632d       ??4?$PKCS_DigestDecoration@VSHA512@CryptoPP@@@CryptoPP@@QAEAAV01@ABV01@@Z 4290732d f i dll.obj
 0001:0000632d       ??4PSSR_MEM_Base@CryptoPP@@QAEAAV01@ABV01@@Z 4290732d f i dll.obj
 0001:0000632d       ??4Empty@CryptoPP@@QAEAAV01@ABV01@@Z 4290732d f i dll.obj
 0001:0000632d       ??0?$AbstractGroup@UEC2NPoint@CryptoPP@@@CryptoPP@@QAE@ABV01@@Z 4290732d f i dll.obj
 0001:0000632d       ??0KeyAgreementAlgorithm@CryptoPP@@QAE@ABV01@@Z 4290732d f i dh.obj
 0001:0000632d       ??4?$PK_FixedLengthCryptoSystemImpl@VPK_Decryptor@CryptoPP@@@CryptoPP@@QAEAAV01@ABV01@@Z 4290732d f i dh.obj
 0001:0000632d       ??4?$PKCS_DigestDecoration@VSHA384@CryptoPP@@@CryptoPP@@QAEAAV01@ABV01@@Z 4290732d f i dll.obj
 0001:0000632d       ??4PublicKeyAlgorithm@CryptoPP@@QAEAAV01@ABV01@@Z 4290732d f i dh.obj
 0001:0000632d       ??0Algorithm@CryptoPP@@QAE@ABV01@@Z 4290732d f i asn.obj
 0001:0000632d       ??4PK_Signer@CryptoPP@@QAEAAV01@ABV01@@Z 4290732d f i dh.obj
 0001:0000632d       ??4CryptoParameters@CryptoPP@@QAEAAV01@ABV01@@Z 4290732d f i dh.obj
 0001:0000632d       ??0?$TF_SignatureSchemeBase@VPK_Verifier@CryptoPP@@V?$TF_Base@VTrapdoorFunction@CryptoPP@@VPK_SignatureMessageEncodingMethod@2@@2@@CryptoPP@@QAE@ABV01@@Z 4290732d f i dh.obj
 0001:0000632d       ??4?$AllocatorWithCleanup@E$0A@@CryptoPP@@QAEAAV01@ABV01@@Z 4290732d f i dll.obj
 0001:0000632d       ??4?$TF_CryptoSystemBase@VPK_Encryptor@CryptoPP@@V?$TF_Base@VRandomizedTrapdoorFunction@CryptoPP@@VPK_EncryptionMessageEncodingMethod@2@@2@@CryptoPP@@QAEAAV01@ABV01@@Z 4290732d f i dh.obj
 0001:0000632d       ??4?$DL_GroupPrecomputation@UEC2NPoint@CryptoPP@@@CryptoPP@@QAEAAV01@ABV01@@Z 4290732d f i dll.obj
 0001:0000632d       ??4PK_Encryptor@CryptoPP@@QAEAAV01@ABV01@@Z 4290732d f i dh.obj
 0001:0000632d       ??4?$AbstractPolicyHolder@UAdditiveCipherAbstractPolicy@CryptoPP@@VSymmetricCipher@2@@CryptoPP@@QAEAAV01@ABV01@@Z 4290732d f i ccm.obj
 0001:0000632d       ??4PrivateKeyAlgorithm@CryptoPP@@QAEAAV01@ABV01@@Z 4290732d f i dh.obj
 0001:0000632d       ??0?$DL_Key@UEC2NPoint@CryptoPP@@@CryptoPP@@QAE@ABV01@@Z 4290732d f i dll.obj
 0001:0000632d       ??4?$PKCS_DigestDecoration@VSHA1@CryptoPP@@@CryptoPP@@QAEAAV01@ABV01@@Z 4290732d f i dll.obj
 0001:0000632d       ??0?$TF_Base@VTrapdoorFunctionInverse@CryptoPP@@VPK_EncryptionMessageEncodingMethod@2@@CryptoPP@@QAE@ABV01@@Z 4290732d f i dh.obj
 0001:0000632d       ??4?$DL_ElgamalLikeSignatureAlgorithm@UEC2NPoint@CryptoPP@@@CryptoPP@@QAEAAV01@ABV01@@Z 4290732d f i dll.obj
 0001:0000632d       ??4PrimeSelector@CryptoPP@@QAEAAV01@ABV01@@Z 4290732d f i dll.obj
 0001:0000632d       ??0?$PK_FixedLengthCryptoSystemImpl@VPK_Encryptor@CryptoPP@@@CryptoPP@@QAE@ABV01@@Z 4290732d f i dh.obj
 0001:0000632d       ??4MessageAuthenticationCode@CryptoPP@@QAEAAV01@ABV01@@Z 4290732d f i authenc.obj
 0001:0000632d       ??0AsymmetricAlgorithm@CryptoPP@@QAE@ABV01@@Z 4290732d f i dh.obj
 0001:0000632d       ??4?$ASN1CryptoMaterial@VPrivateKey@CryptoPP@@@CryptoPP@@QAEAAV01@ABV01@@Z 4290732d f i asn.obj
 0001:0000632d       ??0TF_SignerBase@CryptoPP@@QAE@ABV01@@Z 4290732d f i dh.obj
 0001:0000632d       ??4?$DL_FixedBasePrecomputation@UEC2NPoint@CryptoPP@@@CryptoPP@@QAEAAV01@ABV01@@Z 4290732d f i dll.obj
 0001:0000632d       ??0HashTransformation@CryptoPP@@QAE@ABV01@@Z 4290732d f i authenc.obj
 0001:0000632d       ??4DL_SignatureMessageEncodingMethod_DSA@CryptoPP@@QAEAAV01@ABV01@@Z 4290732d f i dh.obj
 0001:0000632d       ??4CryptoMaterial@CryptoPP@@QAEAAV01@ABV01@@Z 4290732d f i asn.obj
 0001:0000632d       ??0?$DL_ElgamalLikeSignatureAlgorithm@UEC2NPoint@CryptoPP@@@CryptoPP@@QAE@ABV01@@Z 4290732d f i dll.obj
 0001:0000632d       ??4PK_CryptoSystem@CryptoPP@@QAEAAV01@ABV01@@Z 4290732d f i dh.obj
 0001:0000632d       ??4HashTransformation@CryptoPP@@QAEAAV01@ABV01@@Z 4290732d f i authenc.obj
 0001:0000632d       ??0?$TF_SignatureSchemeBase@VPK_Signer@CryptoPP@@V?$TF_Base@VRandomizedTrapdoorFunctionInverse@CryptoPP@@VPK_SignatureMessageEncodingMethod@2@@2@@CryptoPP@@QAE@ABV01@@Z 4290732d f i dh.obj
 0001:0000632d       ??4?$EMSA2HashId@VSHA384@CryptoPP@@@CryptoPP@@QAEAAV01@ABV01@@Z 4290732d f i dll.obj
 0001:0000632d       ??0TrapdoorFunction@CryptoPP@@QAE@ABV01@@Z 4290732d f i dh.obj
 0001:0000632d       ??4TF_DecryptorBase@CryptoPP@@QAEAAV01@ABV01@@Z 4290732d f i dh.obj
 0001:0000632d       ??4?$AllocatorWithCleanup@I$00@CryptoPP@@QAEAAV01@ABV01@@Z 4290732d f i dll.obj
 0001:0000632d       ??4TF_SignerBase@CryptoPP@@QAEAAV01@ABV01@@Z 4290732d f i dh.obj
 0001:0000632d       ??0?$AbstractGroup@VInteger@CryptoPP@@@CryptoPP@@QAE@ABV01@@Z 4290732d f i dh.obj
 0001:0000632d       ??4Algorithm@CryptoPP@@QAEAAV01@ABV01@@Z 4290732d f i asn.obj
 0001:0000632d       ??0?$DL_PrivateKey@UEC2NPoint@CryptoPP@@@CryptoPP@@QAE@ABV01@@Z 4290732d f i dll.obj
 0001:0000632d       ??0PK_Decryptor@CryptoPP@@QAE@ABV01@@Z 4290732d f i dh.obj
 0001:0000632d       ??4Clonable@CryptoPP@@QAEAAV01@ABV01@@Z 4290732d f i asn.obj
 0001:0000632d       ??0PrivateKeyAlgorithm@CryptoPP@@QAE@ABV01@@Z 4290732d f i dh.obj
 0001:0000632d       ??4?$EMSA2HashIdLookup@VPK_DeterministicSignatureMessageEncodingMethod@CryptoPP@@@CryptoPP@@QAEAAV01@ABV01@@Z 4290732d f i dll.obj
 0001:0000632d       ??4SimpleKeyAgreementDomain@CryptoPP@@QAEAAV01@ABV01@@Z 4290732d f i dh.obj
 0001:0000632d       ??4?$AbstractGroup@VInteger@CryptoPP@@@CryptoPP@@QAEAAV01@ABV01@@Z 4290732d f i dh.obj
 0001:0000632d       ??4NonblockingRng@CryptoPP@@QAEAAV01@ABV01@@Z 4290732d f i cryptlib.obj
 0001:0000632d       ??4PublicKey@CryptoPP@@QAEAAV01@ABV01@@Z 4290732d f i asn.obj
 0001:0000632d       ??4OAEP_Base@CryptoPP@@QAEAAV01@ABV01@@Z 4290732d f i dll.obj
 0001:0000632d       ??4?$EMSA2HashId@VSHA1@CryptoPP@@@CryptoPP@@QAEAAV01@ABV01@@Z 4290732d f i dll.obj
 0001:0000632d       ??0?$TF_Base@VRandomizedTrapdoorFunction@CryptoPP@@VPK_EncryptionMessageEncodingMethod@2@@CryptoPP@@QAE@ABV01@@Z 4290732d f i dh.obj
 0001:0000632d       ??4?$AllocatorBase@I@CryptoPP@@QAEAAV01@ABV01@@Z 4290732d f i dll.obj
 0001:0000632d       ??4?$VariableKeyLength@$0BA@$0A@$0HPPPPPPP@$00$03$0A@@CryptoPP@@QAEAAV01@ABV01@@Z 4290732d f i dh.obj
 0001:0000632d       ??4DL_SignatureMessageEncodingMethod_NR@CryptoPP@@QAEAAV01@ABV01@@Z 4290732d f i dh.obj
 0001:0000632d       ??4?$DL_ElgamalLikeSignatureAlgorithm@UECPPoint@CryptoPP@@@CryptoPP@@QAEAAV01@ABV01@@Z 4290732d f i dll.obj
 0001:0000632d       ??4?$PK_FixedLengthCryptoSystemImpl@VPK_Encryptor@CryptoPP@@@CryptoPP@@QAEAAV01@ABV01@@Z 4290732d f i dh.obj
 0001:0000632d       ??4?$DL_Algorithm_GDSA@VInteger@CryptoPP@@@CryptoPP@@QAEAAV01@ABV01@@Z 4290732d f i dh.obj
 0001:0000632d       ??0RandomizedTrapdoorFunction@CryptoPP@@QAE@ABV01@@Z 4290732d f i dh.obj
 0001:0000632d       ??0PK_DeterministicSignatureMessageEncodingMethod@CryptoPP@@QAE@ABV01@@Z 4290732d f i dh.obj
 0001:0000632d       ??4TF_VerifierBase@CryptoPP@@QAEAAV01@ABV01@@Z 4290732d f i dh.obj
 0001:0000632d       ??4?$AbstractRing@VInteger@CryptoPP@@@CryptoPP@@QAEAAV01@ABV01@@Z 4290732d f i dh.obj
 0001:0000632d       ??0PK_Verifier@CryptoPP@@QAE@ABV01@@Z 4290732d f i dh.obj
 0001:0000632d       ??4?$TF_SignatureSchemeBase@VPK_Signer@CryptoPP@@V?$TF_Base@VRandomizedTrapdoorFunctionInverse@CryptoPP@@VPK_SignatureMessageEncodingMethod@2@@2@@CryptoPP@@QAEAAV01@ABV01@@Z 4290732d f i dh.obj
 0001:0000632d       ??0?$TF_Base@VRandomizedTrapdoorFunctionInverse@CryptoPP@@VPK_SignatureMessageEncodingMethod@2@@CryptoPP@@QAE@ABV01@@Z 4290732d f i dh.obj
 0001:00006332       ?AuthenticateData@AuthenticatedSymmetricCipherBase@CryptoPP@@IAEXPBEI@Z 42907332 f   authenc.obj
 0001:000063cd       ?deallocate@?$AllocatorWithCleanup@E$00@CryptoPP@@QAEXPAXI@Z 429073cd f i authenc.obj
 0001:000063f7       ??0?$basic_string@DU?$char_traits@D@std@@V?$allocator@D@2@@std@@QAE@XZ 429073f7 f i authenc.obj
 0001:0000640c       ??1AuthenticatedSymmetricCipherBase@CryptoPP@@UAE@XZ 4290740c f i authenc.obj
 0001:0000641b       ?assign@?$basic_string@DU?$char_traits@D@std@@V?$allocator@D@2@@std@@QAEAAV12@ID@Z 4290741b f i authenc.obj
 0001:00006466       ??0?$basic_string@DU?$char_traits@D@std@@V?$allocator@D@2@@std@@QAE@ID@Z 42907466 f i authenc.obj
 0001:0000648c       ??$?HDU?$char_traits@D@std@@V?$allocator@D@1@@std@@YA?AV?$basic_string@DU?$char_traits@D@std@@V?$allocator@D@2@@0@DABV10@@Z 4290748c f i authenc.obj
 0001:000064e0       ??$?HDU?$char_traits@D@std@@V?$allocator@D@1@@std@@YA?AV?$basic_string@DU?$char_traits@D@std@@V?$allocator@D@2@@0@ABV10@0@Z 429074e0 f i authenc.obj
 0001:00006532       ?allocate@?$AllocatorWithCleanup@E$00@CryptoPP@@QAEPAEIPBX@Z 42907532 f i authenc.obj
 0001:0000655d       ??$IntToString@_K@CryptoPP@@YA?AV?$basic_string@DU?$char_traits@D@std@@V?$allocator@D@2@@std@@_KI@Z 4290755d f i authenc.obj
 0001:0000664b       ??0BadState@AuthenticatedSymmetricCipher@CryptoPP@@QAE@ABV?$basic_string@DU?$char_traits@D@std@@V?$allocator@D@2@@std@@PBD@Z 4290764b f i authenc.obj
 0001:000066bd       ??0BadState@AuthenticatedSymmetricCipher@CryptoPP@@QAE@ABV?$basic_string@DU?$char_traits@D@std@@V?$allocator@D@2@@std@@PBD1@Z 429076bd f i authenc.obj
 0001:0000676a       ?Resynchronize@AuthenticatedSymmetricCipherBase@CryptoPP@@UAEXPBEH@Z 4290776a f   authenc.obj
 0001:000067fa       ??0BadState@AuthenticatedSymmetricCipher@CryptoPP@@QAE@ABV012@@Z 429077fa f i authenc.obj
 0001:00006812       ?Update@AuthenticatedSymmetricCipherBase@CryptoPP@@UAEXPBEI@Z 42907812 f   authenc.obj
 0001:000068c5       ?ProcessData@AuthenticatedSymmetricCipherBase@CryptoPP@@UAEXPAEPBEI@Z 429078c5 f   authenc.obj
 0001:00006a6e       ?TruncatedFinal@AuthenticatedSymmetricCipherBase@CryptoPP@@UAEXPAEI@Z 42907a6e f   authenc.obj
 0001:00006ce3       ??0?$SecBlock@EV?$AllocatorWithCleanup@E$00@CryptoPP@@@CryptoPP@@QAE@I@Z 42907ce3 f i authenc.obj
 0001:00006cfe       ??0?$SecBlock@EV?$AllocatorWithCleanup@E$00@CryptoPP@@@CryptoPP@@QAE@ABV01@@Z 42907cfe f i authenc.obj
 0001:00006d2f       ??$StandardReallocate@EV?$AllocatorWithCleanup@E$00@CryptoPP@@@CryptoPP@@YAPAEAAV?$AllocatorWithCleanup@E$00@0@PAEII_N@Z 42907d2f f i authenc.obj
 0001:00006d99       ??0AuthenticatedSymmetricCipherBase@CryptoPP@@QAE@XZ 42907d99 f i authenc.obj
 0001:00006db3       ??0AuthenticatedSymmetricCipherBase@CryptoPP@@QAE@ABV01@@Z 42907db3 f i authenc.obj
 0001:00006dfc       ?New@?$SecBlock@EV?$AllocatorWithCleanup@E$00@CryptoPP@@@CryptoPP@@QAEXI@Z 42907dfc f i authenc.obj
 0001:00006e23       ?Assign@?$SecBlock@EV?$AllocatorWithCleanup@E$00@CryptoPP@@@CryptoPP@@QAEXABV12@@Z 42907e23 f i authenc.obj
 0001:00006e4f       ??4AuthenticatedSymmetricCipherBase@CryptoPP@@QAEAAV01@ABV01@@Z 42907e4f f i authenc.obj
 0001:00006e98       ??$GetValueWithDefault@H@NameValuePairs@CryptoPP@@QBEHPBDH@Z 42907e98 f i basecode.obj
 0001:00006eb2       ?GetIntValue@NameValuePairs@CryptoPP@@QBE_NPBDAAH@Z 42907eb2 f i basecode.obj
 0001:00006ec7       ?GetIntValueWithDefault@NameValuePairs@CryptoPP@@QBEHPBDH@Z 42907ec7 f i basecode.obj
 0001:00006ecc       ?Put2@BaseN_Encoder@CryptoPP@@UAEIPBEIH_N@Z 42907ecc f   basecode.obj
 0001:00007080       ?Put2@BaseN_Decoder@CryptoPP@@UAEIPBEIH_N@Z 42908080 f   basecode.obj
 0001:000071ce       ?InitializeDecodingLookupArray@BaseN_Decoder@CryptoPP@@SAXPAHPBEI_N@Z 429081ce f   basecode.obj
 0001:00007239       ?Put2@Grouper@CryptoPP@@UAEIPBEIH_N@Z 42908239 f   basecode.obj
 0001:0000736f       ??1BaseN_Encoder@CryptoPP@@UAE@XZ 4290836f f i basecode.obj
 0001:0000736f       ??1BaseN_Decoder@CryptoPP@@UAE@XZ 4290836f f i basecode.obj
 0001:000073ab       ??_EBaseN_Decoder@CryptoPP@@UAEPAXI@Z 429083ab f i basecode.obj
 0001:000073ab       ??_EBaseN_Encoder@CryptoPP@@UAEPAXI@Z 429083ab f i basecode.obj
 0001:000073f6       ??1Grouper@CryptoPP@@UAE@XZ 429083f6 f i basecode.obj
 0001:00007447       ??_EGrouper@CryptoPP@@UAEPAXI@Z 42908447 f i basecode.obj
 0001:00007492       ?GetRequiredIntParameter@NameValuePairs@CryptoPP@@QBEXPBD0AAH@Z 42908492 f i basecode.obj
 0001:0000752a       ??$GetRequiredParameter@PBE@NameValuePairs@CryptoPP@@QBEXPBD0AAPBE@Z 4290852a f i basecode.obj
 0001:000075c2       ??$GetRequiredParameter@PBH@NameValuePairs@CryptoPP@@QBEXPBD0AAPBH@Z 429085c2 f i basecode.obj
 0001:0000765a       ??$GetRequiredParameter@VConstByteArrayParameter@CryptoPP@@@NameValuePairs@CryptoPP@@QBEXPBD0AAVConstByteArrayParameter@1@@Z 4290865a f i basecode.obj
 0001:000076f2       ??0?$AlgorithmParametersTemplate@_N@CryptoPP@@QAE@PBDAB_N_N@Z 429086f2 f i basecode.obj
 0001:00007717       ??0?$AlgorithmParametersTemplate@PBE@CryptoPP@@QAE@PBDABQBE_N@Z 42908717 f i basecode.obj
 0001:0000773c       ?AssignValue@?$AlgorithmParametersTemplate@PBE@CryptoPP@@UBEXPBDABVtype_info@@PAX@Z 4290873c f i basecode.obj
 0001:00007795       ??0?$AlgorithmParametersTemplate@E@CryptoPP@@QAE@PBDABE_N@Z 42908795 f i basecode.obj
 0001:000077ba       ?AssignValue@?$AlgorithmParametersTemplate@E@CryptoPP@@UBEXPBDABVtype_info@@PAX@Z 429087ba f i basecode.obj
 0001:00007813       ??0?$AlgorithmParametersTemplate@PBH@CryptoPP@@QAE@PBDABQBH_N@Z 42908813 f i basecode.obj
 0001:00007838       ?AssignValue@?$AlgorithmParametersTemplate@PBH@CryptoPP@@UBEXPBDABVtype_info@@PAX@Z 42908838 f i basecode.obj
 0001:00007891       ??$?RPBE@AlgorithmParameters@CryptoPP@@QAEAAV01@PBDABQBE_N@Z 42908891 f i basecode.obj
 0001:000078ff       ??$?R_N@AlgorithmParameters@CryptoPP@@QAEAAV01@PBDAB_N_N@Z 429088ff f i basecode.obj
 0001:0000796d       ??$?RE@AlgorithmParameters@CryptoPP@@QAEAAV01@PBDABE_N@Z 4290896d f i basecode.obj
 0001:000079db       ??$?RPBH@AlgorithmParameters@CryptoPP@@QAEAAV01@PBDABQBH_N@Z 429089db f i basecode.obj
 0001:00007a49       ?MoveInto@?$AlgorithmParametersTemplate@PBE@CryptoPP@@UBEXPAX@Z 42908a49 f i basecode.obj
 0001:00007a8a       ?MoveInto@?$AlgorithmParametersTemplate@E@CryptoPP@@UBEXPAX@Z 42908a8a f i basecode.obj
 0001:00007acb       ?MoveInto@?$AlgorithmParametersTemplate@PBH@CryptoPP@@UBEXPAX@Z 42908acb f i basecode.obj
 0001:00007b0c       ??0BaseN_Encoder@CryptoPP@@QAE@PAVBufferedTransformation@1@@Z 42908b0c f i basecode.obj
 0001:00007b5e       ??_EBaseN_Decoder@CryptoPP@@W3AEPAXI@Z 42908b5e f i basecode.obj
 0001:00007b5e       ??_EBaseN_Encoder@CryptoPP@@W3AEPAXI@Z 42908b5e f i basecode.obj
 0001:00007b66       ??_FBaseN_Encoder@CryptoPP@@QAEXXZ 42908b66 f i basecode.obj
 0001:00007b6e       ??0BaseN_Decoder@CryptoPP@@QAE@PAVBufferedTransformation@1@@Z 42908b6e f i basecode.obj
 0001:00007bc0       ??_FBaseN_Decoder@CryptoPP@@QAEXXZ 42908bc0 f i basecode.obj
 0001:00007bc8       ??0Grouper@CryptoPP@@QAE@PAVBufferedTransformation@1@@Z 42908bc8 f i basecode.obj
 0001:00007c28       ??_EGrouper@CryptoPP@@W3AEPAXI@Z 42908c28 f i basecode.obj
 0001:00007c30       ??_FGrouper@CryptoPP@@QAEXXZ 42908c30 f i basecode.obj
 0001:00007c38       ??$MakeParameters@PBE@CryptoPP@@YA?AVAlgorithmParameters@0@PBDABQBE_N@Z 42908c38 f i basecode.obj
 0001:00007c90       ??$MakeParameters@PBH@CryptoPP@@YA?AVAlgorithmParameters@0@PBDABQBH_N@Z 42908c90 f i basecode.obj
 0001:00007ce8       ??$MakeParameters@H@CryptoPP@@YA?AVAlgorithmParameters@0@PBDABH_N@Z 42908ce8 f i basecode.obj
 0001:00007d40       ?IsolatedInitialize@BaseN_Encoder@CryptoPP@@UAEXABVNameValuePairs@2@@Z 42908d40 f   basecode.obj
 0001:00007e54       ?IsolatedInitialize@BaseN_Decoder@CryptoPP@@UAEXABVNameValuePairs@2@@Z 42908e54 f   basecode.obj
 0001:00007f0d       ??0BaseN_Encoder@CryptoPP@@QAE@PBEHPAVBufferedTransformation@1@H@Z 42908f0d f i basecode.obj
 0001:00007fe1       ??0BaseN_Decoder@CryptoPP@@QAE@PBHHPAVBufferedTransformation@1@@Z 42908fe1 f i basecode.obj
 0001:0000807a       ?IsolatedInitialize@Grouper@CryptoPP@@UAEXABVNameValuePairs@2@@Z 4290907a f   basecode.obj
 0001:00008181       ??0Grouper@CryptoPP@@QAE@HABV?$basic_string@DU?$char_traits@D@std@@V?$allocator@D@2@@std@@0PAVBufferedTransformation@1@@Z 42909181 f i basecode.obj
 0001:00008282       ?ProcessBlock@BlockTransformation@CryptoPP@@QBEXPAE@Z 42909282 f i cbcmac.obj
 0001:00008294       ?ProcessBuf@CBC_MAC_Base@CryptoPP@@AAEXXZ 42909294 f   cbcmac.obj
 0001:000082b5       ?Update@CBC_MAC_Base@CryptoPP@@UAEXPBEI@Z 429092b5 f   cbcmac.obj
 0001:00008367       ?TruncatedFinal@CBC_MAC_Base@CryptoPP@@UAEXPAEI@Z 42909367 f   cbcmac.obj
 0001:000083b7       ??0CBC_MAC_Base@CryptoPP@@QAE@ABV01@@Z 429093b7 f i cbcmac.obj
 0001:000083b7       ??0CMAC_Base@CryptoPP@@QAE@ABV01@@Z 429093b7 f i cmac.obj
 0001:000083d8       ?CleanNew@?$SecBlock@EV?$AllocatorWithCleanup@E$0A@@CryptoPP@@@CryptoPP@@QAEXI@Z 429093d8 f i cbcmac.obj
 0001:000083f8       ?UncheckedSetKey@CBC_MAC_Base@CryptoPP@@UAEXPBEIABVNameValuePairs@2@@Z 429093f8 f   cbcmac.obj
 0001:00008433       ??4CMAC_Base@CryptoPP@@QAEAAV01@ABV01@@Z 42909433 f i cmac.obj
 0001:00008433       ??4CBC_MAC_Base@CryptoPP@@QAEAAV01@ABV01@@Z 42909433 f i cbcmac.obj
 0001:00008454       ?OperateKeystream@AdditiveCipherAbstractPolicy@CryptoPP@@UAEXW4KeystreamOperation@2@PAEPBEI@Z 42909454 f i ccm.obj
 0001:00008457       ?Iterate@CFB_CipherAbstractPolicy@CryptoPP@@UAEXPAEPBEW4CipherDir@2@I@Z 42909457 f i ccm.obj
 0001:0000846e       ?MinKeyLength@CipherModeBase@CryptoPP@@UBEIXZ 4290946e f i ccm.obj
 0001:00008476       ?MaxKeyLength@CipherModeBase@CryptoPP@@UBEIXZ 42909476 f i ccm.obj
 0001:0000847e       ?DefaultKeyLength@CipherModeBase@CryptoPP@@UBEIXZ 4290947e f i ccm.obj
 0001:00008486       ?GetValidKeyLength@CipherModeBase@CryptoPP@@UBEII@Z 42909486 f i ccm.obj
 0001:0000848e       ?IsValidKeyLength@CipherModeBase@CryptoPP@@UBE_NI@Z 4290948e f i ccm.obj
 0001:00008496       ?OptimalDataAlignment@CipherModeBase@CryptoPP@@UBEIXZ 42909496 f i ccm.obj
 0001:000084a1       ?SetCipher@CipherModeBase@CryptoPP@@QAEXAAVBlockCipher@2@@Z 429094a1 f i ccm.obj
 0001:000084bb       ?StaticAlgorithmName@CFB_ModePolicy@CryptoPP@@SAPBDXZ 429094bb f i ccm.obj
 0001:000084c1       ?StaticAlgorithmName@OFB_ModePolicy@CryptoPP@@SAPBDXZ 429094c1 f i ccm.obj
 0001:000084c7       ?GetIterationsToBuffer@CTR_ModePolicy@CryptoPP@@MBEIXZ 429094c7 f i ccm.obj
 0001:000084c7       ?GetIterationsToBuffer@OFB_ModePolicy@CryptoPP@@EBEIXZ 429094c7 f i ccm.obj
 0001:000084d2       ?StaticAlgorithmName@CTR_ModePolicy@CryptoPP@@SAPBDXZ 429094d2 f i ccm.obj
 0001:000084d8       ?WriteKeystream@CTR_ModePolicy@CryptoPP@@MAEXPAEI@Z 429094d8 f i ccm.obj
 0001:000084ec       ?CanOperateKeystream@CTR_ModePolicy@CryptoPP@@MBE_NXZ 429094ec f i ccm.obj
 0001:000084ec       ?IsSelfInverting@?$AdditiveCipherTemplate@V?$AbstractPolicyHolder@UAdditiveCipherAbstractPolicy@CryptoPP@@VOFB_ModePolicy@2@@CryptoPP@@@CryptoPP@@UBE_NXZ 429094ec f i ccm.obj
 0001:000084ec       ?ShouldPropagateMessageEnd@Filter@CryptoPP@@MBE_NXZ 429094ec f i asn.obj
 0001:000084ec       ?SupportsPrecomputation@?$DL_PrivateKeyImpl@V?$DL_GroupParameters_EC@VECP@CryptoPP@@@CryptoPP@@@CryptoPP@@UBE_NXZ 429094ec f i dll.obj
 0001:000084ec       ?SupportsPrecomputation@?$DL_PrivateKeyImpl@VDL_GroupParameters_DSA@CryptoPP@@@CryptoPP@@UBE_NXZ 429094ec f i dh.obj
 0001:000084ec       ?NeedConversions@?$EcPrecomputation@VECP@CryptoPP@@@CryptoPP@@UBE_NXZ 429094ec f i dll.obj
 0001:000084ec       ?InversionIsFast@EC2N@CryptoPP@@UBE_NXZ 429094ec f i dll.obj
 0001:000084ec       ?IsProbabilistic@?$DL_SignatureSchemeBase@VPK_Verifier@CryptoPP@@V?$DL_PublicKey@UECPPoint@CryptoPP@@@2@@CryptoPP@@UBE_NXZ 429094ec f i dll.obj
 0001:000084ec       ?SupportsPrecomputation@?$DL_PrivateKeyImpl@V?$DL_GroupParameters_EC@VEC2N@CryptoPP@@@CryptoPP@@@CryptoPP@@UBE_NXZ 429094ec f i dll.obj
 0001:000084ec       ?SupportsPrecomputation@?$DL_GroupParameters@UECPPoint@CryptoPP@@@CryptoPP@@UBE_NXZ 429094ec f i dll.obj
 0001:000084ec       ?IsProbabilistic@?$DL_SignatureSchemeBase@VPK_Verifier@CryptoPP@@V?$DL_PublicKey@UEC2NPoint@CryptoPP@@@2@@CryptoPP@@UBE_NXZ 429094ec f i dll.obj
 0001:000084ec       ?IsForwardTransformation@?$BlockCipherFinal@$0A@VBase@DES_EDE3@CryptoPP@@@CryptoPP@@UBE_NXZ 429094ec f i fipstest.obj
 0001:000084ec       ?SupportsPrecomputation@?$DL_PublicKeyImpl@V?$DL_GroupParameters_EC@VECP@CryptoPP@@@CryptoPP@@@CryptoPP@@UBE_NXZ 429094ec f i dll.obj
 0001:000084ec       ?RequireAlignedInput@BlockOrientedCipherModeBase@CryptoPP@@IBE_NXZ 429094ec f i ccm.obj
 0001:000084ec       ?IsSelfInverting@AuthenticatedSymmetricCipherBase@CryptoPP@@UBE_NXZ 429094ec f i authenc.obj
 0001:000084ec       ?InversionIsFast@ECP@CryptoPP@@UBE_NXZ 429094ec f i dll.obj
 0001:000084ec       ?IsRandomized@RandomizedTrapdoorFunction@CryptoPP@@UBE_NXZ 429094ec f i dh.obj
 0001:000084ec       ?Attachable@Filter@CryptoPP@@UAE_NXZ 429094ec f i asn.obj
 0001:000084ec       ?IsRandomized@RandomizedTrapdoorFunctionInverse@CryptoPP@@UBE_NXZ 429094ec f i dh.obj
 0001:000084ec       ?NeedsPrespecifiedDataLengths@CCM_Base@CryptoPP@@UBE_NXZ 429094ec f i ccm.obj
 0001:000084ec       ?IsForwardTransformation@?$CFB_EncryptionTemplate@V?$AbstractPolicyHolder@VCFB_CipherAbstractPolicy@CryptoPP@@VSymmetricCipher@2@@CryptoPP@@@CryptoPP@@EBE_NXZ 429094ec f i ccm.obj
 0001:000084ec       ?SupportsPrecomputation@?$DL_GroupParameters@UEC2NPoint@CryptoPP@@@CryptoPP@@UBE_NXZ 429094ec f i dll.obj
 0001:000084ec       ?CanIncorporateEntropy@?$AutoSeededX917RNG@VRijndael@CryptoPP@@@CryptoPP@@UBE_NXZ 429094ec f i cryptlib.obj
 0001:000084ec       ?IsForwardTransformation@?$BlockCipherFinal@$0A@VEnc@SKIPJACK@CryptoPP@@@CryptoPP@@UBE_NXZ 429094ec f i fipstest.obj
 0001:000084ec       ?IsSelfInverting@?$AdditiveCipherTemplate@V?$AbstractPolicyHolder@UAdditiveCipherAbstractPolicy@CryptoPP@@VCTR_ModePolicy@2@@CryptoPP@@@CryptoPP@@UBE_NXZ 429094ec f i ccm.obj
 0001:000084ec       ?CipherIsRandomAccess@CTR_ModePolicy@CryptoPP@@UBE_NXZ 429094ec f i ccm.obj
 0001:000084ec       ?IsForwardTransformation@?$AdditiveCipherTemplate@V?$AbstractPolicyHolder@UAdditiveCipherAbstractPolicy@CryptoPP@@VSymmetricCipher@2@@CryptoPP@@@CryptoPP@@UBE_NXZ 429094ec f i ccm.obj
 0001:000084ec       ?IsSelfInverting@?$AdditiveCipherTemplate@V?$AbstractPolicyHolder@UAdditiveCipherAbstractPolicy@CryptoPP@@VSymmetricCipher@2@@CryptoPP@@@CryptoPP@@UBE_NXZ 429094ec f i ccm.obj
 0001:000084ec       ?FIPS_140_2_ComplianceEnabled@CryptoPP@@YA_NXZ 429094ec f i fips140.obj
 0001:000084ec       ?AllowNonrecoverablePart@PSSR_MEM_Base@CryptoPP@@QBE_NXZ 429094ec f i pssr.obj
 0001:000084ec       ?AuthenticationIsOnPlaintext@CCM_Base@CryptoPP@@MBE_NXZ 429094ec f i ccm.obj
 0001:000084ec       ?CanIncorporateEntropy@RandomPool@CryptoPP@@UBE_NXZ 429094ec f i cryptlib.obj
 0001:000084ec       ?IsProbabilistic@?$DL_SignatureSchemeBase@VPK_Signer@CryptoPP@@V?$DL_PrivateKey@VInteger@CryptoPP@@@2@@CryptoPP@@UBE_NXZ 429094ec f i dh.obj
 0001:000084ec       ?IsForwardTransformation@?$CFB_EncryptionTemplate@V?$AbstractPolicyHolder@VCFB_CipherAbstractPolicy@CryptoPP@@VCFB_ModePolicy@2@@CryptoPP@@@CryptoPP@@EBE_NXZ 429094ec f i ccm.obj
 0001:000084ec       ?SupportsPrecomputation@?$DL_PublicKeyImpl@V?$DL_GroupParameters_EC@VEC2N@CryptoPP@@@CryptoPP@@@CryptoPP@@UBE_NXZ 429094ec f i dll.obj
 0001:000084ec       ?NeedConversions@ModExpPrecomputation@CryptoPP@@UBE_NXZ 429094ec f i dh.obj
 0001:000084ec       ?IsForwardTransformation@?$AdditiveCipherTemplate@V?$AbstractPolicyHolder@UAdditiveCipherAbstractPolicy@CryptoPP@@VOFB_ModePolicy@2@@CryptoPP@@@CryptoPP@@UBE_NXZ 429094ec f i ccm.obj
 0001:000084ec       ?do_always_noconv@codecvt_base@std@@MBE_NXZ 429094ec f i files.obj
 0001:000084ec       ?IsForwardTransformation@?$BlockCipherFinal@$0A@VEnc@Rijndael@CryptoPP@@@CryptoPP@@UBE_NXZ 429094ec f i dll.obj
 0001:000084ec       ?IsPermutation@BlockTransformation@CryptoPP@@UBE_NXZ 429094ec f i des.obj
 0001:000084ec       ?IsProbabilistic@?$DL_SignatureSchemeBase@VPK_Signer@CryptoPP@@V?$DL_PrivateKey@UECPPoint@CryptoPP@@@2@@CryptoPP@@UBE_NXZ 429094ec f i dll.obj
 0001:000084ec       ?ShouldPropagateMessageSeriesEnd@Filter@CryptoPP@@MBE_NXZ 429094ec f i asn.obj
 0001:000084ec       ?IsProbabilistic@?$DL_SignatureSchemeBase@VPK_Signer@CryptoPP@@V?$DL_PrivateKey@UEC2NPoint@CryptoPP@@@2@@CryptoPP@@UBE_NXZ 429094ec f i dll.obj
 0001:000084ec       ?IsForwardTransformation@?$AdditiveCipherTemplate@V?$AbstractPolicyHolder@UAdditiveCipherAbstractPolicy@CryptoPP@@VCTR_ModePolicy@2@@CryptoPP@@@CryptoPP@@UBE_NXZ 429094ec f i ccm.obj
 0001:000084ec       ?IsMontgomeryRepresentation@MontgomeryRepresentation@CryptoPP@@UBE_NXZ 429094ec f i dh.obj
 0001:000084ec       ?SupportsPrecomputation@?$DL_PublicKeyImpl@VDL_GroupParameters_DSA@CryptoPP@@@CryptoPP@@UBE_NXZ 429094ec f i dh.obj
 0001:000084ec       ?SupportsPrecomputation@?$DL_GroupParameters@VInteger@CryptoPP@@@CryptoPP@@UBE_NXZ 429094ec f i dh.obj
 0001:000084ec       ?IsProbabilistic@?$DL_SignatureSchemeBase@VPK_Verifier@CryptoPP@@V?$DL_PublicKey@VInteger@CryptoPP@@@2@@CryptoPP@@UBE_NXZ 429094ec f i dh.obj
 0001:000084ef       ?FastSubgroupCheckAvailable@?$DL_GroupParameters_EC@VECP@CryptoPP@@@CryptoPP@@UBE_NXZ 429094ef f i dll.obj
 0001:000084ef       ?NeedConversions@?$DL_GroupPrecomputation@UECPPoint@CryptoPP@@@CryptoPP@@UBE_NXZ 429094ef f i dll.obj
 0001:000084ef       ?IsForwardTransformation@?$BlockCipherFinal@$00VDec@Rijndael@CryptoPP@@@CryptoPP@@UBE_NXZ 429094ef f i fipstest.obj
 0001:000084ef       ?RequireAlignedInput@CBC_ModeBase@CryptoPP@@QBE_NXZ 429094ef f i ccm.obj
 0001:000084ef       ?IsRandomAccess@?$CFB_CipherTemplate@V?$AbstractPolicyHolder@VCFB_CipherAbstractPolicy@CryptoPP@@VCFB_ModePolicy@2@@CryptoPP@@@CryptoPP@@UBE_NXZ 429094ef f i ccm.obj
 0001:000084ef       ?InversionIsFast@?$AbstractGroup@VInteger@CryptoPP@@@CryptoPP@@UBE_NXZ 429094ef f i dh.obj
 0001:000084ef       ?InversionIsFast@?$AbstractGroup@UEC2NPoint@CryptoPP@@@CryptoPP@@UBE_NXZ 429094ef f i dll.obj
 0001:000084ef       ?CanIncorporateEntropy@RandomNumberGenerator@CryptoPP@@UBE_NXZ 429094ef f i ccm.obj
 0001:000084ef       ?InversionIsFast@?$AbstractGroup@VPolynomialMod2@CryptoPP@@@CryptoPP@@UBE_NXZ 429094ef f i dll.obj
 0001:000084ef       ?CanModifyInput@BufferedTransformation@CryptoPP@@UBE_NXZ 429094ef f i asn.obj
 0001:000084ef       ?AuthenticationIsOnPlaintext@GCM_Base@CryptoPP@@MBE_NXZ 429094ef f i dll.obj
 0001:000084ef       ?SignatureUpfront@PK_SignatureScheme@CryptoPP@@UBE_NXZ 429094ef f i dh.obj
 0001:000084ef       ?InversionIsFast@?$AbstractGroup@UECPPoint@CryptoPP@@@CryptoPP@@UBE_NXZ 429094ef f i dll.obj
 0001:000084ef       ?AllowRecovery@?$PSSR_MEM@$0A@VP1363_MGF1@CryptoPP@@$0?0$0A@$0A@@CryptoPP@@EBE_NXZ 429094ef f i fipstest.obj
 0001:000084ef       ?Attachable@BufferedTransformation@CryptoPP@@UAE_NXZ 429094ef f i asn.obj
 0001:000084ef       ?IsSelfInverting@BlockOrientedCipherModeBase@CryptoPP@@UBE_NXZ 429094ef f i ccm.obj
 0001:000084ef       ?IsMontgomeryRepresentation@ModularArithmetic@CryptoPP@@UBE_NXZ 429094ef f i dh.obj
 0001:000084ef       ?IsForwardTransformation@?$CFB_DecryptionTemplate@V?$AbstractPolicyHolder@VCFB_CipherAbstractPolicy@CryptoPP@@VSymmetricCipher@2@@CryptoPP@@@CryptoPP@@EBE_NXZ 429094ef f i ccm.obj
 0001:000084ef       ?RecoverablePartFirst@PSSR_MEM_Base@CryptoPP@@UBE_NXZ 429094ef f i pssr.obj
 0001:000084ef       ?GetNextMessageSeries@BufferedTransformation@CryptoPP@@UAE_NXZ 429094ef f i asn.obj
 0001:000084ef       ?IsSelfInverting@?$CFB_CipherTemplate@V?$AbstractPolicyHolder@VCFB_CipherAbstractPolicy@CryptoPP@@VCFB_ModePolicy@2@@CryptoPP@@@CryptoPP@@UBE_NXZ 429094ef f i ccm.obj
 0001:000084ef       ?IsForwardTransformation@?$BlockCipherFinal@$00VBase@DES_EDE3@CryptoPP@@@CryptoPP@@UBE_NXZ 429094ef f i fipstest.obj
 0001:000084ef       ?IsRandomized@TrapdoorFunction@CryptoPP@@UBE_NXZ 429094ef f i dh.obj
 0001:000084ef       ?IsForwardTransformation@?$CFB_DecryptionTemplate@V?$AbstractPolicyHolder@VCFB_CipherAbstractPolicy@CryptoPP@@VCFB_ModePolicy@2@@CryptoPP@@@CryptoPP@@EBE_NXZ 429094ef f i ccm.obj
 0001:000084ef       ?IsRandomAccess@AuthenticatedSymmetricCipherBase@CryptoPP@@UBE_NXZ 429094ef f i authenc.obj
 0001:000084ef       ?CanOperateKeystream@AdditiveCipherAbstractPolicy@CryptoPP@@UBE_NXZ 429094ef f i ccm.obj
 0001:000084ef       ?NeedConversions@?$DL_GroupPrecomputation@UEC2NPoint@CryptoPP@@@CryptoPP@@UBE_NXZ 429094ef f i dll.obj
 0001:000084ef       ?IsRandomized@TrapdoorFunctionInverse@CryptoPP@@UBE_NXZ 429094ef f i dh.obj
 0001:000084ef       ?IsForwardTransformation@?$BlockCipherFinal@$00VDec@SKIPJACK@CryptoPP@@@CryptoPP@@UBE_NXZ 429094ef f i fipstest.obj
 0001:000084ef       ?IsRandomAccess@BlockOrientedCipherModeBase@CryptoPP@@UBE_NXZ 429094ef f i ccm.obj
 0001:000084ef       ?FastSubgroupCheckAvailable@?$DL_GroupParameters_EC@VEC2N@CryptoPP@@@CryptoPP@@UBE_NXZ 429094ef f i dll.obj
 0001:000084ef       ?SupportsPrecomputation@CryptoMaterial@CryptoPP@@UBE_NXZ 429094ef f i asn.obj
 0001:000084ef       ?CipherIsRandomAccess@OFB_ModePolicy@CryptoPP@@UBE_NXZ 429094ef f i ccm.obj
 0001:000084ef       ?IsSelfInverting@?$CFB_CipherTemplate@V?$AbstractPolicyHolder@VCFB_CipherAbstractPolicy@CryptoPP@@VSymmetricCipher@2@@CryptoPP@@@CryptoPP@@UBE_NXZ 429094ef f i ccm.obj
 0001:000084ef       ?IsRandomAccess@?$CFB_CipherTemplate@V?$AbstractPolicyHolder@VCFB_CipherAbstractPolicy@CryptoPP@@VSymmetricCipher@2@@CryptoPP@@@CryptoPP@@UBE_NXZ 429094ef f i ccm.obj
 0001:000084ef       ?CanIterate@CFB_CipherAbstractPolicy@CryptoPP@@UBE_NXZ 429094ef f i ccm.obj
 0001:000084ef       ?NeedsPrespecifiedDataLengths@AuthenticatedSymmetricCipher@CryptoPP@@UBE_NXZ 429094ef f i dll.obj
 0001:000084ef       ?InputBufferIsEmpty@?$Unflushable@V?$Multichannel@VFilter@CryptoPP@@@CryptoPP@@@CryptoPP@@MBE_NXZ 429094ef f i dll.obj
 0001:000084ef       ?InputBufferIsEmpty@?$Unflushable@VFilter@CryptoPP@@@CryptoPP@@MBE_NXZ 429094ef f i asn.obj
 0001:000084f2       ?IsForwardTransformation@BlockOrientedCipherModeBase@CryptoPP@@UBE_NXZ 429094f2 f i ccm.obj
 0001:000084fd       ?StaticAlgorithmName@ECB_OneWay@CryptoPP@@SAPBDXZ 429094fd f i ccm.obj
 0001:00008503       ?IVRequirement@CBC_ModeBase@CryptoPP@@UBE?AW4IV_Requirement@SimpleKeyingInterface@2@XZ 42909503 f i ccm.obj
 0001:00008507       ?MinLastBlockSize@CBC_ModeBase@CryptoPP@@UBEIXZ 42909507 f i ccm.obj
 0001:00008507       ?GetAutoSignalPropagation@BufferedTransformation@CryptoPP@@UBEHXZ 42909507 f i asn.obj
 0001:00008507       ?IVSize@?$SimpleKeyingInterfaceImpl@V?$TwoBases@VBlockCipher@CryptoPP@@USKIPJACK_Info@2@@CryptoPP@@V12@@CryptoPP@@UBEIXZ 42909507 f i dll.obj
 0001:00008507       ___init_collate            42909507 f i LIBCMT:initcoll.obj
 0001:00008507       ?GetOptimalBlockSizeUsed@StreamTransformation@CryptoPP@@UBEIXZ 42909507 f i ccm.obj
 0001:00008507       ?sync@?$basic_streambuf@DU?$char_traits@D@std@@@std@@MAEHXZ 42909507 f i files.obj
 0001:00008507       ?IVRequirement@GCM_Base@CryptoPP@@UBE?AW4IV_Requirement@SimpleKeyingInterface@2@XZ 42909507 f i dll.obj
 0001:00008507       ?AttachedTransformation@BufferedTransformation@CryptoPP@@UAEPAV12@XZ 42909507 f i asn.obj
 0001:00008507       ?FixedMaxPlaintextLength@PK_CryptoSystem@CryptoPP@@UBEIXZ 42909507 f i dll.obj
 0001:00008507       ?IVRequirement@OFB_ModePolicy@CryptoPP@@UBE?AW4IV_Requirement@SimpleKeyingInterface@2@XZ 42909507 f i ccm.obj
 0001:00008507       ?IVSize@?$SimpleKeyingInterfaceImpl@VHMAC_Base@CryptoPP@@V?$HMAC@VSHA1@CryptoPP@@@2@@CryptoPP@@UBEIXZ 42909507 f i fipstest.obj
 0001:00008507       __matherr                  42909507 f i LIBCMT:matherr.obj
 0001:00008507       ?IVRequirement@CCM_Base@CryptoPP@@UBE?AW4IV_Requirement@SimpleKeyingInterface@2@XZ 42909507 f i ccm.obj
 0001:00008507       ?MinKeyLength@?$SimpleKeyingInterfaceImpl@VHMAC_Base@CryptoPP@@V?$HMAC@VSHA1@CryptoPP@@@2@@CryptoPP@@UBEIXZ 42909507 f i fipstest.obj
 0001:00008507       ?IVSize@?$SimpleKeyingInterfaceImpl@V?$TwoBases@VBlockCipher@CryptoPP@@UDES_EDE3_Info@2@@CryptoPP@@V12@@CryptoPP@@UBEIXZ 42909507 f i des.obj
 0001:00008507       ?MinLastBlockSize@StreamTransformation@CryptoPP@@UBEIXZ 42909507 f i ccm.obj
 0001:00008507       ?NumberOfMessageSeries@BufferedTransformation@CryptoPP@@UBEIXZ 42909507 f i asn.obj
 0001:00008507       ?IVSize@?$SimpleKeyingInterfaceImpl@V?$TwoBases@VBlockCipher@CryptoPP@@URijndael_Info@2@@CryptoPP@@V12@@CryptoPP@@UBEIXZ 42909507 f i cryptlib.obj
 0001:00008507       ?IVSize@?$SimpleKeyingInterfaceImpl@V?$TwoBases@VBlockCipher@CryptoPP@@UDES_EDE2_Info@2@@CryptoPP@@V12@@CryptoPP@@UBEIXZ 42909507 f i des.obj
 0001:00008507       ___init_dummy              42909507 f i LIBCMT:setlocal.obj
 0001:00008507       ?FixedCiphertextLength@PK_CryptoSystem@CryptoPP@@UBEIXZ 42909507 f i dll.obj
 0001:00008507       ?showmanyc@?$basic_streambuf@DU?$char_traits@D@std@@@std@@MAEHXZ 42909507 f i files.obj
 0001:00008507       ?BlockSize@HashTransformation@CryptoPP@@UBEIXZ 42909507 f i dh.obj
 0001:0000850a       ?StaticAlgorithmName@CBC_ModeBase@CryptoPP@@SAPBDXZ 4290950a f i ccm.obj
 0001:00008510       ?SetStolenIV@CBC_CTS_Encryption@CryptoPP@@QAEXPAE@Z 42909510 f i ccm.obj
 0001:0000851a       ?StaticAlgorithmName@CBC_CTS_Encryption@CryptoPP@@SAPBDXZ 4290951a f i ccm.obj
 0001:00008520       ?MinIVLength@CCM_Base@CryptoPP@@UBEIXZ 42909520 f i ccm.obj
 0001:00008524       ?MaxIVLength@CCM_Base@CryptoPP@@UBEIXZ 42909524 f i ccm.obj
 0001:00008528       ?DigestSize@CCM_Base@CryptoPP@@UBEIXZ 42909528 f i ccm.obj
 0001:00008528       ?MaxElementBitLength@GF2NP@CryptoPP@@QBEIXZ 42909528 f i dll.obj
 0001:0000852c       ?MaxHeaderLength@CCM_Base@CryptoPP@@UBE_KXZ 4290952c f i ccm.obj
 0001:00008532       ?MaxMessageLength@CCM_Base@CryptoPP@@UBE_KXZ 42909532 f i ccm.obj
 0001:00008557       ?AccessSymmetricCipher@CCM_Base@CryptoPP@@MAEAAVSymmetricCipher@2@XZ 42909557 f i ccm.obj
 0001:0000855b       ?IsResynchronizable@SimpleKeyingInterface@CryptoPP@@QBE_NXZ 4290955b f i ccm.obj
 0001:0000856b       ?OptimalBlockSize@?$AdditiveCipherTemplate@V?$AbstractPolicyHolder@UAdditiveCipherAbstractPolicy@CryptoPP@@VSymmetricCipher@2@@CryptoPP@@@CryptoPP@@UBEIXZ 4290956b f i ccm.obj
 0001:0000857a       ?IsRandomAccess@?$AdditiveCipherTemplate@V?$AbstractPolicyHolder@UAdditiveCipherAbstractPolicy@CryptoPP@@VSymmetricCipher@2@@CryptoPP@@@CryptoPP@@UBE_NXZ 4290957a f i ccm.obj
 0001:00008589       ?OptimalBlockSize@?$CFB_CipherTemplate@V?$AbstractPolicyHolder@VCFB_CipherAbstractPolicy@CryptoPP@@VSymmetricCipher@2@@CryptoPP@@@CryptoPP@@UBEIXZ 42909589 f i ccm.obj
 0001:00008598       ?OptimalDataAlignment@?$CFB_CipherTemplate@V?$AbstractPolicyHolder@VCFB_CipherAbstractPolicy@CryptoPP@@VSymmetricCipher@2@@CryptoPP@@@CryptoPP@@UBEIXZ 42909598 f i ccm.obj
 0001:00008598       ?OptimalDataAlignment@?$AdditiveCipherTemplate@V?$AbstractPolicyHolder@UAdditiveCipherAbstractPolicy@CryptoPP@@VSymmetricCipher@2@@CryptoPP@@@CryptoPP@@UBEIXZ 42909598 f i ccm.obj
 0001:000085a7       ?GetAlignment@CTR_ModePolicy@CryptoPP@@MBEIXZ 429095a7 f i ccm.obj
 0001:000085a7       ?GetAlignment@?$ModePolicyCommonTemplate@UAdditiveCipherAbstractPolicy@CryptoPP@@@CryptoPP@@EBEIXZ 429095a7 f i ccm.obj
 0001:000085a7       ?GetAlignment@?$ModePolicyCommonTemplate@VCFB_CipherAbstractPolicy@CryptoPP@@@CryptoPP@@EBEIXZ 429095a7 f i ccm.obj
 0001:000085b2       ?OptimalBlockSize@?$CFB_CipherTemplate@V?$AbstractPolicyHolder@VCFB_CipherAbstractPolicy@CryptoPP@@VCFB_ModePolicy@2@@CryptoPP@@@CryptoPP@@UBEIXZ 429095b2 f i ccm.obj
 0001:000085c1       ?OptimalDataAlignment@?$AdditiveCipherTemplate@V?$AbstractPolicyHolder@UAdditiveCipherAbstractPolicy@CryptoPP@@VOFB_ModePolicy@2@@CryptoPP@@@CryptoPP@@UBEIXZ 429095c1 f i ccm.obj
 0001:000085c1       ?OptimalDataAlignment@?$CFB_CipherTemplate@V?$AbstractPolicyHolder@VCFB_CipherAbstractPolicy@CryptoPP@@VCFB_ModePolicy@2@@CryptoPP@@@CryptoPP@@UBEIXZ 429095c1 f i ccm.obj
 0001:000085d0       ?OptimalBlockSize@?$AdditiveCipherTemplate@V?$AbstractPolicyHolder@UAdditiveCipherAbstractPolicy@CryptoPP@@VOFB_ModePolicy@2@@CryptoPP@@@CryptoPP@@UBEIXZ 429095d0 f i ccm.obj
 0001:000085df       ?IsRandomAccess@?$AdditiveCipherTemplate@V?$AbstractPolicyHolder@UAdditiveCipherAbstractPolicy@CryptoPP@@VOFB_ModePolicy@2@@CryptoPP@@@CryptoPP@@UBE_NXZ 429095df f i ccm.obj
 0001:000085ee       ??0SymmetricCipher@CryptoPP@@QAE@XZ 429095ee f i ccm.obj
 0001:000085ee       ??0BlockCipher@CryptoPP@@QAE@XZ 429095ee f i cryptlib.obj
 0001:000085ee       ??0MessageAuthenticationCode@CryptoPP@@QAE@XZ 429095ee f i authenc.obj
 0001:000085fd       ?OptimalBlockSize@?$AdditiveCipherTemplate@V?$AbstractPolicyHolder@UAdditiveCipherAbstractPolicy@CryptoPP@@VCTR_ModePolicy@2@@CryptoPP@@@CryptoPP@@UBEIXZ 429095fd f i ccm.obj
 0001:0000860c       ?OptimalDataAlignment@?$AdditiveCipherTemplate@V?$AbstractPolicyHolder@UAdditiveCipherAbstractPolicy@CryptoPP@@VCTR_ModePolicy@2@@CryptoPP@@@CryptoPP@@UBEIXZ 4290960c f i ccm.obj
 0001:0000861b       ?IsRandomAccess@?$AdditiveCipherTemplate@V?$AbstractPolicyHolder@UAdditiveCipherAbstractPolicy@CryptoPP@@VCTR_ModePolicy@2@@CryptoPP@@@CryptoPP@@UBE_NXZ 4290961b f i ccm.obj
 0001:0000862a       ??0?$AbstractPolicyHolder@VCFB_CipherAbstractPolicy@CryptoPP@@VSymmetricCipher@2@@CryptoPP@@QAE@XZ 4290962a f i ccm.obj
 0001:0000862a       ??0?$TwoBases@VBlockCipher@CryptoPP@@UDES_EDE2_Info@2@@CryptoPP@@QAE@XZ 4290962a f i des.obj
 0001:0000862a       ??0?$TwoBases@VBlockCipher@CryptoPP@@URijndael_Info@2@@CryptoPP@@QAE@XZ 4290962a f i cryptlib.obj
 0001:0000862a       ??0?$TwoBases@VBlockCipher@CryptoPP@@UDES_EDE3_Info@2@@CryptoPP@@QAE@XZ 4290962a f i des.obj
 0001:0000862a       ??0?$TwoBases@VBlockCipher@CryptoPP@@USKIPJACK_Info@2@@CryptoPP@@QAE@XZ 4290962a f i dll.obj
 0001:0000862a       ??0?$AbstractPolicyHolder@UAdditiveCipherAbstractPolicy@CryptoPP@@VSymmetricCipher@2@@CryptoPP@@QAE@XZ 4290962a f i ccm.obj
 0001:00008636       ??4?$DL_GroupParameters@UEC2NPoint@CryptoPP@@@CryptoPP@@QAEAAV01@ABV01@@Z 42909636 f i dll.obj
 0001:00008636       ??4?$CFB_EncryptionTemplate@V?$AbstractPolicyHolder@VCFB_CipherAbstractPolicy@CryptoPP@@VSymmetricCipher@2@@CryptoPP@@@CryptoPP@@QAEAAV01@ABV01@@Z 42909636 f i ccm.obj
 0001:00008636       ??0?$CFB_CipherTemplate@V?$AbstractPolicyHolder@VCFB_CipherAbstractPolicy@CryptoPP@@VSymmetricCipher@2@@CryptoPP@@@CryptoPP@@QAE@ABV01@@Z 42909636 f i ccm.obj
 0001:00008636       ??4?$CFB_CipherTemplate@V?$AbstractPolicyHolder@VCFB_CipherAbstractPolicy@CryptoPP@@VSymmetricCipher@2@@CryptoPP@@@CryptoPP@@QAEAAV01@ABV01@@Z 42909636 f i ccm.obj
 0001:00008636       ??4?$DL_GroupParameters@UECPPoint@CryptoPP@@@CryptoPP@@QAEAAV01@ABV01@@Z 42909636 f i dll.obj
 0001:00008636       ??4?$CFB_DecryptionTemplate@V?$AbstractPolicyHolder@VCFB_CipherAbstractPolicy@CryptoPP@@VSymmetricCipher@2@@CryptoPP@@@CryptoPP@@QAEAAV01@ABV01@@Z 42909636 f i ccm.obj
 0001:00008636       ??0BufferedTransformation@CryptoPP@@QAE@ABV01@@Z 42909636 f i asn.obj
 0001:00008636       ??4?$DL_GroupParameters@VInteger@CryptoPP@@@CryptoPP@@QAEAAV01@ABV01@@Z 42909636 f i dh.obj
 0001:00008645       ?SetCipherWithIV@CipherModeBase@CryptoPP@@QAEXAAVBlockCipher@2@PBEH@Z 42909645 f i ccm.obj
 0001:00008687       ?GetRegisterBegin@CFB_ModePolicy@CryptoPP@@MAEPAEXZ 42909687 f i ccm.obj
 0001:00008691       ?CanIterate@CFB_ModePolicy@CryptoPP@@MBE_NXZ 42909691 f i ccm.obj
 0001:0000869d       ?GetBytesPerIteration@CTR_ModePolicy@CryptoPP@@MBEIXZ 4290969d f i ccm.obj
 0001:0000869d       ?GetBytesPerIteration@OFB_ModePolicy@CryptoPP@@EBEIXZ 4290969d f i ccm.obj
 0001:000086a1       ?OptimalBlockSize@ECB_OneWay@CryptoPP@@UBEIXZ 429096a1 f i ccm.obj
 0001:000086b5       ?MinLastBlockSize@CBC_CTS_Decryption@CryptoPP@@UBEIXZ 429096b5 f i ccm.obj
 0001:000086b5       ?MinLastBlockSize@CBC_CTS_Encryption@CryptoPP@@UBEIXZ 429096b5 f i ccm.obj
 0001:000086ba       ?MinKeyLength@GCM_Base@CryptoPP@@UBEIXZ 429096ba f i dll.obj
 0001:000086ba       ?MinKeyLength@CCM_Base@CryptoPP@@UBEIXZ 429096ba f i ccm.obj
 0001:000086c6       ?MaxKeyLength@GCM_Base@CryptoPP@@UBEIXZ 429096c6 f i dll.obj
 0001:000086c6       ?MaxKeyLength@CCM_Base@CryptoPP@@UBEIXZ 429096c6 f i ccm.obj
 0001:000086d2       ?DefaultKeyLength@GCM_Base@CryptoPP@@UBEIXZ 429096d2 f i dll.obj
 0001:000086d2       ?DefaultKeyLength@CCM_Base@CryptoPP@@UBEIXZ 429096d2 f i ccm.obj
 0001:000086de       ?GetValidKeyLength@CCM_Base@CryptoPP@@UBEII@Z 429096de f i ccm.obj
 0001:000086de       ?GetValidKeyLength@GCM_Base@CryptoPP@@UBEII@Z 429096de f i dll.obj
 0001:000086ea       ?IsValidKeyLength@CCM_Base@CryptoPP@@UBE_NI@Z 429096ea f i ccm.obj
 0001:000086ea       ?IsValidKeyLength@GCM_Base@CryptoPP@@UBE_NI@Z 429096ea f i dll.obj
 0001:000086f6       ?OptimalDataAlignment@CCM_Base@CryptoPP@@UBEIXZ 429096f6 f i ccm.obj
 0001:00008706       ?AuthenticationBlockSize@CCM_Base@CryptoPP@@MBEIXZ 42909706 f i ccm.obj
 0001:00008713       ?CBC_Buffer@CCM_Base@CryptoPP@@IAEPAEXZ 42909713 f i ccm.obj
 0001:00008713       ?HashBuffer@GCM_Base@CryptoPP@@IAEPAEXZ 42909713 f i dll.obj
 0001:0000871a       ?Resync@CCM_Base@CryptoPP@@MAEXPBEI@Z 4290971a f   ccm.obj
 0001:000087ab       ?AuthenticateBlocks@CCM_Base@CryptoPP@@MAEIPBEI@Z 429097ab f   ccm.obj
 0001:000087cf       ?AuthenticateLastFooterBlock@CCM_Base@CryptoPP@@MAEXPAEI@Z 429097cf f   ccm.obj
 0001:000087fc       ?CipherSetKey@?$ModePolicyCommonTemplate@VCFB_CipherAbstractPolicy@CryptoPP@@@CryptoPP@@EAEXABVNameValuePairs@2@PBEI@Z 429097fc f i ccm.obj
 0001:000087fc       ?CipherSetKey@?$ModePolicyCommonTemplate@UAdditiveCipherAbstractPolicy@CryptoPP@@@CryptoPP@@EAEXABVNameValuePairs@2@PBEI@Z 429097fc f i ccm.obj
 0001:00008848       ?IsAlignedOn@CryptoPP@@YA_NPBXI@Z 42909848 f i ccm.obj
 0001:00008884       ?WriteKeystream@AdditiveCipherAbstractPolicy@CryptoPP@@UAEXPAEI@Z 42909884 f i ccm.obj
 0001:000088b4       ??0?$SimpleKeyingInterfaceImpl@V?$TwoBases@VBlockCipher@CryptoPP@@URijndael_Info@2@@CryptoPP@@V12@@CryptoPP@@QAE@XZ 429098b4 f i cryptlib.obj
 0001:000088b4       ??0?$SimpleKeyingInterfaceImpl@V?$TwoBases@VBlockCipher@CryptoPP@@UDES_EDE3_Info@2@@CryptoPP@@V12@@CryptoPP@@QAE@XZ 429098b4 f i des.obj
 0001:000088b4       ??0?$SimpleKeyingInterfaceImpl@V?$TwoBases@VBlockCipher@CryptoPP@@USKIPJACK_Info@2@@CryptoPP@@V12@@CryptoPP@@QAE@XZ 429098b4 f i dll.obj
 0001:000088b4       ??0?$CFB_CipherTemplate@V?$AbstractPolicyHolder@VCFB_CipherAbstractPolicy@CryptoPP@@VSymmetricCipher@2@@CryptoPP@@@CryptoPP@@QAE@XZ 429098b4 f i ccm.obj
 0001:000088b4       ??0?$SimpleKeyingInterfaceImpl@V?$TwoBases@VBlockCipher@CryptoPP@@UDES_EDE2_Info@2@@CryptoPP@@V12@@CryptoPP@@QAE@XZ 429098b4 f i des.obj
 0001:000088c0       ??0?$AlgorithmImpl@V?$SimpleKeyingInterfaceImpl@V?$TwoBases@VBlockCipher@CryptoPP@@UDES_EDE2_Info@2@@CryptoPP@@V12@@CryptoPP@@V12@@CryptoPP@@QAE@XZ 429098c0 f i des.obj
 0001:000088c0       ??0?$AlgorithmImpl@V?$SimpleKeyingInterfaceImpl@V?$TwoBases@VBlockCipher@CryptoPP@@USKIPJACK_Info@2@@CryptoPP@@V12@@CryptoPP@@V12@@CryptoPP@@QAE@XZ 429098c0 f i dll.obj
 0001:000088c0       ??0?$CFB_DecryptionTemplate@V?$AbstractPolicyHolder@VCFB_CipherAbstractPolicy@CryptoPP@@VSymmetricCipher@2@@CryptoPP@@@CryptoPP@@QAE@XZ 429098c0 f i ccm.obj
 0001:000088c0       ??0?$CFB_EncryptionTemplate@V?$AbstractPolicyHolder@VCFB_CipherAbstractPolicy@CryptoPP@@VSymmetricCipher@2@@CryptoPP@@@CryptoPP@@QAE@XZ 429098c0 f i ccm.obj
 0001:000088c0       ??0?$AlgorithmImpl@V?$SimpleKeyingInterfaceImpl@V?$TwoBases@VBlockCipher@CryptoPP@@UDES_EDE3_Info@2@@CryptoPP@@V12@@CryptoPP@@V12@@CryptoPP@@QAE@XZ 429098c0 f i des.obj
 0001:000088c0       ??0?$AlgorithmImpl@V?$SimpleKeyingInterfaceImpl@V?$TwoBases@VBlockCipher@CryptoPP@@URijndael_Info@2@@CryptoPP@@V12@@CryptoPP@@V12@@CryptoPP@@QAE@XZ 429098c0 f i cryptlib.obj
 0001:000088cc       ?UncheckedSetKey@CBC_CTS_Encryption@CryptoPP@@MAEXPBEIABVNameValuePairs@2@@Z 429098cc f i ccm.obj
 0001:00008907       ??$ConditionalByteReverse@_K@CryptoPP@@YA_KW4ByteOrder@0@_K@Z 42909907 f i ccm.obj
 0001:00008927       ??$ConditionalByteReverse@G@CryptoPP@@YAGW4ByteOrder@0@G@Z 42909927 f i ccm.obj
 0001:0000893e       ??$ConditionalByteReverse@I@CryptoPP@@YAIW4ByteOrder@0@I@Z 4290993e f i ccm.obj
 0001:00008955       ??$PutWord@_K@CryptoPP@@YAX_NW4ByteOrder@0@PAE_KPBE@Z 42909955 f i ccm.obj
 0001:0000898f       ??$PutWord@G@CryptoPP@@YAX_NW4ByteOrder@0@PAEGPBE@Z 4290998f f i ccm.obj
 0001:000089b9       ??$PutWord@I@CryptoPP@@YAX_NW4ByteOrder@0@PAEIPBE@Z 429099b9 f i ccm.obj
 0001:000089e1       ??1?$ModePolicyCommonTemplate@VCFB_CipherAbstractPolicy@CryptoPP@@@CryptoPP@@UAE@XZ 429099e1 f i ccm.obj
 0001:000089e1       ??1CipherModeBase@CryptoPP@@UAE@XZ 429099e1 f i ccm.obj
 0001:000089e1       ??1?$ModePolicyCommonTemplate@UAdditiveCipherAbstractPolicy@CryptoPP@@@CryptoPP@@UAE@XZ 429099e1 f i ccm.obj
 0001:000089e1       ??1?$AbstractPolicyHolder@UAdditiveCipherAbstractPolicy@CryptoPP@@VOFB_ModePolicy@2@@CryptoPP@@UAE@XZ 429099e1 f i ccm.obj
 0001:000089e1       ??1OFB_ModePolicy@CryptoPP@@UAE@XZ 429099e1 f i ccm.obj
 0001:000089f0       ??1CFB_ModePolicy@CryptoPP@@UAE@XZ 429099f0 f i ccm.obj
 0001:00008a32       ??1CTR_ModePolicy@CryptoPP@@UAE@XZ 42909a32 f i ccm.obj
 0001:00008a74       ??1BlockOrientedCipherModeBase@CryptoPP@@UAE@XZ 42909a74 f i ccm.obj
 0001:00008ab6       ??1CBC_Encryption@CryptoPP@@UAE@XZ 42909ab6 f i ccm.obj
 0001:00008ab6       ??1?$CipherModeFinalTemplate_ExternalCipher@VCBC_Encryption@CryptoPP@@@CryptoPP@@UAE@XZ 42909ab6 f i ccm.obj
 0001:00008ab6       ??1?$CipherModeFinalTemplate_ExternalCipher@VECB_OneWay@CryptoPP@@@CryptoPP@@UAE@XZ 42909ab6 f i ccm.obj
 0001:00008ab6       ??1CBC_ModeBase@CryptoPP@@UAE@XZ 42909ab6 f i ccm.obj
 0001:00008ab6       ??1?$CipherModeFinalTemplate_ExternalCipher@VCBC_CTS_Encryption@CryptoPP@@@CryptoPP@@UAE@XZ 42909ab6 f i ccm.obj
 0001:00008ab6       ??1CBC_CTS_Encryption@CryptoPP@@UAE@XZ 42909ab6 f i ccm.obj
 0001:00008ab6       ??1ECB_OneWay@CryptoPP@@UAE@XZ 42909ab6 f i ccm.obj
 0001:00008abb       ??1CBC_Decryption@CryptoPP@@UAE@XZ 42909abb f i ccm.obj
 0001:00008af6       ??1?$CipherModeFinalTemplate_ExternalCipher@VCBC_CTS_Decryption@CryptoPP@@@CryptoPP@@UAE@XZ 42909af6 f i ccm.obj
 0001:00008af6       ??1CBC_CTS_Decryption@CryptoPP@@UAE@XZ 42909af6 f i ccm.obj
 0001:00008af6       ??1?$CipherModeFinalTemplate_ExternalCipher@VCBC_Decryption@CryptoPP@@@CryptoPP@@UAE@XZ 42909af6 f i ccm.obj
 0001:00008afb       ??_E?$CipherModeFinalTemplate_ExternalCipher@VECB_OneWay@CryptoPP@@@CryptoPP@@UAEPAXI@Z 42909afb f i ccm.obj
 0001:00008afb       ??_E?$CipherModeFinalTemplate_ExternalCipher@VCBC_Encryption@CryptoPP@@@CryptoPP@@UAEPAXI@Z 42909afb f i ccm.obj
 0001:00008b46       ??_E?$CipherModeFinalTemplate_ExternalCipher@VCBC_CTS_Encryption@CryptoPP@@@CryptoPP@@UAEPAXI@Z 42909b46 f i ccm.obj
 0001:00008b91       ??_E?$CipherModeFinalTemplate_ExternalCipher@VCBC_Decryption@CryptoPP@@@CryptoPP@@UAEPAXI@Z 42909b91 f i ccm.obj
 0001:00008b91       ??_E?$CipherModeFinalTemplate_ExternalCipher@VCBC_CTS_Decryption@CryptoPP@@@CryptoPP@@UAEPAXI@Z 42909b91 f i ccm.obj
 0001:00008bdc       ??1?$AbstractPolicyHolder@UAdditiveCipherAbstractPolicy@CryptoPP@@VCTR_ModePolicy@2@@CryptoPP@@UAE@XZ 42909bdc f i ccm.obj
 0001:00008be1       ??1?$AdditiveCipherTemplate@V?$AbstractPolicyHolder@UAdditiveCipherAbstractPolicy@CryptoPP@@VOFB_ModePolicy@2@@CryptoPP@@@CryptoPP@@UAE@XZ 42909be1 f i ccm.obj
 0001:00008c23       ??1?$AdditiveCipherTemplate@V?$AbstractPolicyHolder@UAdditiveCipherAbstractPolicy@CryptoPP@@VCTR_ModePolicy@2@@CryptoPP@@@CryptoPP@@UAE@XZ 42909c23 f i ccm.obj
 0001:00008c5e       ??1GCTR@GCM_Base@CryptoPP@@UAE@XZ 42909c5e f i dll.obj
 0001:00008c5e       ??1?$ConcretePolicyHolder@VEmpty@CryptoPP@@V?$AdditiveCipherTemplate@V?$AbstractPolicyHolder@UAdditiveCipherAbstractPolicy@CryptoPP@@VCTR_ModePolicy@2@@CryptoPP@@@2@UAdditiveCipherAbstractPolicy@2@@CryptoPP@@UAE@XZ 42909c5e f i ccm.obj
 0001:00008c5e       ??1?$CipherModeFinalTemplate_ExternalCipher@V?$ConcretePolicyHolder@VEmpty@CryptoPP@@V?$AdditiveCipherTemplate@V?$AbstractPolicyHolder@UAdditiveCipherAbstractPolicy@CryptoPP@@VCTR_ModePolicy@2@@CryptoPP@@@2@UAdditiveCipherAbstractPolicy@2@@CryptoPP@@@CryptoPP@@UAE@XZ 42909c5e f i ccm.obj
 0001:00008c63       ??_E?$ConcretePolicyHolder@VEmpty@CryptoPP@@V?$AdditiveCipherTemplate@V?$AbstractPolicyHolder@UAdditiveCipherAbstractPolicy@CryptoPP@@VCTR_ModePolicy@2@@CryptoPP@@@2@UAdditiveCipherAbstractPolicy@2@@CryptoPP@@UAEPAXI@Z 42909c63 f i ccm.obj
 0001:00008c63       ??_E?$CipherModeFinalTemplate_ExternalCipher@V?$ConcretePolicyHolder@VEmpty@CryptoPP@@V?$AdditiveCipherTemplate@V?$AbstractPolicyHolder@UAdditiveCipherAbstractPolicy@CryptoPP@@VCTR_ModePolicy@2@@CryptoPP@@@2@UAdditiveCipherAbstractPolicy@2@@CryptoPP@@@CryptoPP@@UAEPAXI@Z 42909c63 f i ccm.obj
 0001:00008cae       ??1CCM_Base@CryptoPP@@UAE@XZ 42909cae f i ccm.obj
 0001:00008cea       ?CipherResynchronize@AdditiveCipherAbstractPolicy@CryptoPP@@UAEXPAEPBEI@Z 42909cea f i ccm.obj
 0001:00008cea       ?CipherResynchronize@CFB_CipherAbstractPolicy@CryptoPP@@UAEXPBEI@Z 42909cea f i ccm.obj
 0001:00008d2c       ?SetFeedbackSize@CipherModeBase@CryptoPP@@MAEXI@Z 42909d2c f i ccm.obj
 0001:00008d89       ?AlgorithmName@CCM_Base@CryptoPP@@UBE?AV?$basic_string@DU?$char_traits@D@std@@V?$allocator@D@2@@std@@XZ 42909d89 f i ccm.obj
 0001:00008e01       ?AuthenticateLastHeaderBlock@CCM_Base@CryptoPP@@MAEXXZ 42909e01 f   ccm.obj
 0001:00008ea0       ?AuthenticateLastConfidentialBlock@CCM_Base@CryptoPP@@MAEXXZ 42909ea0 f   ccm.obj
 0001:00008f3f       ?AlgorithmName@?$CipherModeFinalTemplate_ExternalCipher@V?$ConcretePolicyHolder@VEmpty@CryptoPP@@V?$AdditiveCipherTemplate@V?$AbstractPolicyHolder@UAdditiveCipherAbstractPolicy@CryptoPP@@VCTR_ModePolicy@2@@CryptoPP@@@2@UAdditiveCipherAbstractPolicy@2@@CryptoPP@@@CryptoPP@@UBE?AV?$basic_string@DU?$char_traits@D@std@@V?$allocator@D@2@@std@@XZ 42909f3f f i ccm.obj
 0001:00009008       ?AlgorithmName@?$CipherModeFinalTemplate_ExternalCipher@VECB_OneWay@CryptoPP@@@CryptoPP@@UBE?AV?$basic_string@DU?$char_traits@D@std@@V?$allocator@D@2@@std@@XZ 4290a008 f i ccm.obj
 0001:000090d1       ?AlgorithmName@?$CipherModeFinalTemplate_ExternalCipher@VCBC_CTS_Encryption@CryptoPP@@@CryptoPP@@UBE?AV?$basic_string@DU?$char_traits@D@std@@V?$allocator@D@2@@std@@XZ 4290a0d1 f i ccm.obj
 0001:0000919a       ?AlgorithmName@?$CipherModeFinalTemplate_ExternalCipher@VCBC_CTS_Decryption@CryptoPP@@@CryptoPP@@UBE?AV?$basic_string@DU?$char_traits@D@std@@V?$allocator@D@2@@std@@XZ 4290a19a f i ccm.obj
 0001:0000919a       ?AlgorithmName@?$CipherModeFinalTemplate_ExternalCipher@VCBC_Decryption@CryptoPP@@@CryptoPP@@UBE?AV?$basic_string@DU?$char_traits@D@std@@V?$allocator@D@2@@std@@XZ 4290a19a f i ccm.obj
 0001:0000919a       ?AlgorithmName@?$CipherModeFinalTemplate_ExternalCipher@VCBC_Encryption@CryptoPP@@@CryptoPP@@UBE?AV?$basic_string@DU?$char_traits@D@std@@V?$allocator@D@2@@std@@XZ 4290a19a f i ccm.obj
 0001:00009263       ?Resynchronize@BlockOrientedCipherModeBase@CryptoPP@@UAEXPBEH@Z 4290a263 f i ccm.obj
 0001:00009288       ?UncheckedSpecifyDataLengths@CCM_Base@CryptoPP@@UAEX_K00@Z 4290a288 f   ccm.obj
 0001:000093f3       ??0?$AdditiveCipherTemplate@V?$AbstractPolicyHolder@UAdditiveCipherAbstractPolicy@CryptoPP@@VSymmetricCipher@2@@CryptoPP@@@CryptoPP@@QAE@XZ 4290a3f3 f i ccm.obj
 0001:00009418       ??0?$AdditiveCipherTemplate@V?$AbstractPolicyHolder@UAdditiveCipherAbstractPolicy@CryptoPP@@VSymmetricCipher@2@@CryptoPP@@@CryptoPP@@QAE@ABV01@@Z 4290a418 f i ccm.obj
 0001:00009439       ??0CipherModeBase@CryptoPP@@IAE@XZ 4290a439 f i ccm.obj
 0001:00009458       ??0CipherModeBase@CryptoPP@@QAE@ABV01@@Z 4290a458 f i ccm.obj
 0001:00009477       ??0CFB_ModePolicy@CryptoPP@@QAE@XZ 4290a477 f i ccm.obj
 0001:000094aa       ??0CFB_ModePolicy@CryptoPP@@QAE@ABV01@@Z 4290a4aa f i ccm.obj
 0001:000094ed       ??0CTR_ModePolicy@CryptoPP@@QAE@XZ 4290a4ed f i ccm.obj
 0001:00009520       ??0CTR_ModePolicy@CryptoPP@@QAE@ABV01@@Z 4290a520 f i ccm.obj
 0001:0000955d       ??0BlockOrientedCipherModeBase@CryptoPP@@QAE@XZ 4290a55d f i ccm.obj
 0001:00009590       ??0BlockOrientedCipherModeBase@CryptoPP@@QAE@ABV01@@Z 4290a590 f i ccm.obj
 0001:000095cd       ??0ECB_OneWay@CryptoPP@@QAE@ABV01@@Z 4290a5cd f i ccm.obj
 0001:000095cd       ??0CBC_Encryption@CryptoPP@@QAE@ABV01@@Z 4290a5cd f i ccm.obj
 0001:000095cd       ??0CBC_ModeBase@CryptoPP@@QAE@ABV01@@Z 4290a5cd f i ccm.obj
 0001:000095df       ??0CBC_CTS_Encryption@CryptoPP@@QAE@XZ 4290a5df f i ccm.obj
 0001:000095df       ??0ECB_OneWay@CryptoPP@@QAE@XZ 4290a5df f i ccm.obj
 0001:000095df       ??0CBC_Encryption@CryptoPP@@QAE@XZ 4290a5df f i ccm.obj
 0001:000095df       ??0CBC_ModeBase@CryptoPP@@QAE@XZ 4290a5df f i ccm.obj
 0001:000095eb       ??0CBC_CTS_Encryption@CryptoPP@@QAE@ABV01@@Z 4290a5eb f i ccm.obj
 0001:00009606       ??0CBC_Decryption@CryptoPP@@QAE@XZ 4290a606 f i ccm.obj
 0001:00009639       ??0CBC_Decryption@CryptoPP@@QAE@ABV01@@Z 4290a639 f i ccm.obj
 0001:00009676       ??0CBC_CTS_Decryption@CryptoPP@@QAE@XZ 4290a676 f i ccm.obj
 0001:00009682       ??0CBC_CTS_Decryption@CryptoPP@@QAE@ABV01@@Z 4290a682 f i ccm.obj
 0001:00009694       ??0?$AbstractPolicyHolder@VCFB_CipherAbstractPolicy@CryptoPP@@VCFB_ModePolicy@2@@CryptoPP@@QAE@ABV01@@Z 4290a694 f i ccm.obj
 0001:000096a6       ??0?$CFB_CipherTemplate@V?$AbstractPolicyHolder@VCFB_CipherAbstractPolicy@CryptoPP@@VCFB_ModePolicy@2@@CryptoPP@@@CryptoPP@@QAE@ABV01@@Z 4290a6a6 f i ccm.obj
 0001:000096c1       ??0?$CFB_EncryptionTemplate@V?$AbstractPolicyHolder@VCFB_CipherAbstractPolicy@CryptoPP@@VCFB_ModePolicy@2@@CryptoPP@@@CryptoPP@@QAE@XZ 4290a6c1 f i ccm.obj
 0001:000096c1       ??0?$CFB_CipherTemplate@V?$AbstractPolicyHolder@VCFB_CipherAbstractPolicy@CryptoPP@@VCFB_ModePolicy@2@@CryptoPP@@@CryptoPP@@QAE@XZ 4290a6c1 f i ccm.obj
 0001:000096c1       ??0?$CFB_DecryptionTemplate@V?$AbstractPolicyHolder@VCFB_CipherAbstractPolicy@CryptoPP@@VCFB_ModePolicy@2@@CryptoPP@@@CryptoPP@@QAE@XZ 4290a6c1 f i ccm.obj
 0001:000096c1       ??0?$AbstractPolicyHolder@VCFB_CipherAbstractPolicy@CryptoPP@@VCFB_ModePolicy@2@@CryptoPP@@QAE@XZ 4290a6c1 f i ccm.obj
 0001:000096cd       ??0?$CFB_DecryptionTemplate@V?$AbstractPolicyHolder@VCFB_CipherAbstractPolicy@CryptoPP@@VCFB_ModePolicy@2@@CryptoPP@@@CryptoPP@@QAE@ABV01@@Z 4290a6cd f i ccm.obj
 0001:000096cd       ??0?$CFB_EncryptionTemplate@V?$AbstractPolicyHolder@VCFB_CipherAbstractPolicy@CryptoPP@@VCFB_ModePolicy@2@@CryptoPP@@@CryptoPP@@QAE@ABV01@@Z 4290a6cd f i ccm.obj
 0001:000096df       ??0?$ModePolicyCommonTemplate@UAdditiveCipherAbstractPolicy@CryptoPP@@@CryptoPP@@QAE@ABV01@@Z 4290a6df f i ccm.obj
 0001:000096df       ??0OFB_ModePolicy@CryptoPP@@QAE@ABV01@@Z 4290a6df f i ccm.obj
 0001:000096df       ??0?$AbstractPolicyHolder@UAdditiveCipherAbstractPolicy@CryptoPP@@VOFB_ModePolicy@2@@CryptoPP@@QAE@ABV01@@Z 4290a6df f i ccm.obj
 0001:000096df       ??0?$ModePolicyCommonTemplate@VCFB_CipherAbstractPolicy@CryptoPP@@@CryptoPP@@QAE@ABV01@@Z 4290a6df f i ccm.obj
 0001:000096f1       ??0?$ModePolicyCommonTemplate@UAdditiveCipherAbstractPolicy@CryptoPP@@@CryptoPP@@QAE@XZ 4290a6f1 f i ccm.obj
 0001:000096f1       ??0?$AbstractPolicyHolder@UAdditiveCipherAbstractPolicy@CryptoPP@@VOFB_ModePolicy@2@@CryptoPP@@QAE@XZ 4290a6f1 f i ccm.obj
 0001:000096f1       ??0OFB_ModePolicy@CryptoPP@@QAE@XZ 4290a6f1 f i ccm.obj
 0001:000096f1       ??0?$ModePolicyCommonTemplate@VCFB_CipherAbstractPolicy@CryptoPP@@@CryptoPP@@QAE@XZ 4290a6f1 f i ccm.obj
 0001:000096fd       ??0?$AdditiveCipherTemplate@V?$AbstractPolicyHolder@UAdditiveCipherAbstractPolicy@CryptoPP@@VOFB_ModePolicy@2@@CryptoPP@@@CryptoPP@@QAE@XZ 4290a6fd f i ccm.obj
 0001:0000973a       ??0?$AdditiveCipherTemplate@V?$AbstractPolicyHolder@UAdditiveCipherAbstractPolicy@CryptoPP@@VOFB_ModePolicy@2@@CryptoPP@@@CryptoPP@@QAE@ABV01@@Z 4290a73a f i ccm.obj
 0001:0000977d       ??0?$AbstractPolicyHolder@UAdditiveCipherAbstractPolicy@CryptoPP@@VCTR_ModePolicy@2@@CryptoPP@@QAE@ABV01@@Z 4290a77d f i ccm.obj
 0001:0000978f       ??0?$AbstractPolicyHolder@UAdditiveCipherAbstractPolicy@CryptoPP@@VCTR_ModePolicy@2@@CryptoPP@@QAE@XZ 4290a78f f i ccm.obj
 0001:0000979b       ??0?$AdditiveCipherTemplate@V?$AbstractPolicyHolder@UAdditiveCipherAbstractPolicy@CryptoPP@@VCTR_ModePolicy@2@@CryptoPP@@@CryptoPP@@QAE@XZ 4290a79b f i ccm.obj
 0001:000097d8       ??0?$AdditiveCipherTemplate@V?$AbstractPolicyHolder@UAdditiveCipherAbstractPolicy@CryptoPP@@VCTR_ModePolicy@2@@CryptoPP@@@CryptoPP@@QAE@ABV01@@Z 4290a7d8 f i ccm.obj
 0001:0000981b       ??0?$ConcretePolicyHolder@VEmpty@CryptoPP@@V?$AdditiveCipherTemplate@V?$AbstractPolicyHolder@UAdditiveCipherAbstractPolicy@CryptoPP@@VCTR_ModePolicy@2@@CryptoPP@@@2@UAdditiveCipherAbstractPolicy@2@@CryptoPP@@QAE@ABV01@@Z 4290a81b f i ccm.obj
 0001:00009848       ?OptimalDataAlignment@HashTransformation@CryptoPP@@UBEIXZ 4290a848 f i cryptlib.obj
 0001:00009848       ?GetByteOrder@?$IteratedHash@IU?$EnumToType@W4ByteOrder@CryptoPP@@$00@CryptoPP@@$0EA@VHashTransformation@2@@CryptoPP@@UBE?AW4ByteOrder@2@XZ 4290a848 f i cryptlib.obj
 0001:00009848       ?GetAlignment@AdditiveCipherAbstractPolicy@CryptoPP@@UBEIXZ 4290a848 f i ccm.obj
 0001:00009848       ?length@charNode@@UBEHXZ   4290a848 f i LIBCMT:undname.obj
 0001:00009848       ?do_encoding@codecvt_base@std@@MBEHXZ 4290a848 f i files.obj
 0001:00009848       ?OptimalDataAlignment@Base@SKIPJACK@CryptoPP@@UBEIXZ 4290a848 f i dll.obj
 0001:00009848       ?OptimalNumberOfParallelBlocks@BlockTransformation@CryptoPP@@UBEIXZ 4290a848 f i des.obj
 0001:00009848       ?do_max_length@codecvt_base@std@@MBEHXZ 4290a848 f i files.obj
 0001:00009848       ?OptimalDataAlignment@StreamTransformation@CryptoPP@@UBEIXZ 4290a848 f i cryptlib.obj
 0001:00009848       ?OptimalDataAlignment@BlockTransformation@CryptoPP@@UBEIXZ 4290a848 f i cryptlib.obj
 0001:00009848       ?GetByteOrder@?$IteratedHash@_KU?$EnumToType@W4ByteOrder@CryptoPP@@$00@CryptoPP@@$0IA@VHashTransformation@2@@CryptoPP@@UBE?AW4ByteOrder@2@XZ 4290a848 f i cryptlib.obj
 0001:00009848       ?MinIVLength@GCM_Base@CryptoPP@@UBEIXZ 4290a848 f i dll.obj
 0001:00009848       ?MandatoryBlockSize@StreamTransformation@CryptoPP@@UBEIXZ 4290a848 f i ccm.obj
 0001:00009848       ?OptimalBlockSize@HashTransformation@CryptoPP@@UBEIXZ 4290a848 f i dh.obj
 0001:00009848       ?IVRequirement@CFB_ModePolicy@CryptoPP@@UBE?AW4IV_Requirement@SimpleKeyingInterface@2@XZ 4290a848 f i ccm.obj
 0001:00009848       ?OptimalDataAlignment@?$IteratedHashBase@_KVHashTransformation@CryptoPP@@@CryptoPP@@UBEIXZ 4290a848 f i cryptlib.obj
 0001:00009848       ?GetFieldType@DL_GroupParameters_GFP@CryptoPP@@MBEHXZ 4290a848 f i dh.obj
 0001:00009848       ?IVRequirement@CTR_ModePolicy@CryptoPP@@UBE?AW4IV_Requirement@SimpleKeyingInterface@2@XZ 4290a848 f i ccm.obj
 0001:00009848       ?OptimalDataAlignment@?$IteratedHashBase@IVHashTransformation@CryptoPP@@@CryptoPP@@UBEIXZ 4290a848 f i cryptlib.obj
 0001:0000984c       ??_E?$ConcretePolicyHolder@VEmpty@CryptoPP@@V?$AdditiveCipherTemplate@V?$AbstractPolicyHolder@UAdditiveCipherAbstractPolicy@CryptoPP@@VCTR_ModePolicy@2@@CryptoPP@@@2@UAdditiveCipherAbstractPolicy@2@@CryptoPP@@W3AEPAXI@Z 4290a84c f i ccm.obj
 0001:0000984c       ??_E?$CipherModeFinalTemplate_ExternalCipher@V?$ConcretePolicyHolder@VEmpty@CryptoPP@@V?$AdditiveCipherTemplate@V?$AbstractPolicyHolder@UAdditiveCipherAbstractPolicy@CryptoPP@@VCTR_ModePolicy@2@@CryptoPP@@@2@UAdditiveCipherAbstractPolicy@2@@CryptoPP@@@CryptoPP@@W3AEPAXI@Z 4290a84c f i ccm.obj
 0001:00009854       ??_E?$CipherModeFinalTemplate_ExternalCipher@V?$ConcretePolicyHolder@VEmpty@CryptoPP@@V?$AdditiveCipherTemplate@V?$AbstractPolicyHolder@UAdditiveCipherAbstractPolicy@CryptoPP@@VCTR_ModePolicy@2@@CryptoPP@@@2@UAdditiveCipherAbstractPolicy@2@@CryptoPP@@@CryptoPP@@WBI@AEPAXI@Z 4290a854 f i ccm.obj
 0001:00009854       ??_E?$ConcretePolicyHolder@VEmpty@CryptoPP@@V?$AdditiveCipherTemplate@V?$AbstractPolicyHolder@UAdditiveCipherAbstractPolicy@CryptoPP@@VCTR_ModePolicy@2@@CryptoPP@@@2@UAdditiveCipherAbstractPolicy@2@@CryptoPP@@WBI@AEPAXI@Z 4290a854 f i ccm.obj
 0001:0000985c       ??_E?$CipherModeFinalTemplate_ExternalCipher@V?$ConcretePolicyHolder@VEmpty@CryptoPP@@V?$AdditiveCipherTemplate@V?$AbstractPolicyHolder@UAdditiveCipherAbstractPolicy@CryptoPP@@VCTR_ModePolicy@2@@CryptoPP@@@2@UAdditiveCipherAbstractPolicy@2@@CryptoPP@@@CryptoPP@@WCI@AEPAXI@Z 4290a85c f i ccm.obj
 0001:0000985c       ??_E?$ConcretePolicyHolder@VEmpty@CryptoPP@@V?$AdditiveCipherTemplate@V?$AbstractPolicyHolder@UAdditiveCipherAbstractPolicy@CryptoPP@@VCTR_ModePolicy@2@@CryptoPP@@@2@UAdditiveCipherAbstractPolicy@2@@CryptoPP@@WCI@AEPAXI@Z 4290a85c f i ccm.obj
 0001:00009864       ?IncorporateEntropy@RandomNumberGenerator@CryptoPP@@UAEXPBEI@Z 4290a864 f i ccm.obj
 0001:000098a6       ??0?$ConcretePolicyHolder@VEmpty@CryptoPP@@V?$AdditiveCipherTemplate@V?$AbstractPolicyHolder@UAdditiveCipherAbstractPolicy@CryptoPP@@VCTR_ModePolicy@2@@CryptoPP@@@2@UAdditiveCipherAbstractPolicy@2@@CryptoPP@@QAE@XZ 4290a8a6 f i ccm.obj
 0001:000098cd       ??0?$CipherModeFinalTemplate_ExternalCipher@V?$ConcretePolicyHolder@VEmpty@CryptoPP@@V?$AdditiveCipherTemplate@V?$AbstractPolicyHolder@UAdditiveCipherAbstractPolicy@CryptoPP@@VCTR_ModePolicy@2@@CryptoPP@@@2@UAdditiveCipherAbstractPolicy@2@@CryptoPP@@@CryptoPP@@QAE@ABV01@@Z 4290a8cd f i ccm.obj
 0001:000098fa       ?AlgorithmName@?$CipherModeFinalTemplate_ExternalCipher@V?$ConcretePolicyHolder@VEmpty@CryptoPP@@V?$AdditiveCipherTemplate@V?$AbstractPolicyHolder@UAdditiveCipherAbstractPolicy@CryptoPP@@VCTR_ModePolicy@2@@CryptoPP@@@2@UAdditiveCipherAbstractPolicy@2@@CryptoPP@@@CryptoPP@@WCE@BE?AV?$basic_string@DU?$char_traits@D@std@@V?$allocator@D@2@@std@@XZ 4290a8fa f i ccm.obj
 0001:00009902       ??0?$CipherModeFinalTemplate_ExternalCipher@VECB_OneWay@CryptoPP@@@CryptoPP@@QAE@ABV01@@Z 4290a902 f i ccm.obj
 0001:00009921       ??_E?$CipherModeFinalTemplate_ExternalCipher@VECB_OneWay@CryptoPP@@@CryptoPP@@W3AEPAXI@Z 4290a921 f i ccm.obj
 0001:00009921       ??_E?$CipherModeFinalTemplate_ExternalCipher@VCBC_Encryption@CryptoPP@@@CryptoPP@@W3AEPAXI@Z 4290a921 f i ccm.obj
 0001:00009929       ?Seek@StreamTransformation@CryptoPP@@UAEX_K@Z 4290a929 f i ccm.obj
 0001:00009929       ?SeekToIteration@AdditiveCipherAbstractPolicy@CryptoPP@@UAEX_K@Z 4290a929 f i ccm.obj
 0001:0000996b       ??0?$CipherModeFinalTemplate_ExternalCipher@VCBC_Encryption@CryptoPP@@@CryptoPP@@QAE@ABV01@@Z 4290a96b f i ccm.obj
 0001:0000998a       ??0?$CipherModeFinalTemplate_ExternalCipher@VCBC_Decryption@CryptoPP@@@CryptoPP@@QAE@ABV01@@Z 4290a98a f i ccm.obj
 0001:000099a9       ??_E?$CipherModeFinalTemplate_ExternalCipher@VCBC_Decryption@CryptoPP@@@CryptoPP@@W3AEPAXI@Z 4290a9a9 f i ccm.obj
 0001:000099a9       ??_E?$CipherModeFinalTemplate_ExternalCipher@VCBC_CTS_Decryption@CryptoPP@@@CryptoPP@@W3AEPAXI@Z 4290a9a9 f i ccm.obj
 0001:000099b1       ??0?$CipherModeFinalTemplate_ExternalCipher@VCBC_CTS_Encryption@CryptoPP@@@CryptoPP@@QAE@ABV01@@Z 4290a9b1 f i ccm.obj
 0001:000099d0       ??_E?$CipherModeFinalTemplate_ExternalCipher@VCBC_CTS_Encryption@CryptoPP@@@CryptoPP@@W3AEPAXI@Z 4290a9d0 f i ccm.obj
 0001:000099d8       ??0?$CipherModeFinalTemplate_ExternalCipher@VCBC_CTS_Decryption@CryptoPP@@@CryptoPP@@QAE@ABV01@@Z 4290a9d8 f i ccm.obj
 0001:000099f7       ??0CCM_Base@CryptoPP@@QAE@ABV01@@Z 4290a9f7 f i ccm.obj
 0001:00009a58       ??0?$CipherModeFinalTemplate_ExternalCipher@V?$ConcretePolicyHolder@VEmpty@CryptoPP@@V?$AdditiveCipherTemplate@V?$AbstractPolicyHolder@UAdditiveCipherAbstractPolicy@CryptoPP@@VCTR_ModePolicy@2@@CryptoPP@@@2@UAdditiveCipherAbstractPolicy@2@@CryptoPP@@@CryptoPP@@QAE@XZ 4290aa58 f i ccm.obj
 0001:00009a7f       ??0CCM_Base@CryptoPP@@QAE@XZ 4290aa7f f i ccm.obj
 0001:00009ab7       ?Grow@?$SecBlock@EV?$AllocatorWithCleanup@E$00@CryptoPP@@@CryptoPP@@QAEXI@Z 4290aab7 f i ccm.obj
 0001:00009ae2       ?ResizeBuffers@CipherModeBase@CryptoPP@@MAEXXZ 4290aae2 f i ccm.obj
 0001:00009afb       ?ResizeBuffers@BlockOrientedCipherModeBase@CryptoPP@@MAEXXZ 4290aafb f i ccm.obj
 0001:00009b10       ?SetKey@ECB_OneWay@CryptoPP@@UAEXPBEIABVNameValuePairs@2@@Z 4290ab10 f i ccm.obj
 0001:00009b32       ?ResizeBuffers@CBC_Decryption@CryptoPP@@MAEXXZ 4290ab32 f i ccm.obj
 0001:00009b47       ?SetKeyWithoutResync@CCM_Base@CryptoPP@@MAEXPBEIABVNameValuePairs@2@@Z 4290ab47 f   ccm.obj
 0001:00009c57       ??4?$AdditiveCipherTemplate@V?$AbstractPolicyHolder@UAdditiveCipherAbstractPolicy@CryptoPP@@VSymmetricCipher@2@@CryptoPP@@@CryptoPP@@QAEAAV01@ABV01@@Z 4290ac57 f i ccm.obj
 0001:00009c78       ??4CipherModeBase@CryptoPP@@QAEAAV01@ABV01@@Z 4290ac78 f i ccm.obj
 0001:00009c97       ??4CFB_ModePolicy@CryptoPP@@QAEAAV01@ABV01@@Z 4290ac97 f i ccm.obj
 0001:00009cbe       ??4CTR_ModePolicy@CryptoPP@@QAEAAV01@ABV01@@Z 4290acbe f i ccm.obj
 0001:00009cdf       ??4BlockOrientedCipherModeBase@CryptoPP@@QAEAAV01@ABV01@@Z 4290acdf f i ccm.obj
 0001:00009d00       ??4CBC_CTS_Encryption@CryptoPP@@QAEAAV01@ABV01@@Z 4290ad00 f i ccm.obj
 0001:00009d1b       ??4CBC_Decryption@CryptoPP@@QAEAAV01@ABV01@@Z 4290ad1b f i ccm.obj
 0001:00009d3c       ??4?$AbstractPolicyHolder@VCFB_CipherAbstractPolicy@CryptoPP@@VCFB_ModePolicy@2@@CryptoPP@@QAEAAV01@ABV01@@Z 4290ad3c f i ccm.obj
 0001:00009d4e       ??4?$CFB_CipherTemplate@V?$AbstractPolicyHolder@VCFB_CipherAbstractPolicy@CryptoPP@@VCFB_ModePolicy@2@@CryptoPP@@@CryptoPP@@QAEAAV01@ABV01@@Z 4290ad4e f i ccm.obj
 0001:00009d69       ??4?$CFB_DecryptionTemplate@V?$AbstractPolicyHolder@VCFB_CipherAbstractPolicy@CryptoPP@@VCFB_ModePolicy@2@@CryptoPP@@@CryptoPP@@QAEAAV01@ABV01@@Z 4290ad69 f i ccm.obj
 0001:00009d69       ??4?$CFB_EncryptionTemplate@V?$AbstractPolicyHolder@VCFB_CipherAbstractPolicy@CryptoPP@@VCFB_ModePolicy@2@@CryptoPP@@@CryptoPP@@QAEAAV01@ABV01@@Z 4290ad69 f i ccm.obj
 0001:00009d7b       ??4?$ModePolicyCommonTemplate@VCFB_CipherAbstractPolicy@CryptoPP@@@CryptoPP@@QAEAAV01@ABV01@@Z 4290ad7b f i ccm.obj
 0001:00009d7b       ??4?$ModePolicyCommonTemplate@UAdditiveCipherAbstractPolicy@CryptoPP@@@CryptoPP@@QAEAAV01@ABV01@@Z 4290ad7b f i ccm.obj
 0001:00009d7b       ??4?$AbstractPolicyHolder@UAdditiveCipherAbstractPolicy@CryptoPP@@VOFB_ModePolicy@2@@CryptoPP@@QAEAAV01@ABV01@@Z 4290ad7b f i ccm.obj
 0001:00009d7b       ??4OFB_ModePolicy@CryptoPP@@QAEAAV01@ABV01@@Z 4290ad7b f i ccm.obj
 0001:00009d8d       ??4?$AdditiveCipherTemplate@V?$AbstractPolicyHolder@UAdditiveCipherAbstractPolicy@CryptoPP@@VOFB_ModePolicy@2@@CryptoPP@@@CryptoPP@@QAEAAV01@ABV01@@Z 4290ad8d f i ccm.obj
 0001:00009db4       ??4?$AbstractPolicyHolder@UAdditiveCipherAbstractPolicy@CryptoPP@@VCTR_ModePolicy@2@@CryptoPP@@QAEAAV01@ABV01@@Z 4290adb4 f i ccm.obj
 0001:00009dc6       ??4?$AdditiveCipherTemplate@V?$AbstractPolicyHolder@UAdditiveCipherAbstractPolicy@CryptoPP@@VCTR_ModePolicy@2@@CryptoPP@@@CryptoPP@@QAEAAV01@ABV01@@Z 4290adc6 f i ccm.obj
 0001:00009ded       ??4CBC_Encryption@CryptoPP@@QAEAAV01@ABV01@@Z 4290aded f i ccm.obj
 0001:00009ded       ??4?$CipherModeFinalTemplate_ExternalCipher@VECB_OneWay@CryptoPP@@@CryptoPP@@QAEAAV01@ABV01@@Z 4290aded f i ccm.obj
 0001:00009ded       ??4?$CipherModeFinalTemplate_ExternalCipher@VCBC_Encryption@CryptoPP@@@CryptoPP@@QAEAAV01@ABV01@@Z 4290aded f i ccm.obj
 0001:00009ded       ??4ECB_OneWay@CryptoPP@@QAEAAV01@ABV01@@Z 4290aded f i ccm.obj
 0001:00009ded       ??4CBC_ModeBase@CryptoPP@@QAEAAV01@ABV01@@Z 4290aded f i ccm.obj
 0001:00009dff       ??4?$CipherModeFinalTemplate_ExternalCipher@VCBC_CTS_Encryption@CryptoPP@@@CryptoPP@@QAEAAV01@ABV01@@Z 4290adff f i ccm.obj
 0001:00009e11       ??4?$CipherModeFinalTemplate_ExternalCipher@VCBC_Decryption@CryptoPP@@@CryptoPP@@QAEAAV01@ABV01@@Z 4290ae11 f i ccm.obj
 0001:00009e11       ??4?$CipherModeFinalTemplate_ExternalCipher@VCBC_CTS_Decryption@CryptoPP@@@CryptoPP@@QAEAAV01@ABV01@@Z 4290ae11 f i ccm.obj
 0001:00009e11       ??4CBC_CTS_Decryption@CryptoPP@@QAEAAV01@ABV01@@Z 4290ae11 f i ccm.obj
 0001:00009e23       ??4CCM_Base@CryptoPP@@QAEAAV01@ABV01@@Z 4290ae23 f i ccm.obj
 0001:00009e68       ?Flush@?$Unflushable@VFilter@CryptoPP@@@CryptoPP@@UAE_N_NH0@Z 4290ae68 f i asn.obj
 0001:00009e68       ?Flush@?$Unflushable@V?$Multichannel@VFilter@CryptoPP@@@CryptoPP@@@CryptoPP@@UAE_N_NH0@Z 4290ae68 f i dll.obj
 0001:00009e68       ?Flush@?$Multichannel@VSink@CryptoPP@@@CryptoPP@@UAE_N_NH0@Z 4290ae68 f i channels.obj
 0001:00009e68       ?Flush@?$Multichannel@VFilter@CryptoPP@@@CryptoPP@@UAE_N_NH0@Z 4290ae68 f i dll.obj
 0001:00009e84       ?Put2@?$Multichannel@VFilter@CryptoPP@@@CryptoPP@@UAEIPBEIH_N@Z 4290ae84 f i dll.obj
 0001:00009e84       ?Put2@?$Multichannel@VSink@CryptoPP@@@CryptoPP@@UAEIPBEIH_N@Z 4290ae84 f i channels.obj
 0001:00009ea4       ?PutModifiable2@?$Multichannel@VFilter@CryptoPP@@@CryptoPP@@UAEIPAEIH_N@Z 4290aea4 f i dll.obj
 0001:00009ea4       ?PutModifiable2@?$Multichannel@VSink@CryptoPP@@@CryptoPP@@UAEIPAEIH_N@Z 4290aea4 f i channels.obj
 0001:00009ec4       ?ChannelPutModifiable2@?$Multichannel@VSink@CryptoPP@@@CryptoPP@@UAEIABV?$basic_string@DU?$char_traits@D@std@@V?$allocator@D@2@@std@@PAEIH_N@Z 4290aec4 f i channels.obj
 0001:00009ec4       ?ChannelPutModifiable2@?$Multichannel@VFilter@CryptoPP@@@CryptoPP@@UAEIABV?$basic_string@DU?$char_traits@D@std@@V?$allocator@D@2@@std@@PAEIH_N@Z 4290aec4 f i dll.obj
 0001:00009ed0       ?_Rrotate@?$_Tree@V?$_Tmap_traits@V?$basic_string@DU?$char_traits@D@std@@V?$allocator@D@2@@std@@U?$pair@PAVBufferedTransformation@CryptoPP@@V?$basic_string@DU?$char_traits@D@std@@V?$allocator@D@2@@std@@@2@U?$less@V?$basic_string@DU?$char_traits@D@std@@V?$allocator@D@2@@std@@@2@V?$allocator@U?$pair@$$CBV?$basic_string@DU?$char_traits@D@std@@V?$allocator@D@2@@std@@U?$pair@PAVBufferedTransformation@CryptoPP@@V?$basic_string@DU?$char_traits@D@std@@V?$allocator@D@2@@std@@@2@@std@@@2@$00@std@@@std@@IAEXPAU_Node@?$_Tree_nod@V?$_Tmap_traits@V?$basic_string@DU?$char_traits@D@std@@V?$allocator@D@2@@std@@U?$pair@PAVBufferedTransformation@CryptoPP@@V?$basic_string@DU?$char_traits@D@std@@V?$allocator@D@2@@std@@@2@U?$less@V?$basic_string@DU?$char_traits@D@std@@V?$allocator@D@2@@std@@@2@V?$allocator@U?$pair@$$CBV?$basic_string@DU?$char_traits@D@std@@V?$allocator@D@2@@std@@U?$pair@PAVBufferedTransformation@CryptoPP@@V?$basic_string@DU?$char_traits@D@std@@V?$allocator@D@2@@std@@@2@@std@@@2@$00@std@@@2@@Z 4290aed0 f i channels.obj
 0001:00009f14       ?_Inc@const_iterator@?$_Tree@V?$_Tmap_traits@V?$basic_string@DU?$char_traits@D@std@@V?$allocator@D@2@@std@@U?$pair@PAVBufferedTransformation@CryptoPP@@V?$basic_string@DU?$char_traits@D@std@@V?$allocator@D@2@@std@@@2@U?$less@V?$basic_string@DU?$char_traits@D@std@@V?$allocator@D@2@@std@@@2@V?$allocator@U?$pair@$$CBV?$basic_string@DU?$char_traits@D@std@@V?$allocator@D@2@@std@@U?$pair@PAVBufferedTransformation@CryptoPP@@V?$basic_string@DU?$char_traits@D@std@@V?$allocator@D@2@@std@@@2@@std@@@2@$00@std@@@std@@QAEXXZ 4290af14 f i channels.obj
 0001:00009f4a       ?ChannelPut@BufferedTransformation@CryptoPP@@QAEIABV?$basic_string@DU?$char_traits@D@std@@V?$allocator@D@2@@std@@PBEI_N@Z 4290af4a f i channels.obj
 0001:00009f67       ?End@ChannelRouteIterator@CryptoPP@@QBE_NXZ 4290af67 f   channels.obj
 0001:00009f7f       ?_Lrotate@?$_Tree@V?$_Tmap_traits@V?$basic_string@DU?$char_traits@D@std@@V?$allocator@D@2@@std@@U?$pair@PAVBufferedTransformation@CryptoPP@@V?$basic_string@DU?$char_traits@D@std@@V?$allocator@D@2@@std@@@2@U?$less@V?$basic_string@DU?$char_traits@D@std@@V?$allocator@D@2@@std@@@2@V?$allocator@U?$pair@$$CBV?$basic_string@DU?$char_traits@D@std@@V?$allocator@D@2@@std@@U?$pair@PAVBufferedTransformation@CryptoPP@@V?$basic_string@DU?$char_traits@D@std@@V?$allocator@D@2@@std@@@2@@std@@@2@$00@std@@@std@@IAEXPAU_Node@?$_Tree_nod@V?$_Tmap_traits@V?$basic_string@DU?$char_traits@D@std@@V?$allocator@D@2@@std@@U?$pair@PAVBufferedTransformation@CryptoPP@@V?$basic_string@DU?$char_traits@D@std@@V?$allocator@D@2@@std@@@2@U?$less@V?$basic_string@DU?$char_traits@D@std@@V?$allocator@D@2@@std@@@2@V?$allocator@U?$pair@$$CBV?$basic_string@DU?$char_traits@D@std@@V?$allocator@D@2@@std@@U?$pair@PAVBufferedTransformation@CryptoPP@@V?$basic_string@DU?$char_traits@D@std@@V?$allocator@D@2@@std@@@2@@std@@@2@$00@std@@@2@@Z 4290af7f f i channels.obj
 0001:00009fc1       ?compare@?$basic_string@DU?$char_traits@D@std@@V?$allocator@D@2@@std@@QBEHIIPBDI@Z 4290afc1 f i channels.obj
 0001:0000a02b       ??0?$CustomSignalPropagation@VSink@CryptoPP@@@CryptoPP@@QAE@XZ 4290b02b f i asn.obj
 0001:0000a02b       ??0?$Multichannel@VSink@CryptoPP@@@CryptoPP@@QAE@XZ 4290b02b f i channels.obj
 0001:0000a037       ?_Buynode@?$list@U?$pair@PAVBufferedTransformation@CryptoPP@@V?$value_ptr@V?$basic_string@DU?$char_traits@D@std@@V?$allocator@D@2@@std@@@2@@std@@V?$allocator@U?$pair@PAVBufferedTransformation@CryptoPP@@V?$value_ptr@V?$basic_string@DU?$char_traits@D@std@@V?$allocator@D@2@@std@@@2@@std@@@2@@std@@IAEPAU_Node@?$_List_nod@U?$pair@PAVBufferedTransformation@CryptoPP@@V?$value_ptr@V?$basic_string@DU?$char_traits@D@std@@V?$allocator@D@2@@std@@@2@@std@@V?$allocator@U?$pair@PAVBufferedTransformation@CryptoPP@@V?$value_ptr@V?$basic_string@DU?$char_traits@D@std@@V?$allocator@D@2@@std@@@2@@std@@@2@@2@XZ 4290b037 f i channels.obj
 0001:0000a04f       ?_Buynode@?$_Tree@V?$_Tmap_traits@V?$basic_string@DU?$char_traits@D@std@@V?$allocator@D@2@@std@@U?$pair@PAVBufferedTransformation@CryptoPP@@V?$basic_string@DU?$char_traits@D@std@@V?$allocator@D@2@@std@@@2@U?$less@V?$basic_string@DU?$char_traits@D@std@@V?$allocator@D@2@@std@@@2@V?$allocator@U?$pair@$$CBV?$basic_string@DU?$char_traits@D@std@@V?$allocator@D@2@@std@@U?$pair@PAVBufferedTransformation@CryptoPP@@V?$basic_string@DU?$char_traits@D@std@@V?$allocator@D@2@@std@@@2@@std@@@2@$00@std@@@std@@IAEPAU_Node@?$_Tree_nod@V?$_Tmap_traits@V?$basic_string@DU?$char_traits@D@std@@V?$allocator@D@2@@std@@U?$pair@PAVBufferedTransformation@CryptoPP@@V?$basic_string@DU?$char_traits@D@std@@V?$allocator@D@2@@std@@@2@U?$less@V?$basic_string@DU?$char_traits@D@std@@V?$allocator@D@2@@std@@@2@V?$allocator@U?$pair@$$CBV?$basic_string@DU?$char_traits@D@std@@V?$allocator@D@2@@std@@U?$pair@PAVBufferedTransformation@CryptoPP@@V?$basic_string@DU?$char_traits@D@std@@V?$allocator@D@2@@std@@@2@@std@@@2@$00@std@@@2@XZ 4290b04f f i channels.obj
 0001:0000a079       ?compare@?$basic_string@DU?$char_traits@D@std@@V?$allocator@D@2@@std@@QBEHABV12@@Z 4290b079 f i channels.obj
 0001:0000a09d       ??0ChannelRouteIterator@CryptoPP@@QAE@AAVChannelSwitch@1@@Z 4290b09d f i channels.obj
 0001:0000a0c2       ?Next@ChannelRouteIterator@CryptoPP@@QAEXXZ 4290b0c2 f   channels.obj
 0001:0000a0d9       ??1ChannelRouteIterator@CryptoPP@@QAE@XZ 4290b0d9 f i channels.obj
 0001:0000a0d9       ??1?$pair@PAVBufferedTransformation@CryptoPP@@V?$basic_string@DU?$char_traits@D@std@@V?$allocator@D@2@@std@@@std@@QAE@XZ 4290b0d9 f i channels.obj
 0001:0000a0e6       ??1?$pair@$$CBV?$basic_string@DU?$char_traits@D@std@@V?$allocator@D@2@@std@@U?$pair@PAVBufferedTransformation@CryptoPP@@V?$basic_string@DU?$char_traits@D@std@@V?$allocator@D@2@@std@@@2@@std@@QAE@XZ 4290b0e6 f i channels.obj
 0001:0000a102       ?_Init@?$_Tree@V?$_Tmap_traits@V?$basic_string@DU?$char_traits@D@std@@V?$allocator@D@2@@std@@U?$pair@PAVBufferedTransformation@CryptoPP@@V?$basic_string@DU?$char_traits@D@std@@V?$allocator@D@2@@std@@@2@U?$less@V?$basic_string@DU?$char_traits@D@std@@V?$allocator@D@2@@std@@@2@V?$allocator@U?$pair@$$CBV?$basic_string@DU?$char_traits@D@std@@V?$allocator@D@2@@std@@U?$pair@PAVBufferedTransformation@CryptoPP@@V?$basic_string@DU?$char_traits@D@std@@V?$allocator@D@2@@std@@@2@@std@@@2@$00@std@@@std@@IAEXXZ 4290b102 f i channels.obj
 0001:0000a127       ??$?MDU?$char_traits@D@std@@V?$allocator@D@1@@std@@YA_NABV?$basic_string@DU?$char_traits@D@std@@V?$allocator@D@2@@0@0@Z 4290b127 f i channels.obj
 0001:0000a13e       ??_G?$basic_string@DU?$char_traits@D@std@@V?$allocator@D@2@@std@@QAEPAXI@Z 4290b13e f i channels.obj
 0001:0000a15e       ??1_Node@?$_Tree_nod@V?$_Tmap_traits@V?$basic_string@DU?$char_traits@D@std@@V?$allocator@D@2@@std@@U?$pair@PAVBufferedTransformation@CryptoPP@@V?$basic_string@DU?$char_traits@D@std@@V?$allocator@D@2@@std@@@2@U?$less@V?$basic_string@DU?$char_traits@D@std@@V?$allocator@D@2@@std@@@2@V?$allocator@U?$pair@$$CBV?$basic_string@DU?$char_traits@D@std@@V?$allocator@D@2@@std@@U?$pair@PAVBufferedTransformation@CryptoPP@@V?$basic_string@DU?$char_traits@D@std@@V?$allocator@D@2@@std@@@2@@std@@@2@$00@std@@@std@@QAE@XZ 4290b15e f i channels.obj
 0001:0000a166       ?Destination@ChannelRouteIterator@CryptoPP@@QAEAAVBufferedTransformation@2@XZ 4290b166 f   channels.obj
 0001:0000a17a       ?Channel@ChannelRouteIterator@CryptoPP@@QAEABV?$basic_string@DU?$char_traits@D@std@@V?$allocator@D@2@@std@@XZ 4290b17a f   channels.obj
 0001:0000a195       ??0?$list@U?$pair@PAVBufferedTransformation@CryptoPP@@V?$value_ptr@V?$basic_string@DU?$char_traits@D@std@@V?$allocator@D@2@@std@@@2@@std@@V?$allocator@U?$pair@PAVBufferedTransformation@CryptoPP@@V?$value_ptr@V?$basic_string@DU?$char_traits@D@std@@V?$allocator@D@2@@std@@@2@@std@@@2@@std@@QAE@XZ 4290b195 f i channels.obj
 0001:0000a1a8       ??1?$member_ptr@V?$basic_string@DU?$char_traits@D@std@@V?$allocator@D@2@@std@@@CryptoPP@@QAE@XZ 4290b1a8 f i channels.obj
 0001:0000a1b6       ??1?$value_ptr@V?$basic_string@DU?$char_traits@D@std@@V?$allocator@D@2@@std@@@CryptoPP@@QAE@XZ 4290b1b6 f i channels.obj
 0001:0000a1bb       ??1?$pair@PAVBufferedTransformation@CryptoPP@@V?$value_ptr@V?$basic_string@DU?$char_traits@D@std@@V?$allocator@D@2@@std@@@2@@std@@QAE@XZ 4290b1bb f i channels.obj
 0001:0000a1c3       ?_Lbound@?$_Tree@V?$_Tmap_traits@V?$basic_string@DU?$char_traits@D@std@@V?$allocator@D@2@@std@@U?$pair@PAVBufferedTransformation@CryptoPP@@V?$basic_string@DU?$char_traits@D@std@@V?$allocator@D@2@@std@@@2@U?$less@V?$basic_string@DU?$char_traits@D@std@@V?$allocator@D@2@@std@@@2@V?$allocator@U?$pair@$$CBV?$basic_string@DU?$char_traits@D@std@@V?$allocator@D@2@@std@@U?$pair@PAVBufferedTransformation@CryptoPP@@V?$basic_string@DU?$char_traits@D@std@@V?$allocator@D@2@@std@@@2@@std@@@2@$00@std@@@std@@IBEPAU_Node@?$_Tree_nod@V?$_Tmap_traits@V?$basic_string@DU?$char_traits@D@std@@V?$allocator@D@2@@std@@U?$pair@PAVBufferedTransformation@CryptoPP@@V?$basic_string@DU?$char_traits@D@std@@V?$allocator@D@2@@std@@@2@U?$less@V?$basic_string@DU?$char_traits@D@std@@V?$allocator@D@2@@std@@@2@V?$allocator@U?$pair@$$CBV?$basic_string@DU?$char_traits@D@std@@V?$allocator@D@2@@std@@U?$pair@PAVBufferedTransformation@CryptoPP@@V?$basic_string@DU?$char_traits@D@std@@V?$allocator@D@2@@std@@@2@@std@@@2@$00@std@@@2@ABV?$basic_string@DU?$char_traits@D@std@@V?$allocator@D@2@@2@@Z 4290b1c3 f i channels.obj
 0001:0000a1f8       ?_Ubound@?$_Tree@V?$_Tmap_traits@V?$basic_string@DU?$char_traits@D@std@@V?$allocator@D@2@@std@@U?$pair@PAVBufferedTransformation@CryptoPP@@V?$basic_string@DU?$char_traits@D@std@@V?$allocator@D@2@@std@@@2@U?$less@V?$basic_string@DU?$char_traits@D@std@@V?$allocator@D@2@@std@@@2@V?$allocator@U?$pair@$$CBV?$basic_string@DU?$char_traits@D@std@@V?$allocator@D@2@@std@@U?$pair@PAVBufferedTransformation@CryptoPP@@V?$basic_string@DU?$char_traits@D@std@@V?$allocator@D@2@@std@@@2@@std@@@2@$00@std@@@std@@IBEPAU_Node@?$_Tree_nod@V?$_Tmap_traits@V?$basic_string@DU?$char_traits@D@std@@V?$allocator@D@2@@std@@U?$pair@PAVBufferedTransformation@CryptoPP@@V?$basic_string@DU?$char_traits@D@std@@V?$allocator@D@2@@std@@@2@U?$less@V?$basic_string@DU?$char_traits@D@std@@V?$allocator@D@2@@std@@@2@V?$allocator@U?$pair@$$CBV?$basic_string@DU?$char_traits@D@std@@V?$allocator@D@2@@std@@U?$pair@PAVBufferedTransformation@CryptoPP@@V?$basic_string@DU?$char_traits@D@std@@V?$allocator@D@2@@std@@@2@@std@@@2@$00@std@@@2@ABV?$basic_string@DU?$char_traits@D@std@@V?$allocator@D@2@@2@@Z 4290b1f8 f i channels.obj
 0001:0000a22d       ??1_Node@?$_List_nod@U?$pair@PAVBufferedTransformation@CryptoPP@@V?$value_ptr@V?$basic_string@DU?$char_traits@D@std@@V?$allocator@D@2@@std@@@2@@std@@V?$allocator@U?$pair@PAVBufferedTransformation@CryptoPP@@V?$value_ptr@V?$basic_string@DU?$char_traits@D@std@@V?$allocator@D@2@@std@@@2@@std@@@2@@std@@QAE@XZ 4290b22d f i channels.obj
 0001:0000a235       ??0ChannelRouteIterator@CryptoPP@@QAE@ABV01@@Z 4290b235 f i channels.obj
 0001:0000a272       ??_Gout_of_range@std@@UAEPAXI@Z 4290b272 f i channels.obj
 0001:0000a272       ??_Eout_of_range@std@@UAEPAXI@Z 4290b272 f i channels.obj
 0001:0000a28e       ??1out_of_range@std@@UAE@XZ 4290b28e f i channels.obj
 0001:0000a299       ??0?$value_ptr@V?$basic_string@DU?$char_traits@D@std@@V?$allocator@D@2@@std@@@CryptoPP@@QAE@ABV?$basic_string@DU?$char_traits@D@std@@V?$allocator@D@2@@std@@@Z 4290b299 f i channels.obj
 0001:0000a2d8       ??0?$pair@PAVBufferedTransformation@CryptoPP@@V?$basic_string@DU?$char_traits@D@std@@V?$allocator@D@2@@std@@@std@@QAE@ABQAVBufferedTransformation@CryptoPP@@ABV?$basic_string@DU?$char_traits@D@std@@V?$allocator@D@2@@1@@Z 4290b2d8 f i channels.obj
 0001:0000a2f5       ??0?$pair@PAVBufferedTransformation@CryptoPP@@V?$basic_string@DU?$char_traits@D@std@@V?$allocator@D@2@@std@@@std@@QAE@ABU01@@Z 4290b2f5 f i channels.obj
 0001:0000a312       ??0?$value_ptr@V?$basic_string@DU?$char_traits@D@std@@V?$allocator@D@2@@std@@@CryptoPP@@QAE@ABV01@@Z 4290b312 f i channels.obj
 0001:0000a35c       ??0?$pair@PAVBufferedTransformation@CryptoPP@@V?$value_ptr@V?$basic_string@DU?$char_traits@D@std@@V?$allocator@D@2@@std@@@2@@std@@QAE@ABU01@@Z 4290b35c f i channels.obj
 0001:0000a379       ??0?$pair@$$CBV?$basic_string@DU?$char_traits@D@std@@V?$allocator@D@2@@std@@U?$pair@PAVBufferedTransformation@CryptoPP@@V?$basic_string@DU?$char_traits@D@std@@V?$allocator@D@2@@std@@@2@@std@@QAE@ABU01@@Z 4290b379 f i channels.obj
 0001:0000a3b6       ?erase@?$_Tree@V?$_Tmap_traits@V?$basic_string@DU?$char_traits@D@std@@V?$allocator@D@2@@std@@U?$pair@PAVBufferedTransformation@CryptoPP@@V?$basic_string@DU?$char_traits@D@std@@V?$allocator@D@2@@std@@@2@U?$less@V?$basic_string@DU?$char_traits@D@std@@V?$allocator@D@2@@std@@@2@V?$allocator@U?$pair@$$CBV?$basic_string@DU?$char_traits@D@std@@V?$allocator@D@2@@std@@U?$pair@PAVBufferedTransformation@CryptoPP@@V?$basic_string@DU?$char_traits@D@std@@V?$allocator@D@2@@std@@@2@@std@@@2@$00@std@@@std@@QAE?AViterator@12@V312@@Z 4290b3b6 f i channels.obj
 0001:0000a643       ?equal_range@?$_Tree@V?$_Tmap_traits@V?$basic_string@DU?$char_traits@D@std@@V?$allocator@D@2@@std@@U?$pair@PAVBufferedTransformation@CryptoPP@@V?$basic_string@DU?$char_traits@D@std@@V?$allocator@D@2@@std@@@2@U?$less@V?$basic_string@DU?$char_traits@D@std@@V?$allocator@D@2@@std@@@2@V?$allocator@U?$pair@$$CBV?$basic_string@DU?$char_traits@D@std@@V?$allocator@D@2@@std@@U?$pair@PAVBufferedTransformation@CryptoPP@@V?$basic_string@DU?$char_traits@D@std@@V?$allocator@D@2@@std@@@2@@std@@@2@$00@std@@@std@@QAE?AU?$pair@Viterator@?$_Tree@V?$_Tmap_traits@V?$basic_string@DU?$char_traits@D@std@@V?$allocator@D@2@@std@@U?$pair@PAVBufferedTransformation@CryptoPP@@V?$basic_string@DU?$char_traits@D@std@@V?$allocator@D@2@@std@@@2@U?$less@V?$basic_string@DU?$char_traits@D@std@@V?$allocator@D@2@@std@@@2@V?$allocator@U?$pair@$$CBV?$basic_string@DU?$char_traits@D@std@@V?$allocator@D@2@@std@@U?$pair@PAVBufferedTransformation@CryptoPP@@V?$basic_string@DU?$char_traits@D@std@@V?$allocator@D@2@@std@@@2@@std@@@2@$00@std@@@std@@V123@@2@ABV?$basic_string@DU?$char_traits@D@std@@V?$allocator@D@2@@2@@Z 4290b643 f i channels.obj
 0001:0000a66d       ??0?$pair@PAVBufferedTransformation@CryptoPP@@V?$value_ptr@V?$basic_string@DU?$char_traits@D@std@@V?$allocator@D@2@@std@@@2@@std@@QAE@ABQAVBufferedTransformation@CryptoPP@@ABV?$value_ptr@V?$basic_string@DU?$char_traits@D@std@@V?$allocator@D@2@@std@@@3@@Z 4290b66d f i channels.obj
 0001:0000a68a       ??0?$pair@$$CBV?$basic_string@DU?$char_traits@D@std@@V?$allocator@D@2@@std@@U?$pair@PAVBufferedTransformation@CryptoPP@@V?$basic_string@DU?$char_traits@D@std@@V?$allocator@D@2@@std@@@2@@std@@QAE@ABV?$basic_string@DU?$char_traits@D@std@@V?$allocator@D@2@@1@ABU?$pair@PAVBufferedTransformation@CryptoPP@@V?$basic_string@DU?$char_traits@D@std@@V?$allocator@D@2@@std@@@1@@Z 4290b68a f i channels.obj
 0001:0000a6c3       ??0out_of_range@std@@QAE@ABV01@@Z 4290b6c3 f i channels.obj
 0001:0000a6db       ?_Erase@?$_Tree@V?$_Tmap_traits@V?$basic_string@DU?$char_traits@D@std@@V?$allocator@D@2@@std@@U?$pair@PAVBufferedTransformation@CryptoPP@@V?$basic_string@DU?$char_traits@D@std@@V?$allocator@D@2@@std@@@2@U?$less@V?$basic_string@DU?$char_traits@D@std@@V?$allocator@D@2@@std@@@2@V?$allocator@U?$pair@$$CBV?$basic_string@DU?$char_traits@D@std@@V?$allocator@D@2@@std@@U?$pair@PAVBufferedTransformation@CryptoPP@@V?$basic_string@DU?$char_traits@D@std@@V?$allocator@D@2@@std@@@2@@std@@@2@$00@std@@@std@@IAEXPAU_Node@?$_Tree_nod@V?$_Tmap_traits@V?$basic_string@DU?$char_traits@D@std@@V?$allocator@D@2@@std@@U?$pair@PAVBufferedTransformation@CryptoPP@@V?$basic_string@DU?$char_traits@D@std@@V?$allocator@D@2@@std@@@2@U?$less@V?$basic_string@DU?$char_traits@D@std@@V?$allocator@D@2@@std@@@2@V?$allocator@U?$pair@$$CBV?$basic_string@DU?$char_traits@D@std@@V?$allocator@D@2@@std@@U?$pair@PAVBufferedTransformation@CryptoPP@@V?$basic_string@DU?$char_traits@D@std@@V?$allocator@D@2@@std@@@2@@std@@@2@$00@std@@@2@@Z 4290b6db f i channels.obj
 0001:0000a714       ?_Incsize@?$list@U?$pair@PAVBufferedTransformation@CryptoPP@@V?$value_ptr@V?$basic_string@DU?$char_traits@D@std@@V?$allocator@D@2@@std@@@2@@std@@V?$allocator@U?$pair@PAVBufferedTransformation@CryptoPP@@V?$value_ptr@V?$basic_string@DU?$char_traits@D@std@@V?$allocator@D@2@@std@@@2@@std@@@2@@std@@IAEXI@Z 4290b714 f i channels.obj
 0001:0000a779       ??0_Node@?$_List_nod@U?$pair@PAVBufferedTransformation@CryptoPP@@V?$value_ptr@V?$basic_string@DU?$char_traits@D@std@@V?$allocator@D@2@@std@@@2@@std@@V?$allocator@U?$pair@PAVBufferedTransformation@CryptoPP@@V?$value_ptr@V?$basic_string@DU?$char_traits@D@std@@V?$allocator@D@2@@std@@@2@@std@@@2@@std@@QAE@PAU012@0ABU?$pair@PAVBufferedTransformation@CryptoPP@@V?$value_ptr@V?$basic_string@DU?$char_traits@D@std@@V?$allocator@D@2@@std@@@2@@2@@Z 4290b779 f i channels.obj
 0001:0000a79b       ??0_Node@?$_Tree_nod@V?$_Tmap_traits@V?$basic_string@DU?$char_traits@D@std@@V?$allocator@D@2@@std@@U?$pair@PAVBufferedTransformation@CryptoPP@@V?$basic_string@DU?$char_traits@D@std@@V?$allocator@D@2@@std@@@2@U?$less@V?$basic_string@DU?$char_traits@D@std@@V?$allocator@D@2@@std@@@2@V?$allocator@U?$pair@$$CBV?$basic_string@DU?$char_traits@D@std@@V?$allocator@D@2@@std@@U?$pair@PAVBufferedTransformation@CryptoPP@@V?$basic_string@DU?$char_traits@D@std@@V?$allocator@D@2@@std@@@2@@std@@@2@$00@std@@@std@@QAE@PAU012@00ABU?$pair@$$CBV?$basic_string@DU?$char_traits@D@std@@V?$allocator@D@2@@std@@U?$pair@PAVBufferedTransformation@CryptoPP@@V?$basic_string@DU?$char_traits@D@std@@V?$allocator@D@2@@std@@@2@@2@D@Z 4290b79b f i channels.obj
 0001:0000a7ce       ?Reset@ChannelRouteIterator@CryptoPP@@QAEXABV?$basic_string@DU?$char_traits@D@std@@V?$allocator@D@2@@std@@@Z 4290b7ce f   channels.obj
 0001:0000a825       ?ChannelPut2@ChannelSwitch@CryptoPP@@UAEIABV?$basic_string@DU?$char_traits@D@std@@V?$allocator@D@2@@std@@PBEIH_N@Z 4290b825 f   channels.obj
 0001:0000a897       ?ChannelFlush@ChannelSwitch@CryptoPP@@UAE_NABV?$basic_string@DU?$char_traits@D@std@@V?$allocator@D@2@@std@@_NH1@Z 4290b897 f   channels.obj
 0001:0000a906       ?ChannelMessageSeriesEnd@ChannelSwitch@CryptoPP@@UAE_NABV?$basic_string@DU?$char_traits@D@std@@V?$allocator@D@2@@std@@H_N@Z 4290b906 f   channels.obj
 0001:0000a96f       ?ChannelCreatePutSpace@ChannelSwitch@CryptoPP@@UAEPAEABV?$basic_string@DU?$char_traits@D@std@@V?$allocator@D@2@@std@@AAI@Z 4290b96f f   channels.obj
 0001:0000a9c9       ?ChannelPutModifiable2@ChannelSwitch@CryptoPP@@UAEIABV?$basic_string@DU?$char_traits@D@std@@V?$allocator@D@2@@std@@PAEIH_N@Z 4290b9c9 f   channels.obj
 0001:0000aa81       ?RemoveRoute@ChannelSwitch@CryptoPP@@QAEXABV?$basic_string@DU?$char_traits@D@std@@V?$allocator@D@2@@std@@AAVBufferedTransformation@2@0@Z 4290ba81 f   channels.obj
 0001:0000aadc       ?clear@?$_Tree@V?$_Tmap_traits@V?$basic_string@DU?$char_traits@D@std@@V?$allocator@D@2@@std@@U?$pair@PAVBufferedTransformation@CryptoPP@@V?$basic_string@DU?$char_traits@D@std@@V?$allocator@D@2@@std@@@2@U?$less@V?$basic_string@DU?$char_traits@D@std@@V?$allocator@D@2@@std@@@2@V?$allocator@U?$pair@$$CBV?$basic_string@DU?$char_traits@D@std@@V?$allocator@D@2@@std@@U?$pair@PAVBufferedTransformation@CryptoPP@@V?$basic_string@DU?$char_traits@D@std@@V?$allocator@D@2@@std@@@2@@std@@@2@$00@std@@@std@@QAEXXZ 4290badc f i channels.obj
 0001:0000ab02       ?erase@?$_Tree@V?$_Tmap_traits@V?$basic_string@DU?$char_traits@D@std@@V?$allocator@D@2@@std@@U?$pair@PAVBufferedTransformation@CryptoPP@@V?$basic_string@DU?$char_traits@D@std@@V?$allocator@D@2@@std@@@2@U?$less@V?$basic_string@DU?$char_traits@D@std@@V?$allocator@D@2@@std@@@2@V?$allocator@U?$pair@$$CBV?$basic_string@DU?$char_traits@D@std@@V?$allocator@D@2@@std@@U?$pair@PAVBufferedTransformation@CryptoPP@@V?$basic_string@DU?$char_traits@D@std@@V?$allocator@D@2@@std@@@2@@std@@@2@$00@std@@@std@@QAE?AViterator@12@V312@0@Z 4290bb02 f i channels.obj
 0001:0000ab55       ?_Buynode@?$list@U?$pair@PAVBufferedTransformation@CryptoPP@@V?$value_ptr@V?$basic_string@DU?$char_traits@D@std@@V?$allocator@D@2@@std@@@2@@std@@V?$allocator@U?$pair@PAVBufferedTransformation@CryptoPP@@V?$value_ptr@V?$basic_string@DU?$char_traits@D@std@@V?$allocator@D@2@@std@@@2@@std@@@2@@std@@IAEPAU_Node@?$_List_nod@U?$pair@PAVBufferedTransformation@CryptoPP@@V?$value_ptr@V?$basic_string@DU?$char_traits@D@std@@V?$allocator@D@2@@std@@@2@@std@@V?$allocator@U?$pair@PAVBufferedTransformation@CryptoPP@@V?$value_ptr@V?$basic_string@DU?$char_traits@D@std@@V?$allocator@D@2@@std@@@2@@std@@@2@@2@PAU342@0ABU?$pair@PAVBufferedTransformation@CryptoPP@@V?$value_ptr@V?$basic_string@DU?$char_traits@D@std@@V?$allocator@D@2@@std@@@2@@2@@Z 4290bb55 f i channels.obj
 0001:0000abba       ?_Buynode@?$_Tree@V?$_Tmap_traits@V?$basic_string@DU?$char_traits@D@std@@V?$allocator@D@2@@std@@U?$pair@PAVBufferedTransformation@CryptoPP@@V?$basic_string@DU?$char_traits@D@std@@V?$allocator@D@2@@std@@@2@U?$less@V?$basic_string@DU?$char_traits@D@std@@V?$allocator@D@2@@std@@@2@V?$allocator@U?$pair@$$CBV?$basic_string@DU?$char_traits@D@std@@V?$allocator@D@2@@std@@U?$pair@PAVBufferedTransformation@CryptoPP@@V?$basic_string@DU?$char_traits@D@std@@V?$allocator@D@2@@std@@@2@@std@@@2@$00@std@@@std@@IAEPAU_Node@?$_Tree_nod@V?$_Tmap_traits@V?$basic_string@DU?$char_traits@D@std@@V?$allocator@D@2@@std@@U?$pair@PAVBufferedTransformation@CryptoPP@@V?$basic_string@DU?$char_traits@D@std@@V?$allocator@D@2@@std@@@2@U?$less@V?$basic_string@DU?$char_traits@D@std@@V?$allocator@D@2@@std@@@2@V?$allocator@U?$pair@$$CBV?$basic_string@DU?$char_traits@D@std@@V?$allocator@D@2@@std@@U?$pair@PAVBufferedTransformation@CryptoPP@@V?$basic_string@DU?$char_traits@D@std@@V?$allocator@D@2@@std@@@2@@std@@@2@$00@std@@@2@PAU342@00ABU?$pair@$$CBV?$basic_string@DU?$char_traits@D@std@@V?$allocator@D@2@@std@@U?$pair@PAVBufferedTransformation@CryptoPP@@V?$basic_string@DU?$char_traits@D@std@@V?$allocator@D@2@@std@@@2@@2@D@Z 4290bbba f i channels.obj
 0001:0000ac25       ?erase@?$list@U?$pair@PAVBufferedTransformation@CryptoPP@@V?$value_ptr@V?$basic_string@DU?$char_traits@D@std@@V?$allocator@D@2@@std@@@2@@std@@V?$allocator@U?$pair@PAVBufferedTransformation@CryptoPP@@V?$value_ptr@V?$basic_string@DU?$char_traits@D@std@@V?$allocator@D@2@@std@@@2@@std@@@2@@std@@QAE?AViterator@12@V312@@Z 4290bc25 f i channels.obj
 0001:0000ac61       ?clear@?$list@U?$pair@PAVBufferedTransformation@CryptoPP@@V?$value_ptr@V?$basic_string@DU?$char_traits@D@std@@V?$allocator@D@2@@std@@@2@@std@@V?$allocator@U?$pair@PAVBufferedTransformation@CryptoPP@@V?$value_ptr@V?$basic_string@DU?$char_traits@D@std@@V?$allocator@D@2@@std@@@2@@std@@@2@@std@@QAEXXZ 4290bc61 f i channels.obj
 0001:0000ac97       ?_Tidy@?$_Tree@V?$_Tmap_traits@V?$basic_string@DU?$char_traits@D@std@@V?$allocator@D@2@@std@@U?$pair@PAVBufferedTransformation@CryptoPP@@V?$basic_string@DU?$char_traits@D@std@@V?$allocator@D@2@@std@@@2@U?$less@V?$basic_string@DU?$char_traits@D@std@@V?$allocator@D@2@@std@@@2@V?$allocator@U?$pair@$$CBV?$basic_string@DU?$char_traits@D@std@@V?$allocator@D@2@@std@@U?$pair@PAVBufferedTransformation@CryptoPP@@V?$basic_string@DU?$char_traits@D@std@@V?$allocator@D@2@@std@@@2@@std@@@2@$00@std@@@std@@IAEXXZ 4290bc97 f i channels.obj
 0001:0000acc2       ?_Insert@?$list@U?$pair@PAVBufferedTransformation@CryptoPP@@V?$value_ptr@V?$basic_string@DU?$char_traits@D@std@@V?$allocator@D@2@@std@@@2@@std@@V?$allocator@U?$pair@PAVBufferedTransformation@CryptoPP@@V?$value_ptr@V?$basic_string@DU?$char_traits@D@std@@V?$allocator@D@2@@std@@@2@@std@@@2@@std@@QAEXViterator@12@ABU?$pair@PAVBufferedTransformation@CryptoPP@@V?$value_ptr@V?$basic_string@DU?$char_traits@D@std@@V?$allocator@D@2@@std@@@2@@2@@Z 4290bcc2 f i channels.obj
 0001:0000acf1       ?_Tidy@?$list@U?$pair@PAVBufferedTransformation@CryptoPP@@V?$value_ptr@V?$basic_string@DU?$char_traits@D@std@@V?$allocator@D@2@@std@@@2@@std@@V?$allocator@U?$pair@PAVBufferedTransformation@CryptoPP@@V?$value_ptr@V?$basic_string@DU?$char_traits@D@std@@V?$allocator@D@2@@std@@@2@@std@@@2@@std@@IAEXXZ 4290bcf1 f i channels.obj
 0001:0000ad08       ?_Copy@?$_Tree@V?$_Tmap_traits@V?$basic_string@DU?$char_traits@D@std@@V?$allocator@D@2@@std@@U?$pair@PAVBufferedTransformation@CryptoPP@@V?$basic_string@DU?$char_traits@D@std@@V?$allocator@D@2@@std@@@2@U?$less@V?$basic_string@DU?$char_traits@D@std@@V?$allocator@D@2@@std@@@2@V?$allocator@U?$pair@$$CBV?$basic_string@DU?$char_traits@D@std@@V?$allocator@D@2@@std@@U?$pair@PAVBufferedTransformation@CryptoPP@@V?$basic_string@DU?$char_traits@D@std@@V?$allocator@D@2@@std@@@2@@std@@@2@$00@std@@@std@@IAEPAU_Node@?$_Tree_nod@V?$_Tmap_traits@V?$basic_string@DU?$char_traits@D@std@@V?$allocator@D@2@@std@@U?$pair@PAVBufferedTransformation@CryptoPP@@V?$basic_string@DU?$char_traits@D@std@@V?$allocator@D@2@@std@@@2@U?$less@V?$basic_string@DU?$char_traits@D@std@@V?$allocator@D@2@@std@@@2@V?$allocator@U?$pair@$$CBV?$basic_string@DU?$char_traits@D@std@@V?$allocator@D@2@@std@@U?$pair@PAVBufferedTransformation@CryptoPP@@V?$basic_string@DU?$char_traits@D@std@@V?$allocator@D@2@@std@@@2@@std@@@2@$00@std@@@2@PAU342@0@Z 4290bd08 f i channels.obj
 0001:0000ad9a       ?_Insert@?$_Tree@V?$_Tmap_traits@V?$basic_string@DU?$char_traits@D@std@@V?$allocator@D@2@@std@@U?$pair@PAVBufferedTransformation@CryptoPP@@V?$basic_string@DU?$char_traits@D@std@@V?$allocator@D@2@@std@@@2@U?$less@V?$basic_string@DU?$char_traits@D@std@@V?$allocator@D@2@@std@@@2@V?$allocator@U?$pair@$$CBV?$basic_string@DU?$char_traits@D@std@@V?$allocator@D@2@@std@@U?$pair@PAVBufferedTransformation@CryptoPP@@V?$basic_string@DU?$char_traits@D@std@@V?$allocator@D@2@@std@@@2@@std@@@2@$00@std@@@std@@IAE?AViterator@12@_NPAU_Node@?$_Tree_nod@V?$_Tmap_traits@V?$basic_string@DU?$char_traits@D@std@@V?$allocator@D@2@@std@@U?$pair@PAVBufferedTransformation@CryptoPP@@V?$basic_string@DU?$char_traits@D@std@@V?$allocator@D@2@@std@@@2@U?$less@V?$basic_string@DU?$char_traits@D@std@@V?$allocator@D@2@@std@@@2@V?$allocator@U?$pair@$$CBV?$basic_string@DU?$char_traits@D@std@@V?$allocator@D@2@@std@@U?$pair@PAVBufferedTransformation@CryptoPP@@V?$basic_string@DU?$char_traits@D@std@@V?$allocator@D@2@@std@@@2@@std@@@2@$00@std@@@2@ABU?$pair@$$CBV?$basic_string@DU?$char_traits@D@std@@V?$allocator@D@2@@std@@U?$pair@PAVBufferedTransformation@CryptoPP@@V?$basic_string@DU?$char_traits@D@std@@V?$allocator@D@2@@std@@@2@@2@@Z 4290bd9a f i channels.obj
 0001:0000af01       ??$_Insert@Vconst_iterator@?$list@U?$pair@PAVBufferedTransformation@CryptoPP@@V?$value_ptr@V?$basic_string@DU?$char_traits@D@std@@V?$allocator@D@2@@std@@@2@@std@@V?$allocator@U?$pair@PAVBufferedTransformation@CryptoPP@@V?$value_ptr@V?$basic_string@DU?$char_traits@D@std@@V?$allocator@D@2@@std@@@2@@std@@@2@@std@@@?$list@U?$pair@PAVBufferedTransformation@CryptoPP@@V?$value_ptr@V?$basic_string@DU?$char_traits@D@std@@V?$allocator@D@2@@std@@@2@@std@@V?$allocator@U?$pair@PAVBufferedTransformation@CryptoPP@@V?$value_ptr@V?$basic_string@DU?$char_traits@D@std@@V?$allocator@D@2@@std@@@2@@std@@@2@@std@@QAEXViterator@01@Vconst_iterator@01@1Uforward_iterator_tag@1@@Z 4290bf01 f i channels.obj
 0001:0000af74       ?IsolatedInitialize@ChannelSwitch@CryptoPP@@UAEXABVNameValuePairs@2@@Z 4290bf74 f   channels.obj
 0001:0000af8f       ?RemoveDefaultRoute@ChannelSwitch@CryptoPP@@QAEXAAVBufferedTransformation@2@@Z 4290bf8f f   channels.obj
 0001:0000afc4       ?RemoveDefaultRoute@ChannelSwitch@CryptoPP@@QAEXAAVBufferedTransformation@2@ABV?$basic_string@DU?$char_traits@D@std@@V?$allocator@D@2@@std@@@Z 4290bfc4 f   channels.obj
 0001:0000b00b       ??1?$list@U?$pair@PAVBufferedTransformation@CryptoPP@@V?$value_ptr@V?$basic_string@DU?$char_traits@D@std@@V?$allocator@D@2@@std@@@2@@std@@V?$allocator@U?$pair@PAVBufferedTransformation@CryptoPP@@V?$value_ptr@V?$basic_string@DU?$char_traits@D@std@@V?$allocator@D@2@@std@@@2@@std@@@2@@std@@QAE@XZ 4290c00b f i channels.obj
 0001:0000b010       ?insert@?$_Tree@V?$_Tmap_traits@V?$basic_string@DU?$char_traits@D@std@@V?$allocator@D@2@@std@@U?$pair@PAVBufferedTransformation@CryptoPP@@V?$basic_string@DU?$char_traits@D@std@@V?$allocator@D@2@@std@@@2@U?$less@V?$basic_string@DU?$char_traits@D@std@@V?$allocator@D@2@@std@@@2@V?$allocator@U?$pair@$$CBV?$basic_string@DU?$char_traits@D@std@@V?$allocator@D@2@@std@@U?$pair@PAVBufferedTransformation@CryptoPP@@V?$basic_string@DU?$char_traits@D@std@@V?$allocator@D@2@@std@@@2@@std@@@2@$00@std@@@std@@QAE?AU?$pair@Viterator@?$_Tree@V?$_Tmap_traits@V?$basic_string@DU?$char_traits@D@std@@V?$allocator@D@2@@std@@U?$pair@PAVBufferedTransformation@CryptoPP@@V?$basic_string@DU?$char_traits@D@std@@V?$allocator@D@2@@std@@@2@U?$less@V?$basic_string@DU?$char_traits@D@std@@V?$allocator@D@2@@std@@@2@V?$allocator@U?$pair@$$CBV?$basic_string@DU?$char_traits@D@std@@V?$allocator@D@2@@std@@U?$pair@PAVBufferedTransformation@CryptoPP@@V?$basic_string@DU?$char_traits@D@std@@V?$allocator@D@2@@std@@@2@@std@@@2@$00@std@@@std@@_N@2@ABU?$pair@$$CBV?$basic_string@DU?$char_traits@D@std@@V?$allocator@D@2@@std@@U?$pair@PAVBufferedTransformation@CryptoPP@@V?$basic_string@DU?$char_traits@D@std@@V?$allocator@D@2@@std@@@2@@2@@Z 4290c010 f i channels.obj
 0001:0000b06f       ?_Copy@?$_Tree@V?$_Tmap_traits@V?$basic_string@DU?$char_traits@D@std@@V?$allocator@D@2@@std@@U?$pair@PAVBufferedTransformation@CryptoPP@@V?$basic_string@DU?$char_traits@D@std@@V?$allocator@D@2@@std@@@2@U?$less@V?$basic_string@DU?$char_traits@D@std@@V?$allocator@D@2@@std@@@2@V?$allocator@U?$pair@$$CBV?$basic_string@DU?$char_traits@D@std@@V?$allocator@D@2@@std@@U?$pair@PAVBufferedTransformation@CryptoPP@@V?$basic_string@DU?$char_traits@D@std@@V?$allocator@D@2@@std@@@2@@std@@@2@$00@std@@@std@@IAEXABV12@@Z 4290c06f f i channels.obj
 0001:0000b0cd       ??1?$multimap@V?$basic_string@DU?$char_traits@D@std@@V?$allocator@D@2@@std@@U?$pair@PAVBufferedTransformation@CryptoPP@@V?$basic_string@DU?$char_traits@D@std@@V?$allocator@D@2@@std@@@2@U?$less@V?$basic_string@DU?$char_traits@D@std@@V?$allocator@D@2@@std@@@2@V?$allocator@U?$pair@$$CBV?$basic_string@DU?$char_traits@D@std@@V?$allocator@D@2@@std@@U?$pair@PAVBufferedTransformation@CryptoPP@@V?$basic_string@DU?$char_traits@D@std@@V?$allocator@D@2@@std@@@2@@std@@@2@@std@@QAE@XZ 4290c0cd f i channels.obj
 0001:0000b0d2       ?AddDefaultRoute@ChannelSwitch@CryptoPP@@QAEXAAVBufferedTransformation@2@@Z 4290c0d2 f   channels.obj
 0001:0000b128       ?AddDefaultRoute@ChannelSwitch@CryptoPP@@QAEXAAVBufferedTransformation@2@ABV?$basic_string@DU?$char_traits@D@std@@V?$allocator@D@2@@std@@@Z 4290c128 f   channels.obj
 0001:0000b191       ?insert@?$multimap@V?$basic_string@DU?$char_traits@D@std@@V?$allocator@D@2@@std@@U?$pair@PAVBufferedTransformation@CryptoPP@@V?$basic_string@DU?$char_traits@D@std@@V?$allocator@D@2@@std@@@2@U?$less@V?$basic_string@DU?$char_traits@D@std@@V?$allocator@D@2@@std@@@2@V?$allocator@U?$pair@$$CBV?$basic_string@DU?$char_traits@D@std@@V?$allocator@D@2@@std@@U?$pair@PAVBufferedTransformation@CryptoPP@@V?$basic_string@DU?$char_traits@D@std@@V?$allocator@D@2@@std@@@2@@std@@@2@@std@@QAE?AViterator@?$_Tree@V?$_Tmap_traits@V?$basic_string@DU?$char_traits@D@std@@V?$allocator@D@2@@std@@U?$pair@PAVBufferedTransformation@CryptoPP@@V?$basic_string@DU?$char_traits@D@std@@V?$allocator@D@2@@std@@@2@U?$less@V?$basic_string@DU?$char_traits@D@std@@V?$allocator@D@2@@std@@@2@V?$allocator@U?$pair@$$CBV?$basic_string@DU?$char_traits@D@std@@V?$allocator@D@2@@std@@U?$pair@PAVBufferedTransformation@CryptoPP@@V?$basic_string@DU?$char_traits@D@std@@V?$allocator@D@2@@std@@@2@@std@@@2@$00@std@@@2@ABU?$pair@$$CBV?$basic_string@DU?$char_traits@D@std@@V?$allocator@D@2@@std@@U?$pair@PAVBufferedTransformation@CryptoPP@@V?$basic_string@DU?$char_traits@D@std@@V?$allocator@D@2@@std@@@2@@2@@Z 4290c191 f i channels.obj
 0001:0000b1ad       ??0?$_Tree@V?$_Tmap_traits@V?$basic_string@DU?$char_traits@D@std@@V?$allocator@D@2@@std@@U?$pair@PAVBufferedTransformation@CryptoPP@@V?$basic_string@DU?$char_traits@D@std@@V?$allocator@D@2@@std@@@2@U?$less@V?$basic_string@DU?$char_traits@D@std@@V?$allocator@D@2@@std@@@2@V?$allocator@U?$pair@$$CBV?$basic_string@DU?$char_traits@D@std@@V?$allocator@D@2@@std@@U?$pair@PAVBufferedTransformation@CryptoPP@@V?$basic_string@DU?$char_traits@D@std@@V?$allocator@D@2@@std@@@2@@std@@@2@$00@std@@@std@@QAE@ABV01@@Z 4290c1ad f i channels.obj
 0001:0000b1fc       ??0?$list@U?$pair@PAVBufferedTransformation@CryptoPP@@V?$value_ptr@V?$basic_string@DU?$char_traits@D@std@@V?$allocator@D@2@@std@@@2@@std@@V?$allocator@U?$pair@PAVBufferedTransformation@CryptoPP@@V?$value_ptr@V?$basic_string@DU?$char_traits@D@std@@V?$allocator@D@2@@std@@@2@@std@@@2@@std@@QAE@ABV01@@Z 4290c1fc f i channels.obj
 0001:0000b25f       ??0ChannelSwitch@CryptoPP@@QAE@XZ 4290c25f f i channels.obj
 0001:0000b2b4       ??0ChannelSwitch@CryptoPP@@QAE@AAVBufferedTransformation@1@@Z 4290c2b4 f i channels.obj
 0001:0000b319       ??0ChannelSwitch@CryptoPP@@QAE@AAVBufferedTransformation@1@ABV?$basic_string@DU?$char_traits@D@std@@V?$allocator@D@2@@std@@@Z 4290c319 f i channels.obj
 0001:0000b381       ??1ChannelSwitch@CryptoPP@@UAE@XZ 4290c381 f i channels.obj
 0001:0000b3a1       ??_EChannelSwitch@CryptoPP@@UAEPAXI@Z 4290c3a1 f i channels.obj
 0001:0000b3ec       ?AddRoute@ChannelSwitch@CryptoPP@@QAEXABV?$basic_string@DU?$char_traits@D@std@@V?$allocator@D@2@@std@@AAVBufferedTransformation@2@0@Z 4290c3ec f   channels.obj
 0001:0000b455       ??_EChannelSwitch@CryptoPP@@W3AEPAXI@Z 4290c455 f i channels.obj
 0001:0000b45d       ??0ChannelSwitch@CryptoPP@@QAE@ABV01@@Z 4290c45d f i channels.obj
 0001:0000b4c9       ?GetCipher@CMAC_Base@CryptoPP@@IBEABVBlockCipher@2@XZ 4290c4c9 f i cmac.obj
 0001:0000b4c9       ?GetAbstractGroupParameters@?$DL_SimpleKeyAgreementDomainBase@VInteger@CryptoPP@@@CryptoPP@@IBEABV?$DL_GroupParameters@VInteger@CryptoPP@@@2@XZ 4290c4c9 f i dh.obj
 0001:0000b4c9       ?AccessCryptoParameters@?$DL_SimpleKeyAgreementDomainBase@VInteger@CryptoPP@@@CryptoPP@@UAEAAVCryptoParameters@2@XZ 4290c4c9 f i dh.obj
 0001:0000b4ce       ?ProcessBlock@BlockTransformation@CryptoPP@@QBEXPBEPAE@Z 4290c4ce f i cmac.obj
 0001:0000b4e0       ?DigestSize@CMAC_Base@CryptoPP@@UBEIXZ 4290c4e0 f i cmac.obj
 0001:0000b4e0       ?DigestSize@CBC_MAC_Base@CryptoPP@@UBEIXZ 4290c4e0 f i cbcmac.obj
 0001:0000b4e0       ?OptimalBlockSize@CMAC_Base@CryptoPP@@UBEIXZ 4290c4e0 f i cmac.obj
 0001:0000b4f0       ?OptimalDataAlignment@CMAC_Base@CryptoPP@@UBEIXZ 4290c4f0 f i cmac.obj
 0001:0000b500       ?Update@CMAC_Base@CryptoPP@@UAEXPBEI@Z 4290c500 f   cmac.obj
 0001:0000b5bd       ?TruncatedFinal@CMAC_Base@CryptoPP@@UAEXPAEI@Z 4290c5bd f   cmac.obj
 0001:0000b631       ??$IntToString@I@CryptoPP@@YA?AV?$basic_string@DU?$char_traits@D@std@@V?$allocator@D@2@@std@@II@Z 4290c631 f i cmac.obj
 0001:0000b7bf       ??0CMAC_Base@CryptoPP@@QAE@XZ 4290c7bf f i cmac.obj
 0001:0000b7bf       ??0CBC_MAC_Base@CryptoPP@@QAE@XZ 4290c7bf f i cbcmac.obj
 0001:0000b7da       ?UncheckedSetKey@CMAC_Base@CryptoPP@@UAEXPBEIABVNameValuePairs@2@@Z 4290c7da f   cmac.obj
 0001:0000b85b       ?CpuId@CryptoPP@@YA_NIPAI@Z 4290c85b f   cpu.obj
 0001:0000b8c8       ?DetectX86Features@CryptoPP@@YAXXZ 4290c8c8 f   cpu.obj
 0001:0000ba3c       ??0DecodingResult@CryptoPP@@QAE@XZ 4290ca3c f i cryptlib.obj
 0001:0000ba46       ?StaticAlgorithmName@Rijndael_Info@CryptoPP@@SAPBDXZ 4290ca46 f i cryptlib.obj
 0001:0000ba4c       ??4BlockTransformation@CryptoPP@@QAEAAV01@ABV01@@Z 4290ca4c f i cryptlib.obj
 0001:0000ba4c       ??0BlockTransformation@CryptoPP@@QAE@ABV01@@Z 4290ca4c f i cryptlib.obj
 0001:0000ba5b       ??4Rijndael@CryptoPP@@QAEAAV01@ABV01@@Z 4290ca5b f i cryptlib.obj
 0001:0000ba6a       ??0?$IteratedHashBase@_KVHashTransformation@CryptoPP@@@CryptoPP@@QAE@ABV01@@Z 4290ca6a f i cryptlib.obj
 0001:0000ba6a       ??4?$IteratedHashBase@_KVHashTransformation@CryptoPP@@@CryptoPP@@QAEAAV01@ABV01@@Z 4290ca6a f i cryptlib.obj
 0001:0000ba8b       ??0BlockCipher@CryptoPP@@QAE@ABV01@@Z 4290ca8b f i cryptlib.obj
 0001:0000baac       ??4BlockCipher@CryptoPP@@QAEAAV01@ABV01@@Z 4290caac f i cryptlib.obj
 0001:0000bac6       ??4?$IteratedHashBase@IVHashTransformation@CryptoPP@@@CryptoPP@@QAEAAV01@ABV01@@Z 4290cac6 f i cryptlib.obj
 0001:0000bac6       ??0?$IteratedHashBase@IVHashTransformation@CryptoPP@@@CryptoPP@@QAE@ABV01@@Z 4290cac6 f i cryptlib.obj
 0001:0000badb       ?StaticAlgorithmName@SHA1@CryptoPP@@SAPBDXZ 4290cadb f i cryptlib.obj
 0001:0000bae1       ?StaticAlgorithmName@SHA256@CryptoPP@@SAPBDXZ 4290cae1 f i cryptlib.obj
 0001:0000bae7       ?ChannelMessageEnd@BufferedTransformation@CryptoPP@@QAE_NABV?$basic_string@DU?$char_traits@D@std@@V?$allocator@D@2@@std@@H_N@Z 4290cae7 f i cryptlib.obj
 0001:0000bb13       ?Transform@SHA224@CryptoPP@@SAXPAIPBI@Z 4290cb13 f i cryptlib.obj
 0001:0000bb18       ?StaticAlgorithmName@SHA224@CryptoPP@@SAPBDXZ 4290cb18 f i cryptlib.obj
 0001:0000bb1e       ?StaticAlgorithmName@SHA512@CryptoPP@@SAPBDXZ 4290cb1e f i cryptlib.obj
 0001:0000bb24       ?Transform@SHA384@CryptoPP@@SAXPA_KPB_K@Z 4290cb24 f i cryptlib.obj
 0001:0000bb29       ?StaticAlgorithmName@SHA384@CryptoPP@@SAPBDXZ 4290cb29 f i cryptlib.obj
 0001:0000bb2f       ?GetProviderHandle@MicrosoftCryptoProvider@CryptoPP@@QBEKXZ 4290cb2f f i cryptlib.obj
 0001:0000bb32       ??4MicrosoftCryptoProvider@CryptoPP@@QAEAAV01@ABV01@@Z 4290cb32 f i cryptlib.obj
 0001:0000bb3f       ??0NonblockingRng@CryptoPP@@QAE@ABV01@@Z 4290cb3f f i cryptlib.obj
 0001:0000bb4a       ??_ENonblockingRng@CryptoPP@@UAEPAXI@Z 4290cb4a f i cryptlib.obj
 0001:0000bb95       ??0NullNameValuePairs@CryptoPP@@QAE@XZ 4290cb95 f i cryptlib.obj
 0001:0000bb9e       ?GetVoidValue@NullNameValuePairs@CryptoPP@@UBE_NPBDABVtype_info@@PAX@Z 4290cb9e f i cryptlib.obj
 0001:0000bba3       ?GetNextIV@SimpleKeyingInterface@CryptoPP@@UAEXAAVRandomNumberGenerator@2@PAE@Z 4290cba3 f   cryptlib.obj
 0001:0000bbbf       ?AdvancedProcessBlocks@BlockTransformation@CryptoPP@@UBEIPBE0PAEII@Z 4290cbbf f   cryptlib.obj
 0001:0000bc96       ?GenerateBit@RandomNumberGenerator@CryptoPP@@UAEIXZ 4290cc96 f   cryptlib.obj
 0001:0000bc9f       ?GenerateByte@RandomNumberGenerator@CryptoPP@@UAEEXZ 4290cc9f f   cryptlib.obj
 0001:0000bcb3       ?GetMaxWaitObjectCount@BufferedTransformation@CryptoPP@@UBEIXZ 4290ccb3 f   cryptlib.obj
 0001:0000bccd       ?GetWaitObjects@BufferedTransformation@CryptoPP@@UAEXAAVWaitObjectContainer@2@ABVCallStack@2@@Z 4290cccd f   cryptlib.obj
 0001:0000bce7       ?Initialize@BufferedTransformation@CryptoPP@@UAEXABVNameValuePairs@2@H@Z 4290cce7 f   cryptlib.obj
 0001:0000bcf3       ?Flush@BufferedTransformation@CryptoPP@@UAE_N_NH0@Z 4290ccf3 f   cryptlib.obj
 0001:0000bd03       ?MessageSeriesEnd@BufferedTransformation@CryptoPP@@UAE_NH_N@Z 4290cd03 f   cryptlib.obj
 0001:0000bd0f       ?AnyRetrievable@BufferedTransformation@CryptoPP@@UBE_NXZ 4290cd0f f   cryptlib.obj
 0001:0000bd45       ?Get@BufferedTransformation@CryptoPP@@UAEIAAE@Z 4290cd45 f   cryptlib.obj
 0001:0000bd73       ?Peek@BufferedTransformation@CryptoPP@@UBEIAAE@Z 4290cd73 f   cryptlib.obj
 0001:0000bda1       ?TotalBytesRetrievable@BufferedTransformation@CryptoPP@@UBE_KXZ 4290cda1 f   cryptlib.obj
 0001:0000bdc6       ?AnyMessages@BufferedTransformation@CryptoPP@@UBE_NXZ 4290cdc6 f   cryptlib.obj
 0001:0000bdf2       ?GetNextMessage@BufferedTransformation@CryptoPP@@UAE_NXZ 4290cdf2 f   cryptlib.obj
 0001:0000be17       ?TransferMessagesTo2@BufferedTransformation@CryptoPP@@QAEIAAV12@AAIABV?$basic_string@DU?$char_traits@D@std@@V?$allocator@D@2@@std@@_N@Z 4290ce17 f   cryptlib.obj
 0001:0000beb0       ?CopyMessagesTo@BufferedTransformation@CryptoPP@@QBEIAAV12@IABV?$basic_string@DU?$char_traits@D@std@@V?$allocator@D@2@@std@@@Z 4290ceb0 f   cryptlib.obj
 0001:0000bed3       ?SkipAll@BufferedTransformation@CryptoPP@@UAEXXZ 4290ced3 f   cryptlib.obj
 0001:0000bf12       ?TransferAllTo2@BufferedTransformation@CryptoPP@@QAEIAAV12@ABV?$basic_string@DU?$char_traits@D@std@@V?$allocator@D@2@@std@@_N@Z 4290cf12 f   cryptlib.obj
 0001:0000bf87       ?CopyAllTo@BufferedTransformation@CryptoPP@@QBEXAAV12@ABV?$basic_string@DU?$char_traits@D@std@@V?$allocator@D@2@@std@@@Z 4290cf87 f   cryptlib.obj
 0001:0000bfbf       ?SetRetrievalChannel@BufferedTransformation@CryptoPP@@UAEXABV?$basic_string@DU?$char_traits@D@std@@V?$allocator@D@2@@std@@@Z 4290cfbf f   cryptlib.obj
 0001:0000bfe7       ?PeekWord16@BufferedTransformation@CryptoPP@@QBEIAAGW4ByteOrder@2@@Z 4290cfe7 f   cryptlib.obj
 0001:0000c021       ?PeekWord32@BufferedTransformation@CryptoPP@@QBEIAAIW4ByteOrder@2@@Z 4290d021 f   cryptlib.obj
 0001:0000c087       ?GetWord16@BufferedTransformation@CryptoPP@@QAEIAAGW4ByteOrder@2@@Z 4290d087 f   cryptlib.obj
 0001:0000c0a7       ?GetWord32@BufferedTransformation@CryptoPP@@QAEIAAIW4ByteOrder@2@@Z 4290d0a7 f   cryptlib.obj
 0001:0000c0c7       ?Attach@BufferedTransformation@CryptoPP@@UAEXPAV12@@Z 4290d0c7 f   cryptlib.obj
 0001:0000c115       ?GenerateStaticKeyPair@AuthenticatedKeyAgreementDomain@CryptoPP@@UBEXAAVRandomNumberGenerator@2@PAE1@Z 4290d115 f   cryptlib.obj
 0001:0000c115       ?GenerateKeyPair@SimpleKeyAgreementDomain@CryptoPP@@UBEXAAVRandomNumberGenerator@2@PAE1@Z 4290d115 f   cryptlib.obj
 0001:0000c13b       ?GenerateEphemeralKeyPair@AuthenticatedKeyAgreementDomain@CryptoPP@@UBEXAAVRandomNumberGenerator@2@PAE1@Z 4290d13b f   cryptlib.obj
 0001:0000c161       ?IVRequirement@?$SimpleKeyingInterfaceImpl@V?$TwoBases@VBlockCipher@CryptoPP@@URijndael_Info@2@@CryptoPP@@V12@@CryptoPP@@UBE?AW4IV_Requirement@SimpleKeyingInterface@2@XZ 4290d161 f i cryptlib.obj
 0001:0000c161       ?IVRequirement@?$SimpleKeyingInterfaceImpl@VHMAC_Base@CryptoPP@@V?$HMAC@VSHA1@CryptoPP@@@2@@CryptoPP@@UBE?AW4IV_Requirement@SimpleKeyingInterface@2@XZ 4290d161 f i fipstest.obj
 0001:0000c161       ?IVRequirement@ECB_OneWay@CryptoPP@@UBE?AW4IV_Requirement@SimpleKeyingInterface@2@XZ 4290d161 f i ccm.obj
 0001:0000c161       ?IVRequirement@?$SimpleKeyingInterfaceImpl@V?$TwoBases@VBlockCipher@CryptoPP@@UDES_EDE3_Info@2@@CryptoPP@@V12@@CryptoPP@@UBE?AW4IV_Requirement@SimpleKeyingInterface@2@XZ 4290d161 f i des.obj
 0001:0000c161       ?IVRequirement@?$SimpleKeyingInterfaceImpl@V?$TwoBases@VBlockCipher@CryptoPP@@UDES_EDE2_Info@2@@CryptoPP@@V12@@CryptoPP@@UBE?AW4IV_Requirement@SimpleKeyingInterface@2@XZ 4290d161 f i des.obj
 0001:0000c161       ?IVRequirement@?$SimpleKeyingInterfaceImpl@V?$TwoBases@VBlockCipher@CryptoPP@@USKIPJACK_Info@2@@CryptoPP@@V12@@CryptoPP@@UBE?AW4IV_Requirement@SimpleKeyingInterface@2@XZ 4290d161 f i dll.obj
 0001:0000c165       ?GetDigestSize@?$DL_ObjectImplBase@V?$DL_SignerBase@VInteger@CryptoPP@@@CryptoPP@@U?$DL_SignatureSchemeOptions@UDSA@CryptoPP@@UDL_Keys_DSA@2@V?$DL_Algorithm_GDSA@VInteger@CryptoPP@@@2@VDL_SignatureMessageEncodingMethod_DSA@2@VSHA1@2@@2@V?$DL_PrivateKey_WithSignaturePairwiseConsistencyTest@V?$DL_PrivateKey_GFP@VDL_GroupParameters_DSA@CryptoPP@@@CryptoPP@@UDSA@2@@2@@CryptoPP@@MBEIXZ 4290d165 f i dh.obj
 0001:0000c165       ?DigestSize@?$IteratedHashWithStaticTransform@IU?$EnumToType@W4ByteOrder@CryptoPP@@$00@CryptoPP@@$0EA@$0BE@VSHA1@2@$0A@$0A@@CryptoPP@@UBEIXZ 4290d165 f i cryptlib.obj
 0001:0000c165       ?GetDigestSize@?$TF_ObjectImplBase@VTF_SignerBase@CryptoPP@@U?$TF_SignatureSchemeOptions@V?$TF_SS@UPKCS1v15@CryptoPP@@VSHA1@2@URSA@2@H@CryptoPP@@URSA@2@VPKCS1v15_SignatureMessageEncodingMethod@2@VSHA1@2@@2@VInvertibleRSAFunction@2@@CryptoPP@@MBEIXZ 4290d165 f i fipstest.obj
 0001:0000c165       ?GetDigestSize@?$DL_ObjectImplBase@V?$DL_VerifierBase@VInteger@CryptoPP@@@CryptoPP@@U?$DL_SignatureSchemeOptions@UDSA@CryptoPP@@UDL_Keys_DSA@2@V?$DL_Algorithm_GDSA@VInteger@CryptoPP@@@2@VDL_SignatureMessageEncodingMethod_DSA@2@VSHA1@2@@2@V?$DL_PublicKey_GFP@VDL_GroupParameters_DSA@CryptoPP@@@2@@CryptoPP@@MBEIXZ 4290d165 f i dh.obj
 0001:0000c165       ?GetDigestSize@?$TF_ObjectImplBase@VTF_SignerBase@CryptoPP@@U?$TF_SignatureSchemeOptions@V?$TF_SS@UP1363_EMSA2@CryptoPP@@VSHA1@2@URSA_ISO@2@H@CryptoPP@@URSA_ISO@2@VEMSA2Pad@2@VSHA1@2@@2@VInvertibleRSAFunction_ISO@2@@CryptoPP@@MBEIXZ 4290d165 f i fipstest.obj
 0001:0000c165       ?GetDigestSize@?$TF_ObjectImplBase@VTF_VerifierBase@CryptoPP@@U?$TF_SignatureSchemeOptions@V?$TF_SS@UPKCS1v15@CryptoPP@@VSHA1@2@URSA@2@H@CryptoPP@@URSA@2@VPKCS1v15_SignatureMessageEncodingMethod@2@VSHA1@2@@2@VRSAFunction@2@@CryptoPP@@MBEIXZ 4290d165 f i fipstest.obj
 0001:0000c165       ?DigestSize@?$OAEP@VSHA1@CryptoPP@@VP1363_MGF1@2@@CryptoPP@@MBEIXZ 4290d165 f i dll.obj
 0001:0000c165       ?GetDigestSize@?$DL_ObjectImplBase@V?$DL_SignerBase@UECPPoint@CryptoPP@@@CryptoPP@@U?$DL_SignatureSchemeOptions@V?$DL_SS@U?$DL_Keys_ECDSA@VECP@CryptoPP@@@CryptoPP@@V?$DL_Algorithm_ECDSA@VECP@CryptoPP@@@2@VDL_SignatureMessageEncodingMethod_DSA@2@VSHA1@2@H@CryptoPP@@U?$DL_Keys_ECDSA@VECP@CryptoPP@@@2@V?$DL_Algorithm_ECDSA@VECP@CryptoPP@@@2@VDL_SignatureMessageEncodingMethod_DSA@2@VSHA1@2@@2@V?$DL_PrivateKey_WithSignaturePairwiseConsistencyTest@V?$DL_PrivateKey_EC@VECP@CryptoPP@@@CryptoPP@@U?$ECDSA@VECP@CryptoPP@@VSHA256@2@@2@@2@@CryptoPP@@MBEIXZ 4290d165 f i fipstest.obj
 0001:0000c165       ?GetDigestSize@?$TF_ObjectImplBase@VTF_SignerBase@CryptoPP@@U?$TF_SignatureSchemeOptions@V?$TF_SS@UPSS@CryptoPP@@VSHA1@2@URSA@2@H@CryptoPP@@URSA@2@V?$PSSR_MEM@$0A@VP1363_MGF1@CryptoPP@@$0?0$0A@$0A@@2@VSHA1@2@@2@VInvertibleRSAFunction@2@@CryptoPP@@MBEIXZ 4290d165 f i fipstest.obj
 0001:0000c165       ?GetDigestSize@?$TF_ObjectImplBase@VTF_VerifierBase@CryptoPP@@U?$TF_SignatureSchemeOptions@V?$TF_SS@UPSS@CryptoPP@@VSHA1@2@URSA@2@H@CryptoPP@@URSA@2@V?$PSSR_MEM@$0A@VP1363_MGF1@CryptoPP@@$0?0$0A@$0A@@2@VSHA1@2@@2@VRSAFunction@2@@CryptoPP@@MBEIXZ 4290d165 f i fipstest.obj
 0001:0000c165       ?GetDigestSize@?$DL_ObjectImplBase@V?$DL_SignerBase@UEC2NPoint@CryptoPP@@@CryptoPP@@U?$DL_SignatureSchemeOptions@V?$DL_SS@U?$DL_Keys_ECDSA@VEC2N@CryptoPP@@@CryptoPP@@V?$DL_Algorithm_ECDSA@VEC2N@CryptoPP@@@2@VDL_SignatureMessageEncodingMethod_DSA@2@VSHA1@2@H@CryptoPP@@U?$DL_Keys_ECDSA@VEC2N@CryptoPP@@@2@V?$DL_Algorithm_ECDSA@VEC2N@CryptoPP@@@2@VDL_SignatureMessageEncodingMethod_DSA@2@VSHA1@2@@2@V?$DL_PrivateKey_WithSignaturePairwiseConsistencyTest@V?$DL_PrivateKey_EC@VEC2N@CryptoPP@@@CryptoPP@@U?$ECDSA@VEC2N@CryptoPP@@VSHA256@2@@2@@2@@CryptoPP@@MBEIXZ 4290d165 f i fipstest.obj
 0001:0000c165       ?GetDigestSize@?$TF_ObjectImplBase@VTF_VerifierBase@CryptoPP@@U?$TF_SignatureSchemeOptions@V?$TF_SS@UP1363_EMSA2@CryptoPP@@VSHA1@2@URSA_ISO@2@H@CryptoPP@@URSA_ISO@2@VEMSA2Pad@2@VSHA1@2@@2@VRSAFunction_ISO@2@@CryptoPP@@MBEIXZ 4290d165 f i fipstest.obj
 0001:0000c165       ?GetDigestSize@?$DL_ObjectImplBase@V?$DL_VerifierBase@UEC2NPoint@CryptoPP@@@CryptoPP@@U?$DL_SignatureSchemeOptions@V?$DL_SS@U?$DL_Keys_ECDSA@VEC2N@CryptoPP@@@CryptoPP@@V?$DL_Algorithm_ECDSA@VEC2N@CryptoPP@@@2@VDL_SignatureMessageEncodingMethod_DSA@2@VSHA1@2@H@CryptoPP@@U?$DL_Keys_ECDSA@VEC2N@CryptoPP@@@2@V?$DL_Algorithm_ECDSA@VEC2N@CryptoPP@@@2@VDL_SignatureMessageEncodingMethod_DSA@2@VSHA1@2@@2@V?$DL_PublicKey_EC@VEC2N@CryptoPP@@@2@@CryptoPP@@MBEIXZ 4290d165 f i fipstest.obj
 0001:0000c165       ?GetDigestSize@?$DL_ObjectImplBase@V?$DL_VerifierBase@UECPPoint@CryptoPP@@@CryptoPP@@U?$DL_SignatureSchemeOptions@V?$DL_SS@U?$DL_Keys_ECDSA@VECP@CryptoPP@@@CryptoPP@@V?$DL_Algorithm_ECDSA@VECP@CryptoPP@@@2@VDL_SignatureMessageEncodingMethod_DSA@2@VSHA1@2@H@CryptoPP@@U?$DL_Keys_ECDSA@VECP@CryptoPP@@@2@V?$DL_Algorithm_ECDSA@VECP@CryptoPP@@@2@VDL_SignatureMessageEncodingMethod_DSA@2@VSHA1@2@@2@V?$DL_PublicKey_EC@VECP@CryptoPP@@@2@@CryptoPP@@MBEIXZ 4290d165 f i fipstest.obj
 0001:0000c169       ?DigestSize@?$IteratedHashWithStaticTransform@_KU?$EnumToType@W4ByteOrder@CryptoPP@@$00@CryptoPP@@$0IA@$0EA@VSHA512@2@$0EA@$00@CryptoPP@@UBEIXZ 4290d169 f i cryptlib.obj
 0001:0000c169       ?BlockSize@?$IteratedHash@IU?$EnumToType@W4ByteOrder@CryptoPP@@$00@CryptoPP@@$0EA@VHashTransformation@2@@CryptoPP@@UBEIXZ 4290d169 f i cryptlib.obj
 0001:0000c16d       ?DigestSize@?$IteratedHashWithStaticTransform@IU?$EnumToType@W4ByteOrder@CryptoPP@@$00@CryptoPP@@$0EA@$0CA@VSHA224@2@$0BM@$00@CryptoPP@@UBEIXZ 4290d16d f i cryptlib.obj
 0001:0000c171       ?BlockSize@?$IteratedHash@_KU?$EnumToType@W4ByteOrder@CryptoPP@@$00@CryptoPP@@$0IA@VHashTransformation@2@@CryptoPP@@UBEIXZ 4290d171 f i cryptlib.obj
 0001:0000c177       ?DigestSize@?$IteratedHashWithStaticTransform@_KU?$EnumToType@W4ByteOrder@CryptoPP@@$00@CryptoPP@@$0IA@$0EA@VSHA384@2@$0DA@$00@CryptoPP@@UBEIXZ 4290d177 f i cryptlib.obj
 0001:0000c17b       ?IncorporateEntropy@?$AutoSeededX917RNG@VRijndael@CryptoPP@@@CryptoPP@@UAEXPBEI@Z 4290d17b f i cryptlib.obj
 0001:0000c18d       ?StaticGetValidKeyLength@?$VariableKeyLength@$0BA@$0BA@$0CA@$07$03$0A@@CryptoPP@@SAII@Z 4290d18d f i cryptlib.obj
 0001:0000c1ae       ??$Crop@I@CryptoPP@@YAIII@Z 4290d1ae f i cryptlib.obj
 0001:0000c1c7       ??$UnsignedMin@I_K@CryptoPP@@YA?BIABIAB_K@Z 4290d1c7 f i cryptlib.obj
 0001:0000c1ea       ??$ByteReverse@I@CryptoPP@@YAXPAIPBII@Z 4290d1ea f i cryptlib.obj
 0001:0000c217       ??$ByteReverse@_K@CryptoPP@@YAXPA_KPB_KI@Z 4290d217 f i cryptlib.obj
 0001:0000c24d       ?TransferMessagesTo@BufferedTransformation@CryptoPP@@QAEIAAV12@IABV?$basic_string@DU?$char_traits@D@std@@V?$allocator@D@2@@std@@@Z 4290d24d f i cryptlib.obj
 0001:0000c268       ??_E?$AutoSeededX917RNG@VRijndael@CryptoPP@@@CryptoPP@@UAEPAXI@Z 4290d268 f i cryptlib.obj
 0001:0000c2b3       ?GenerateWord32@RandomNumberGenerator@CryptoPP@@UAEIII@Z 4290d2b3 f   cryptlib.obj
 0001:0000c2fb       ?ChannelPutModifiable2@BufferedTransformation@CryptoPP@@UAEIABV?$basic_string@DU?$char_traits@D@std@@V?$allocator@D@2@@std@@PAEIH_N@Z 4290d2fb f   cryptlib.obj
 0001:0000c327       ?Sign@PK_Signer@CryptoPP@@UBEIAAVRandomNumberGenerator@2@PAVPK_MessageAccumulator@2@PAE@Z 4290d327 f   cryptlib.obj
 0001:0000c36f       ?SignMessage@PK_Signer@CryptoPP@@UBEIAAVRandomNumberGenerator@2@PBEIPAE@Z 4290d36f f   cryptlib.obj
 0001:0000c3cc       ?SignMessageWithRecovery@PK_Signer@CryptoPP@@UBEIAAVRandomNumberGenerator@2@PBEI1IPAE@Z 4290d3cc f   cryptlib.obj
 0001:0000c437       ?Verify@PK_Verifier@CryptoPP@@UBE_NPAVPK_MessageAccumulator@2@@Z 4290d437 f   cryptlib.obj
 0001:0000c477       ?VerifyMessage@PK_Verifier@CryptoPP@@UBE_NPBEI0I@Z 4290d477 f   cryptlib.obj
 0001:0000c4d9       ?Recover@PK_Verifier@CryptoPP@@UBE?AUDecodingResult@2@PAEPAVPK_MessageAccumulator@2@@Z 4290d4d9 f   cryptlib.obj
 0001:0000c51c       ?RecoverMessage@PK_Verifier@CryptoPP@@UBE?AUDecodingResult@2@PAEPBEI1I@Z 4290d51c f   cryptlib.obj
 0001:0000c581       ?GetValidKeyLength@?$SimpleKeyingInterfaceImpl@V?$TwoBases@VBlockCipher@CryptoPP@@URijndael_Info@2@@CryptoPP@@V12@@CryptoPP@@UBEII@Z 4290d581 f i cryptlib.obj
 0001:0000c58e       ?HashEndianCorrectedBlock@?$IteratedHashWithStaticTransform@IU?$EnumToType@W4ByteOrder@CryptoPP@@$00@CryptoPP@@$0EA@$0BE@VSHA1@2@$0A@$0A@@CryptoPP@@MAEXPBI@Z 4290d58e f i cryptlib.obj
 0001:0000c5a2       ?Init@?$IteratedHashWithStaticTransform@IU?$EnumToType@W4ByteOrder@CryptoPP@@$00@CryptoPP@@$0EA@$0BE@VSHA1@2@$0A@$0A@@CryptoPP@@MAEXXZ 4290d5a2 f i cryptlib.obj
 0001:0000c5af       ?StateBuf@?$IteratedHashWithStaticTransform@IU?$EnumToType@W4ByteOrder@CryptoPP@@$00@CryptoPP@@$0EA@$0BE@VSHA1@2@$0A@$0A@@CryptoPP@@MAEPAIXZ 4290d5af f i cryptlib.obj
 0001:0000c5b6       ?DataBuf@?$IteratedHash@IU?$EnumToType@W4ByteOrder@CryptoPP@@$00@CryptoPP@@$0EA@VHashTransformation@2@@CryptoPP@@MAEPAIXZ 4290d5b6 f i cryptlib.obj
 0001:0000c5ba       ?Init@?$IteratedHashWithStaticTransform@IU?$EnumToType@W4ByteOrder@CryptoPP@@$00@CryptoPP@@$0EA@$0CA@VSHA256@2@$0CA@$00@CryptoPP@@MAEXXZ 4290d5ba f i cryptlib.obj
 0001:0000c5c7       ?StateBuf@?$IteratedHashWithStaticTransform@IU?$EnumToType@W4ByteOrder@CryptoPP@@$00@CryptoPP@@$0EA@$0CA@VSHA224@2@$0BM@$00@CryptoPP@@MAEPAIXZ 4290d5c7 f i cryptlib.obj
 0001:0000c5c7       ?StateBuf@?$IteratedHashWithStaticTransform@IU?$EnumToType@W4ByteOrder@CryptoPP@@$00@CryptoPP@@$0EA@$0CA@VSHA256@2@$0CA@$00@CryptoPP@@MAEPAIXZ 4290d5c7 f i cryptlib.obj
 0001:0000c5ce       ?HashEndianCorrectedBlock@?$IteratedHashWithStaticTransform@IU?$EnumToType@W4ByteOrder@CryptoPP@@$00@CryptoPP@@$0EA@$0CA@VSHA224@2@$0BM@$00@CryptoPP@@MAEXPBI@Z 4290d5ce f i cryptlib.obj
 0001:0000c5ce       ?HashEndianCorrectedBlock@?$IteratedHashWithStaticTransform@IU?$EnumToType@W4ByteOrder@CryptoPP@@$00@CryptoPP@@$0EA@$0CA@VSHA256@2@$0CA@$00@CryptoPP@@MAEXPBI@Z 4290d5ce f i cryptlib.obj
 0001:0000c5e2       ?Init@?$IteratedHashWithStaticTransform@IU?$EnumToType@W4ByteOrder@CryptoPP@@$00@CryptoPP@@$0EA@$0CA@VSHA224@2@$0BM@$00@CryptoPP@@MAEXXZ 4290d5e2 f i cryptlib.obj
 0001:0000c5ef       ?Init@?$IteratedHashWithStaticTransform@_KU?$EnumToType@W4ByteOrder@CryptoPP@@$00@CryptoPP@@$0IA@$0EA@VSHA512@2@$0EA@$00@CryptoPP@@MAEXXZ 4290d5ef f i cryptlib.obj
 0001:0000c5fc       ?StateBuf@?$IteratedHashWithStaticTransform@_KU?$EnumToType@W4ByteOrder@CryptoPP@@$00@CryptoPP@@$0IA@$0EA@VSHA512@2@$0EA@$00@CryptoPP@@MAEPA_KXZ 4290d5fc f i cryptlib.obj
 0001:0000c5fc       ?StateBuf@?$IteratedHashWithStaticTransform@_KU?$EnumToType@W4ByteOrder@CryptoPP@@$00@CryptoPP@@$0IA@$0EA@VSHA384@2@$0DA@$00@CryptoPP@@MAEPA_KXZ 4290d5fc f i cryptlib.obj
 0001:0000c603       ?DataBuf@?$IteratedHash@_KU?$EnumToType@W4ByteOrder@CryptoPP@@$00@CryptoPP@@$0IA@VHashTransformation@2@@CryptoPP@@MAEPA_KXZ 4290d603 f i cryptlib.obj
 0001:0000c60a       ?HashEndianCorrectedBlock@?$IteratedHashWithStaticTransform@_KU?$EnumToType@W4ByteOrder@CryptoPP@@$00@CryptoPP@@$0IA@$0EA@VSHA512@2@$0EA@$00@CryptoPP@@MAEXPB_K@Z 4290d60a f i cryptlib.obj
 0001:0000c60a       ?HashEndianCorrectedBlock@?$IteratedHashWithStaticTransform@_KU?$EnumToType@W4ByteOrder@CryptoPP@@$00@CryptoPP@@$0IA@$0EA@VSHA384@2@$0DA@$00@CryptoPP@@MAEXPB_K@Z 4290d60a f i cryptlib.obj
 0001:0000c61e       ?Init@?$IteratedHashWithStaticTransform@_KU?$EnumToType@W4ByteOrder@CryptoPP@@$00@CryptoPP@@$0IA@$0EA@VSHA384@2@$0DA@$00@CryptoPP@@MAEXXZ 4290d61e f i cryptlib.obj
 0001:0000c62b       ?GenerateIntoBufferedTransformation@?$AutoSeededX917RNG@VRijndael@CryptoPP@@@CryptoPP@@UAEXAAVBufferedTransformation@2@ABV?$basic_string@DU?$char_traits@D@std@@V?$allocator@D@2@@std@@_K@Z 4290d62b f i cryptlib.obj
 0001:0000c646       ?allocate@?$FixedSizeAllocatorWithCleanup@I$0DM@V?$NullAllocator@I@CryptoPP@@$00@CryptoPP@@QAEPAIIPBX@Z 4290d646 f i cryptlib.obj
 0001:0000c66b       ?allocate@?$FixedSizeAllocatorWithCleanup@I$0BA@V?$NullAllocator@I@CryptoPP@@$0A@@CryptoPP@@QAEPAIIPBX@Z 4290d66b f i cryptlib.obj
 0001:0000c685       ?allocate@?$FixedSizeAllocatorWithCleanup@I$0BA@V?$NullAllocator@I@CryptoPP@@$00@CryptoPP@@QAEPAIIPBX@Z 4290d685 f i cryptlib.obj
 0001:0000c6a6       ?allocate@?$FixedSizeAllocatorWithCleanup@_K$0BA@V?$NullAllocator@_K@CryptoPP@@$0A@@CryptoPP@@QAEPA_KIPBX@Z 4290d6a6 f i cryptlib.obj
 0001:0000c6c4       ?allocate@?$FixedSizeAllocatorWithCleanup@_K$0BA@V?$NullAllocator@_K@CryptoPP@@$00@CryptoPP@@QAEPA_KIPBX@Z 4290d6c4 f i cryptlib.obj
 0001:0000c6e9       ??0?$SecBlock@IV?$FixedSizeAllocatorWithCleanup@I$0BA@V?$NullAllocator@I@CryptoPP@@$00@CryptoPP@@@CryptoPP@@QAE@I@Z 4290d6e9 f i cryptlib.obj
 0001:0000c708       ??0?$SecBlock@_KV?$FixedSizeAllocatorWithCleanup@_K$0BA@V?$NullAllocator@_K@CryptoPP@@$00@CryptoPP@@@CryptoPP@@QAE@I@Z 4290d708 f i cryptlib.obj
 0001:0000c730       ?allocate@?$FixedSizeAllocatorWithCleanup@E$0BAA@V?$NullAllocator@E@CryptoPP@@$0A@@CryptoPP@@QAEPAEIPBX@Z 4290d730 f i cryptlib.obj
 0001:0000c751       ?deallocate@?$FixedSizeAllocatorWithCleanup@E$0CA@V?$NullAllocator@E@CryptoPP@@$0A@@CryptoPP@@QAEXPAXI@Z 4290d751 f i cryptlib.obj
 0001:0000c76d       ?deallocate@?$FixedSizeAllocatorWithCleanup@E$0BA@V?$NullAllocator@E@CryptoPP@@$0A@@CryptoPP@@QAEXPAXI@Z 4290d76d f i cryptlib.obj
 0001:0000c789       ??0?$SecBlock@IV?$FixedSizeAllocatorWithCleanup@I$0DM@V?$NullAllocator@I@CryptoPP@@$00@CryptoPP@@@CryptoPP@@QAE@I@Z 4290d789 f i cryptlib.obj
 0001:0000c7b1       ?deallocate@?$FixedSizeAllocatorWithCleanup@I$0DM@V?$NullAllocator@I@CryptoPP@@$00@CryptoPP@@QAEXPAXI@Z 4290d7b1 f i cryptlib.obj
 0001:0000c7d9       ??0?$SecBlock@IV?$FixedSizeAllocatorWithCleanup@I$0BA@V?$NullAllocator@I@CryptoPP@@$0A@@CryptoPP@@@CryptoPP@@QAE@I@Z 4290d7d9 f i cryptlib.obj
 0001:0000c7f8       ?deallocate@?$FixedSizeAllocatorWithCleanup@I$0BA@V?$NullAllocator@I@CryptoPP@@$0A@@CryptoPP@@QAEXPAXI@Z 4290d7f8 f i cryptlib.obj
 0001:0000c814       ?deallocate@?$FixedSizeAllocatorWithCleanup@I$0BA@V?$NullAllocator@I@CryptoPP@@$00@CryptoPP@@QAEXPAXI@Z 4290d814 f i cryptlib.obj
 0001:0000c839       ??0?$SecBlock@_KV?$FixedSizeAllocatorWithCleanup@_K$0BA@V?$NullAllocator@_K@CryptoPP@@$0A@@CryptoPP@@@CryptoPP@@QAE@I@Z 4290d839 f i cryptlib.obj
 0001:0000c861       ?deallocate@?$FixedSizeAllocatorWithCleanup@_K$0BA@V?$NullAllocator@_K@CryptoPP@@$0A@@CryptoPP@@QAEXPAXI@Z 4290d861 f i cryptlib.obj
 0001:0000c880       ?deallocate@?$FixedSizeAllocatorWithCleanup@_K$0BA@V?$NullAllocator@_K@CryptoPP@@$00@CryptoPP@@QAEXPAXI@Z 4290d880 f i cryptlib.obj
 0001:0000c8a8       ??0?$SecBlock@EV?$FixedSizeAllocatorWithCleanup@E$0BAA@V?$NullAllocator@E@CryptoPP@@$0A@@CryptoPP@@@CryptoPP@@QAE@I@Z 4290d8a8 f i cryptlib.obj
 0001:0000c8d0       ?deallocate@?$FixedSizeAllocatorWithCleanup@E$0BAA@V?$NullAllocator@E@CryptoPP@@$0A@@CryptoPP@@QAEXPAXI@Z 4290d8d0 f i cryptlib.obj
 0001:0000c8ef       ?reallocate@?$FixedSizeAllocatorWithCleanup@I$0DM@V?$NullAllocator@I@CryptoPP@@$00@CryptoPP@@QAEPAIPAIII_N@Z 4290d8ef f i cryptlib.obj
 0001:0000c96d       ?reallocate@?$FixedSizeAllocatorWithCleanup@I$0BA@V?$NullAllocator@I@CryptoPP@@$0A@@CryptoPP@@QAEPAIPAIII_N@Z 4290d96d f i cryptlib.obj
 0001:0000c9df       ?reallocate@?$FixedSizeAllocatorWithCleanup@I$0BA@V?$NullAllocator@I@CryptoPP@@$00@CryptoPP@@QAEPAIPAIII_N@Z 4290d9df f i cryptlib.obj
 0001:0000ca5d       ?reallocate@?$FixedSizeAllocatorWithCleanup@_K$0BA@V?$NullAllocator@_K@CryptoPP@@$0A@@CryptoPP@@QAEPA_KPA_KII_N@Z 4290da5d f i cryptlib.obj
 0001:0000cacf       ?reallocate@?$FixedSizeAllocatorWithCleanup@_K$0BA@V?$NullAllocator@_K@CryptoPP@@$00@CryptoPP@@QAEPA_KPA_KII_N@Z 4290dacf f i cryptlib.obj
 0001:0000cb4d       ??1OpenErr@FileSink@CryptoPP@@UAE@XZ 4290db4d f i files.obj
 0001:0000cb4d       ??1InvalidMaterial@CryptoMaterial@CryptoPP@@UAE@XZ 4290db4d f i asn.obj
 0001:0000cb4d       ??1WriteErr@FileSink@CryptoPP@@UAE@XZ 4290db4d f i files.obj
 0001:0000cb4d       ??1ValueTypeMismatch@NameValuePairs@CryptoPP@@UAE@XZ 4290db4d f i algparam.obj
 0001:0000cb4d       ??1InputRejected@?$InputRejecting@VFilter@CryptoPP@@@CryptoPP@@UAE@XZ 4290db4d f i asn.obj
 0001:0000cb4d       ??1InvalidKeyLength@CryptoPP@@UAE@XZ 4290db4d f i cryptlib.obj
 0001:0000cb4d       ??1NoChannelSupport@BufferedTransformation@CryptoPP@@UAE@XZ 4290db4d f i cryptlib.obj
 0001:0000cb4d       ??1InvalidCiphertext@CryptoPP@@UAE@XZ 4290db4d f i cryptlib.obj
 0001:0000cb4d       ??1DL_BadElement@CryptoPP@@UAE@XZ 4290db4d f i dh.obj
 0001:0000cb4d       ??1BlockingInputOnly@BufferedTransformation@CryptoPP@@UAE@XZ 4290db4d f i asn.obj
 0001:0000cb4d       ??1InvalidChannelName@BufferedTransformation@CryptoPP@@UAE@XZ 4290db4d f i filters.obj
 0001:0000cb4d       ??1InvalidRounds@CryptoPP@@UAE@XZ 4290db4d f i dll.obj
 0001:0000cb4d       ??1KeyTooShort@PK_SignatureScheme@CryptoPP@@UAE@XZ 4290db4d f i dll.obj
 0001:0000cb4d       ??1InputRejected@?$InputRejecting@VBufferedTransformation@CryptoPP@@@CryptoPP@@UAE@XZ 4290db4d f i asn.obj
 0001:0000cb4d       ??1BERDecodeErr@CryptoPP@@UAE@XZ 4290db4d f i asn.obj
 0001:0000cb4d       ??1OpenErr@FileStore@CryptoPP@@UAE@XZ 4290db4d f i files.obj
 0001:0000cb4d       ??1HashInputTooLong@CryptoPP@@UAE@XZ 4290db4d f i cryptlib.obj
 0001:0000cb4d       ??1ReadErr@FileStore@CryptoPP@@UAE@XZ 4290db4d f i files.obj
 0001:0000cb52       ??1DivideByZero@PolynomialMod2@CryptoPP@@UAE@XZ 4290db52 f i gf2n.obj
 0001:0000cb52       ??1NotImplemented@CryptoPP@@UAE@XZ 4290db52 f i asn.obj
 0001:0000cb52       ??1InvalidDataFormat@CryptoPP@@UAE@XZ 4290db52 f i asn.obj
 0001:0000cb52       ??1DivideByZero@Integer@CryptoPP@@UAE@XZ 4290db52 f i integer.obj
 0001:0000cb52       ??1OpenPGPDecodeErr@Integer@CryptoPP@@UAE@XZ 4290db52 f i integer.obj
 0001:0000cb52       ??1RandomNumberNotFound@Integer@CryptoPP@@UAE@XZ 4290db52 f i algebra.obj
 0001:0000cb52       ??1InvalidKeyLength@PK_SignatureScheme@CryptoPP@@UAE@XZ 4290db52 f i dll.obj
 0001:0000cb52       ??1CannotFlush@CryptoPP@@UAE@XZ 4290db52 f i asn.obj
 0001:0000cb52       ??1OS_RNG_Err@CryptoPP@@UAE@XZ 4290db52 f i cryptlib.obj
 0001:0000cb52       ??1HashVerificationFailed@HashVerificationFilter@CryptoPP@@UAE@XZ 4290db52 f i filters.obj
 0001:0000cb52       ??1MismatchDetected@EqualityComparisonFilter@CryptoPP@@UAE@XZ 4290db52 f i mqueue.obj
 0001:0000cb52       ??1InvalidPlaintextLength@PK_Encryptor@CryptoPP@@UAE@XZ 4290db52 f i dll.obj
 0001:0000cb52       ??1SelfTestFailure@CryptoPP@@UAE@XZ 4290db52 f i cryptlib.obj
 0001:0000cb52       ??1InvalidArgument@CryptoPP@@UAE@XZ 4290db52 f i algparam.obj
 0001:0000cb52       ??1Err@FileStore@CryptoPP@@UAE@XZ 4290db52 f i files.obj
 0001:0000cb52       ??1ParameterNotUsed@AlgorithmParametersBase@CryptoPP@@UAE@XZ 4290db52 f i algparam.obj
 0001:0000cb52       ??1BadState@AuthenticatedSymmetricCipher@CryptoPP@@UAE@XZ 4290db52 f i authenc.obj
 0001:0000cb52       ??1Err@FileSink@CryptoPP@@UAE@XZ 4290db52 f i files.obj
 0001:0000cb52       ??1SignatureVerificationFailed@SignatureVerificationFilter@CryptoPP@@UAE@XZ 4290db52 f i filters.obj
 0001:0000cb57       ?ChannelPutWord16@BufferedTransformation@CryptoPP@@QAEIABV?$basic_string@DU?$char_traits@D@std@@V?$allocator@D@2@@std@@GW4ByteOrder@2@_N@Z 4290db57 f   cryptlib.obj
 0001:0000cb8c       ?ChannelPutWord32@BufferedTransformation@CryptoPP@@QAEIABV?$basic_string@DU?$char_traits@D@std@@V?$allocator@D@2@@std@@IW4ByteOrder@2@_N@Z 4290db8c f   cryptlib.obj
 0001:0000cbc0       ?PutWord16@BufferedTransformation@CryptoPP@@QAEIGW4ByteOrder@2@_N@Z 4290dbc0 f   cryptlib.obj
 0001:0000cbd9       ??_EInvalidCiphertext@CryptoPP@@UAEPAXI@Z 4290dbd9 f i cryptlib.obj
 0001:0000cbd9       ??_EBERDecodeErr@CryptoPP@@UAEPAXI@Z 4290dbd9 f i asn.obj
 0001:0000cbd9       ??_EHashInputTooLong@CryptoPP@@UAEPAXI@Z 4290dbd9 f i cryptlib.obj
 0001:0000cbd9       ??_EInvalidMaterial@CryptoMaterial@CryptoPP@@UAEPAXI@Z 4290dbd9 f i asn.obj
 0001:0000cbd9       ??_EInvalidKeyLength@CryptoPP@@UAEPAXI@Z 4290dbd9 f i cryptlib.obj
 0001:0000cc24       ?PutWord32@BufferedTransformation@CryptoPP@@QAEIIW4ByteOrder@2@_N@Z 4290dc24 f   cryptlib.obj
 0001:0000cc3d       ?New@?$SecBlock@IV?$FixedSizeAllocatorWithCleanup@I$0DM@V?$NullAllocator@I@CryptoPP@@$00@CryptoPP@@@CryptoPP@@QAEXI@Z 4290dc3d f i cryptlib.obj
 0001:0000cc66       ?New@?$SecBlock@IV?$FixedSizeAllocatorWithCleanup@I$0BA@V?$NullAllocator@I@CryptoPP@@$0A@@CryptoPP@@@CryptoPP@@QAEXI@Z 4290dc66 f i cryptlib.obj
 0001:0000cc87       ?New@?$SecBlock@IV?$FixedSizeAllocatorWithCleanup@I$0BA@V?$NullAllocator@I@CryptoPP@@$00@CryptoPP@@@CryptoPP@@QAEXI@Z 4290dc87 f i cryptlib.obj
 0001:0000cca8       ?New@?$SecBlock@_KV?$FixedSizeAllocatorWithCleanup@_K$0BA@V?$NullAllocator@_K@CryptoPP@@$0A@@CryptoPP@@@CryptoPP@@QAEXI@Z 4290dca8 f i cryptlib.obj
 0001:0000ccd1       ?New@?$SecBlock@_KV?$FixedSizeAllocatorWithCleanup@_K$0BA@V?$NullAllocator@_K@CryptoPP@@$00@CryptoPP@@@CryptoPP@@QAEXI@Z 4290dcd1 f i cryptlib.obj
 0001:0000ccfa       ??1?$FixedSizeSecBlock@E$0CA@V?$FixedSizeAllocatorWithCleanup@E$0CA@V?$NullAllocator@E@CryptoPP@@$0A@@CryptoPP@@@CryptoPP@@QAE@XZ 4290dcfa f i cryptlib.obj
 0001:0000cd06       ??1?$FixedSizeSecBlock@E$0BA@V?$FixedSizeAllocatorWithCleanup@E$0BA@V?$NullAllocator@E@CryptoPP@@$0A@@CryptoPP@@@CryptoPP@@QAE@XZ 4290dd06 f i cryptlib.obj
 0001:0000cd12       ??1X917RNG@CryptoPP@@UAE@XZ 4290dd12 f i cryptlib.obj
 0001:0000cd87       ??1?$FixedSizeAlignedSecBlock@I$0BA@$0A@@CryptoPP@@QAE@XZ 4290dd87 f i cryptlib.obj
 0001:0000cd93       ??1?$FixedSizeSecBlock@E$0BAA@V?$FixedSizeAllocatorWithCleanup@E$0BAA@V?$NullAllocator@E@CryptoPP@@$0A@@CryptoPP@@@CryptoPP@@QAE@XZ 4290dd93 f i cryptlib.obj
 0001:0000cda5       ??1RandomPool@CryptoPP@@UAE@XZ 4290dda5 f i cryptlib.obj
 0001:0000cdee       ??1?$AlgorithmImpl@V?$IteratedHash@IU?$EnumToType@W4ByteOrder@CryptoPP@@$00@CryptoPP@@$0EA@VHashTransformation@2@@CryptoPP@@VSHA1@2@@CryptoPP@@UAE@XZ 4290ddee f i cryptlib.obj
 0001:0000cdee       ??1?$IteratedHash@IU?$EnumToType@W4ByteOrder@CryptoPP@@$00@CryptoPP@@$0EA@VHashTransformation@2@@CryptoPP@@UAE@XZ 4290ddee f i cryptlib.obj
 0001:0000cdee       ??1?$AlgorithmImpl@V?$IteratedHash@IU?$EnumToType@W4ByteOrder@CryptoPP@@$00@CryptoPP@@$0EA@VHashTransformation@2@@CryptoPP@@VSHA256@2@@CryptoPP@@UAE@XZ 4290ddee f i cryptlib.obj
 0001:0000cdee       ??1?$ClonableImpl@VSHA1@CryptoPP@@V?$AlgorithmImpl@V?$IteratedHash@IU?$EnumToType@W4ByteOrder@CryptoPP@@$00@CryptoPP@@$0EA@VHashTransformation@2@@CryptoPP@@VSHA1@2@@2@@CryptoPP@@UAE@XZ 4290ddee f i cryptlib.obj
 0001:0000cdee       ??1?$AlgorithmImpl@V?$IteratedHash@IU?$EnumToType@W4ByteOrder@CryptoPP@@$00@CryptoPP@@$0EA@VHashTransformation@2@@CryptoPP@@VSHA224@2@@CryptoPP@@UAE@XZ 4290ddee f i cryptlib.obj
 0001:0000cdee       ??1?$ClonableImpl@VSHA224@CryptoPP@@V?$AlgorithmImpl@V?$IteratedHash@IU?$EnumToType@W4ByteOrder@CryptoPP@@$00@CryptoPP@@$0EA@VHashTransformation@2@@CryptoPP@@VSHA224@2@@2@@CryptoPP@@UAE@XZ 4290ddee f i cryptlib.obj
 0001:0000cdee       ??1?$ClonableImpl@VSHA256@CryptoPP@@V?$AlgorithmImpl@V?$IteratedHash@IU?$EnumToType@W4ByteOrder@CryptoPP@@$00@CryptoPP@@$0EA@VHashTransformation@2@@CryptoPP@@VSHA256@2@@2@@CryptoPP@@UAE@XZ 4290ddee f i cryptlib.obj
 0001:0000cdfd       ??1?$IteratedHashWithStaticTransform@IU?$EnumToType@W4ByteOrder@CryptoPP@@$00@CryptoPP@@$0EA@$0BE@VSHA1@2@$0A@$0A@@CryptoPP@@UAE@XZ 4290ddfd f i cryptlib.obj
 0001:0000ce1e       ??1SHA1@CryptoPP@@UAE@XZ   4290de1e f i cryptlib.obj
 0001:0000ce23       ??_ESHA1@CryptoPP@@UAEPAXI@Z 4290de23 f i cryptlib.obj
 0001:0000ce71       ??1?$FixedSizeAlignedSecBlock@I$0BA@$00@CryptoPP@@QAE@XZ 4290de71 f i cryptlib.obj
 0001:0000ce7d       ??1SHA256@CryptoPP@@UAE@XZ 4290de7d f i cryptlib.obj
 0001:0000ce7d       ??1SHA224@CryptoPP@@UAE@XZ 4290de7d f i cryptlib.obj
 0001:0000ce82       ??1?$IteratedHash@_KU?$EnumToType@W4ByteOrder@CryptoPP@@$00@CryptoPP@@$0IA@VHashTransformation@2@@CryptoPP@@UAE@XZ 4290de82 f i cryptlib.obj
 0001:0000ce97       ??1?$ClonableImpl@VSHA384@CryptoPP@@V?$AlgorithmImpl@V?$IteratedHash@_KU?$EnumToType@W4ByteOrder@CryptoPP@@$00@CryptoPP@@$0IA@VHashTransformation@2@@CryptoPP@@VSHA384@2@@2@@CryptoPP@@UAE@XZ 4290de97 f i cryptlib.obj
 0001:0000ce97       ??1?$AlgorithmImpl@V?$IteratedHash@_KU?$EnumToType@W4ByteOrder@CryptoPP@@$00@CryptoPP@@$0IA@VHashTransformation@2@@CryptoPP@@VSHA512@2@@CryptoPP@@UAE@XZ 4290de97 f i cryptlib.obj
 0001:0000ce97       ??1?$AlgorithmImpl@V?$IteratedHash@_KU?$EnumToType@W4ByteOrder@CryptoPP@@$00@CryptoPP@@$0IA@VHashTransformation@2@@CryptoPP@@VSHA384@2@@CryptoPP@@UAE@XZ 4290de97 f i cryptlib.obj
 0001:0000ce97       ??1?$ClonableImpl@VSHA512@CryptoPP@@V?$AlgorithmImpl@V?$IteratedHash@_KU?$EnumToType@W4ByteOrder@CryptoPP@@$00@CryptoPP@@$0IA@VHashTransformation@2@@CryptoPP@@VSHA512@2@@2@@CryptoPP@@UAE@XZ 4290de97 f i cryptlib.obj
 0001:0000ce9c       ??1?$FixedSizeAlignedSecBlock@_K$0BA@$00@CryptoPP@@QAE@XZ 4290de9c f i cryptlib.obj
 0001:0000ceae       ??1SHA512@CryptoPP@@UAE@XZ 4290deae f i cryptlib.obj
 0001:0000ceae       ??1SHA384@CryptoPP@@UAE@XZ 4290deae f i cryptlib.obj
 0001:0000ceb3       ??_ESHA384@CryptoPP@@UAEPAXI@Z 4290deb3 f i cryptlib.obj
 0001:0000ceb3       ??_ESHA512@CryptoPP@@UAEPAXI@Z 4290deb3 f i cryptlib.obj
 0001:0000cf01       ??0AutoSeededRandomPool@CryptoPP@@QAE@_NI@Z 4290df01 f i cryptlib.obj
 0001:0000cf3f       ??1AutoSeededRandomPool@CryptoPP@@UAE@XZ 4290df3f f i cryptlib.obj
 0001:0000cf44       ??_FAutoSeededRandomPool@CryptoPP@@QAEXXZ 4290df44 f i cryptlib.obj
 0001:0000cf4e       ??_EAutoSeededRandomPool@CryptoPP@@UAEPAXI@Z 4290df4e f i cryptlib.obj
 0001:0000cf99       ?GenerateIntoBufferedTransformation@RandomNumberGenerator@CryptoPP@@UAEXAAVBufferedTransformation@2@ABV?$basic_string@DU?$char_traits@D@std@@V?$allocator@D@2@@std@@_K@Z 4290df99 f   cryptlib.obj
 0001:0000d07a       ??0InvalidDataFormat@CryptoPP@@QAE@ABV?$basic_string@DU?$char_traits@D@std@@V?$allocator@D@2@@std@@@Z 4290e07a f i cryptlib.obj
 0001:0000d094       ??0SelfTestFailure@CryptoPP@@QAE@ABV?$basic_string@DU?$char_traits@D@std@@V?$allocator@D@2@@std@@@Z 4290e094 f i cryptlib.obj
 0001:0000d0ae       ??0SelfTestFailure@CryptoPP@@QAE@ABV01@@Z 4290e0ae f i cryptlib.obj
 0001:0000d0c6       ??1Base@Rijndael@CryptoPP@@UAE@XZ 4290e0c6 f i cryptlib.obj
 0001:0000d0db       ??0HashInputTooLong@CryptoPP@@QAE@ABV01@@Z 4290e0db f i cryptlib.obj
 0001:0000d0f3       ??1?$IteratedHashWithStaticTransform@IU?$EnumToType@W4ByteOrder@CryptoPP@@$00@CryptoPP@@$0EA@$0CA@VSHA256@2@$0CA@$00@CryptoPP@@UAE@XZ 4290e0f3 f i cryptlib.obj
 0001:0000d0f3       ??1?$IteratedHashWithStaticTransform@IU?$EnumToType@W4ByteOrder@CryptoPP@@$00@CryptoPP@@$0EA@$0CA@VSHA224@2@$0BM@$00@CryptoPP@@UAE@XZ 4290e0f3 f i cryptlib.obj
 0001:0000d114       ??_ESHA256@CryptoPP@@UAEPAXI@Z 4290e114 f i cryptlib.obj
 0001:0000d114       ??_ESHA224@CryptoPP@@UAEPAXI@Z 4290e114 f i cryptlib.obj
 0001:0000d162       ??0NoChannelSupport@BufferedTransformation@CryptoPP@@QAE@ABV?$basic_string@DU?$char_traits@D@std@@V?$allocator@D@2@@std@@@Z 4290e162 f i cryptlib.obj
 0001:0000d1b5       ??1?$IteratedHashWithStaticTransform@_KU?$EnumToType@W4ByteOrder@CryptoPP@@$00@CryptoPP@@$0IA@$0EA@VSHA512@2@$0EA@$00@CryptoPP@@UAE@XZ 4290e1b5 f i cryptlib.obj
 0001:0000d1b5       ??1?$IteratedHashWithStaticTransform@_KU?$EnumToType@W4ByteOrder@CryptoPP@@$00@CryptoPP@@$0IA@$0EA@VSHA384@2@$0DA@$00@CryptoPP@@UAE@XZ 4290e1b5 f i cryptlib.obj
 0001:0000d1d7       ??0OS_RNG_Err@CryptoPP@@QAE@ABV01@@Z 4290e1d7 f i cryptlib.obj
 0001:0000d1ef       ?ThrowIfResynchronizable@SimpleKeyingInterface@CryptoPP@@IAEXXZ 4290e1ef f   cryptlib.obj
 0001:0000d259       ?ThrowIfInvalidIV@SimpleKeyingInterface@CryptoPP@@IAEXPBE@Z 4290e259 f   cryptlib.obj
 0001:0000d2cb       ?ProcessLastBlock@StreamTransformation@CryptoPP@@UAEXPAEPBEI@Z 4290e2cb f   cryptlib.obj
 0001:0000d347       ?ChannelCreatePutSpace@BufferedTransformation@CryptoPP@@UAEPAEABV?$basic_string@DU?$char_traits@D@std@@V?$allocator@D@2@@std@@AAI@Z 4290e347 f   cryptlib.obj
 0001:0000d396       ??0NoChannelSupport@BufferedTransformation@CryptoPP@@QAE@ABU012@@Z 4290e396 f i cryptlib.obj
 0001:0000d3ae       ?ChannelPut2@BufferedTransformation@CryptoPP@@UAEIABV?$basic_string@DU?$char_traits@D@std@@V?$allocator@D@2@@std@@PBEIH_N@Z 4290e3ae f   cryptlib.obj
 0001:0000d406       ?ChannelFlush@BufferedTransformation@CryptoPP@@UAE_NABV?$basic_string@DU?$char_traits@D@std@@V?$allocator@D@2@@std@@_NH1@Z 4290e406 f   cryptlib.obj
 0001:0000d45b       ?ChannelMessageSeriesEnd@BufferedTransformation@CryptoPP@@UAE_NABV?$basic_string@DU?$char_traits@D@std@@V?$allocator@D@2@@std@@H_N@Z 4290e45b f   cryptlib.obj
 0001:0000d4ad       ?StaticAlgorithmName@?$AlgorithmImpl@V?$SimpleKeyingInterfaceImpl@V?$TwoBases@VBlockCipher@CryptoPP@@URijndael_Info@2@@CryptoPP@@V12@@CryptoPP@@V12@@CryptoPP@@SA?AV?$basic_string@DU?$char_traits@D@std@@V?$allocator@D@2@@std@@XZ 4290e4ad f i cryptlib.obj
 0001:0000d4c7       ?AlgorithmName@?$AlgorithmImpl@V?$SimpleKeyingInterfaceImpl@V?$TwoBases@VBlockCipher@CryptoPP@@URijndael_Info@2@@CryptoPP@@V12@@CryptoPP@@V12@@CryptoPP@@UBE?AV?$basic_string@DU?$char_traits@D@std@@V?$allocator@D@2@@std@@XZ 4290e4c7 f i cryptlib.obj
 0001:0000d4e3       ?StaticAlgorithmName@?$AlgorithmImpl@V?$IteratedHash@IU?$EnumToType@W4ByteOrder@CryptoPP@@$00@CryptoPP@@$0EA@VHashTransformation@2@@CryptoPP@@VSHA1@2@@CryptoPP@@SA?AV?$basic_string@DU?$char_traits@D@std@@V?$allocator@D@2@@std@@XZ 4290e4e3 f i cryptlib.obj
 0001:0000d4fd       ?AlgorithmName@?$AlgorithmImpl@V?$IteratedHash@IU?$EnumToType@W4ByteOrder@CryptoPP@@$00@CryptoPP@@$0EA@VHashTransformation@2@@CryptoPP@@VSHA1@2@@CryptoPP@@UBE?AV?$basic_string@DU?$char_traits@D@std@@V?$allocator@D@2@@std@@XZ 4290e4fd f i cryptlib.obj
 0001:0000d519       ?StaticAlgorithmName@?$AlgorithmImpl@V?$IteratedHash@IU?$EnumToType@W4ByteOrder@CryptoPP@@$00@CryptoPP@@$0EA@VHashTransformation@2@@CryptoPP@@VSHA256@2@@CryptoPP@@SA?AV?$basic_string@DU?$char_traits@D@std@@V?$allocator@D@2@@std@@XZ 4290e519 f i cryptlib.obj
 0001:0000d533       ?AlgorithmName@?$AlgorithmImpl@V?$IteratedHash@IU?$EnumToType@W4ByteOrder@CryptoPP@@$00@CryptoPP@@$0EA@VHashTransformation@2@@CryptoPP@@VSHA256@2@@CryptoPP@@UBE?AV?$basic_string@DU?$char_traits@D@std@@V?$allocator@D@2@@std@@XZ 4290e533 f i cryptlib.obj
 0001:0000d54f       ?StaticAlgorithmName@?$AlgorithmImpl@V?$IteratedHash@IU?$EnumToType@W4ByteOrder@CryptoPP@@$00@CryptoPP@@$0EA@VHashTransformation@2@@CryptoPP@@VSHA224@2@@CryptoPP@@SA?AV?$basic_string@DU?$char_traits@D@std@@V?$allocator@D@2@@std@@XZ 4290e54f f i cryptlib.obj
 0001:0000d569       ?AlgorithmName@?$AlgorithmImpl@V?$IteratedHash@IU?$EnumToType@W4ByteOrder@CryptoPP@@$00@CryptoPP@@$0EA@VHashTransformation@2@@CryptoPP@@VSHA224@2@@CryptoPP@@UBE?AV?$basic_string@DU?$char_traits@D@std@@V?$allocator@D@2@@std@@XZ 4290e569 f i cryptlib.obj
 0001:0000d585       ?StaticAlgorithmName@?$AlgorithmImpl@V?$IteratedHash@_KU?$EnumToType@W4ByteOrder@CryptoPP@@$00@CryptoPP@@$0IA@VHashTransformation@2@@CryptoPP@@VSHA512@2@@CryptoPP@@SA?AV?$basic_string@DU?$char_traits@D@std@@V?$allocator@D@2@@std@@XZ 4290e585 f i cryptlib.obj
 0001:0000d59f       ?AlgorithmName@?$AlgorithmImpl@V?$IteratedHash@_KU?$EnumToType@W4ByteOrder@CryptoPP@@$00@CryptoPP@@$0IA@VHashTransformation@2@@CryptoPP@@VSHA512@2@@CryptoPP@@UBE?AV?$basic_string@DU?$char_traits@D@std@@V?$allocator@D@2@@std@@XZ 4290e59f f i cryptlib.obj
 0001:0000d5bb       ?StaticAlgorithmName@?$AlgorithmImpl@V?$IteratedHash@_KU?$EnumToType@W4ByteOrder@CryptoPP@@$00@CryptoPP@@$0IA@VHashTransformation@2@@CryptoPP@@VSHA384@2@@CryptoPP@@SA?AV?$basic_string@DU?$char_traits@D@std@@V?$allocator@D@2@@std@@XZ 4290e5bb f i cryptlib.obj
 0001:0000d5d5       ?AlgorithmName@?$AlgorithmImpl@V?$IteratedHash@_KU?$EnumToType@W4ByteOrder@CryptoPP@@$00@CryptoPP@@$0IA@VHashTransformation@2@@CryptoPP@@VSHA384@2@@CryptoPP@@UBE?AV?$basic_string@DU?$char_traits@D@std@@V?$allocator@D@2@@std@@XZ 4290e5d5 f i cryptlib.obj
 0001:0000d5f1       ??$IntToString@H@CryptoPP@@YA?AV?$basic_string@DU?$char_traits@D@std@@V?$allocator@D@2@@std@@HI@Z 4290e5f1 f i cryptlib.obj
 0001:0000d6fa       ??0HashInputTooLong@CryptoPP@@QAE@ABV?$basic_string@DU?$char_traits@D@std@@V?$allocator@D@2@@std@@@Z 4290e6fa f i cryptlib.obj
 0001:0000d74d       ??0Algorithm@CryptoPP@@QAE@_N@Z 4290e74d f   cryptlib.obj
 0001:0000d814       ?ThrowIfInvalidIVLength@SimpleKeyingInterface@CryptoPP@@IAEIH@Z 4290e814 f   cryptlib.obj
 0001:0000d9ce       ?SpecifyDataLengths@AuthenticatedSymmetricCipher@CryptoPP@@QAEX_K00@Z 4290e9ce f   cryptlib.obj
 0001:0000dc7c       ?EncryptAndAuthenticate@AuthenticatedSymmetricCipher@CryptoPP@@UAEXPAE0IPBEH1I1I@Z 4290ec7c f   cryptlib.obj
 0001:0000dcd5       ?DecryptAndVerify@AuthenticatedSymmetricCipher@CryptoPP@@UAE_NPAEPBEI1H1I1I@Z 4290ecd5 f   cryptlib.obj
 0001:0000dd2e       ?ThrowIfInvalidTruncatedSize@HashTransformation@CryptoPP@@IBEXI@Z 4290ed2e f   cryptlib.obj
 0001:0000ddfa       ??0InvalidKeyLength@CryptoPP@@QAE@ABV?$basic_string@DU?$char_traits@D@std@@V?$allocator@D@2@@std@@I@Z 4290edfa f i cryptlib.obj
 0001:0000dea9       ??0?$SecBlock@IV?$FixedSizeAllocatorWithCleanup@I$0DM@V?$NullAllocator@I@CryptoPP@@$00@CryptoPP@@@CryptoPP@@QAE@ABV01@@Z 4290eea9 f i cryptlib.obj
 0001:0000def3       ??0?$SecBlock@IV?$FixedSizeAllocatorWithCleanup@I$0BA@V?$NullAllocator@I@CryptoPP@@$0A@@CryptoPP@@@CryptoPP@@QAE@ABV01@@Z 4290eef3 f i cryptlib.obj
 0001:0000df2b       ??0?$SecBlock@IV?$FixedSizeAllocatorWithCleanup@I$0BA@V?$NullAllocator@I@CryptoPP@@$00@CryptoPP@@@CryptoPP@@QAE@ABV01@@Z 4290ef2b f i cryptlib.obj
 0001:0000df63       ??0?$SecBlock@_KV?$FixedSizeAllocatorWithCleanup@_K$0BA@V?$NullAllocator@_K@CryptoPP@@$0A@@CryptoPP@@@CryptoPP@@QAE@ABV01@@Z 4290ef63 f i cryptlib.obj
 0001:0000dfad       ??0?$SecBlock@_KV?$FixedSizeAllocatorWithCleanup@_K$0BA@V?$NullAllocator@_K@CryptoPP@@$00@CryptoPP@@@CryptoPP@@QAE@ABV01@@Z 4290efad f i cryptlib.obj
 0001:0000dff7       ?Assign@?$SecBlock@IV?$FixedSizeAllocatorWithCleanup@I$0DM@V?$NullAllocator@I@CryptoPP@@$00@CryptoPP@@@CryptoPP@@QAEXABV12@@Z 4290eff7 f i cryptlib.obj
 0001:0000e032       ?Assign@?$SecBlock@IV?$FixedSizeAllocatorWithCleanup@I$0BA@V?$NullAllocator@I@CryptoPP@@$0A@@CryptoPP@@@CryptoPP@@QAEXABV12@@Z 4290f032 f i cryptlib.obj
 0001:0000e061       ?Assign@?$SecBlock@IV?$FixedSizeAllocatorWithCleanup@I$0BA@V?$NullAllocator@I@CryptoPP@@$00@CryptoPP@@@CryptoPP@@QAEXABV12@@Z 4290f061 f i cryptlib.obj
 0001:0000e090       ?Assign@?$SecBlock@_KV?$FixedSizeAllocatorWithCleanup@_K$0BA@V?$NullAllocator@_K@CryptoPP@@$0A@@CryptoPP@@@CryptoPP@@QAEXABV12@@Z 4290f090 f i cryptlib.obj
 0001:0000e0cb       ?Assign@?$SecBlock@_KV?$FixedSizeAllocatorWithCleanup@_K$0BA@V?$NullAllocator@_K@CryptoPP@@$00@CryptoPP@@@CryptoPP@@QAEXABV12@@Z 4290f0cb f i cryptlib.obj
 0001:0000e106       ??$ConditionalByteReverse@I@CryptoPP@@YAXW4ByteOrder@0@PAIPBII@Z 4290f106 f i cryptlib.obj
 0001:0000e13e       ??$ConditionalByteReverse@_K@CryptoPP@@YAXW4ByteOrder@0@PA_KPB_KI@Z 4290f13e f i cryptlib.obj
 0001:0000e176       ?ThrowIfInvalidKeyLength@SimpleKeyingInterface@CryptoPP@@IAEXI@Z 4290f176 f   cryptlib.obj
 0001:0000e1d1       ??0InvalidKeyLength@CryptoPP@@QAE@ABV01@@Z 4290f1d1 f i cryptlib.obj
 0001:0000e1e9       ?AlgorithmName@ClassNullRNG@CryptoPP@@UBE?AV?$basic_string@DU?$char_traits@D@std@@V?$allocator@D@2@@std@@XZ 4290f1e9 f i cryptlib.obj
 0001:0000e205       ?GenerateBlock@ClassNullRNG@CryptoPP@@UAEXPAEI@Z 4290f205 f i cryptlib.obj
 0001:0000e247       ?TruncatedVerify@HashTransformation@CryptoPP@@UAE_NPBEI@Z 4290f247 f   cryptlib.obj
 0001:0000e2b0       ??0PK_DefaultEncryptionFilter@CryptoPP@@QAE@AAVRandomNumberGenerator@1@ABVPK_Encryptor@1@PAVBufferedTransformation@1@ABVNameValuePairs@1@@Z 4290f2b0 f i cryptlib.obj
 0001:0000e322       ??_EPK_DefaultDecryptionFilter@CryptoPP@@W3AEPAXI@Z 4290f322 f i cryptlib.obj
 0001:0000e322       ??_EPK_DefaultEncryptionFilter@CryptoPP@@W3AEPAXI@Z 4290f322 f i cryptlib.obj
 0001:0000e32a       ??_EPK_DefaultEncryptionFilter@CryptoPP@@UAEPAXI@Z 4290f32a f i cryptlib.obj
 0001:0000e32a       ??_GPK_DefaultDecryptionFilter@CryptoPP@@UAEPAXI@Z 4290f32a f i cryptlib.obj
 0001:0000e32a       ??_EPK_DefaultDecryptionFilter@CryptoPP@@UAEPAXI@Z 4290f32a f i cryptlib.obj
 0001:0000e32a       ??_GPK_DefaultEncryptionFilter@CryptoPP@@UAEPAXI@Z 4290f32a f i cryptlib.obj
 0001:0000e346       ?IsolatedInitialize@BufferedTransformation@CryptoPP@@UAEXABVNameValuePairs@2@@Z 4290f346 f i cryptlib.obj
 0001:0000e388       ?CreateEncryptionFilter@PK_Encryptor@CryptoPP@@UBEPAVBufferedTransformation@2@AAVRandomNumberGenerator@2@PAV32@ABVNameValuePairs@2@@Z 4290f388 f   cryptlib.obj
 0001:0000e3ca       ??0PK_DefaultDecryptionFilter@CryptoPP@@QAE@AAVRandomNumberGenerator@1@ABVPK_Decryptor@1@PAVBufferedTransformation@1@ABVNameValuePairs@1@@Z 4290f3ca f i cryptlib.obj
 0001:0000e442       ??1PK_DefaultEncryptionFilter@CryptoPP@@UAE@XZ 4290f442 f i cryptlib.obj
 0001:0000e442       ??1PK_DefaultDecryptionFilter@CryptoPP@@UAE@XZ 4290f442 f i cryptlib.obj
 0001:0000e48d       ?CreateDecryptionFilter@PK_Decryptor@CryptoPP@@UBEPAVBufferedTransformation@2@AAVRandomNumberGenerator@2@PAV32@ABVNameValuePairs@2@@Z 4290f48d f   cryptlib.obj
 0001:0000e4cf       ??0BitBucket@CryptoPP@@QAE@XZ 4290f4cf f i cryptlib.obj
 0001:0000e4e8       ?Put2@BitBucket@CryptoPP@@UAEIPBEIH_N@Z 4290f4e8 f i cryptlib.obj
 0001:0000e4ed       ??_EBitBucket@CryptoPP@@W3AEPAXI@Z 4290f4ed f i cryptlib.obj
 0001:0000e4f5       ?AlgorithmName@BitBucket@CryptoPP@@UBE?AV?$basic_string@DU?$char_traits@D@std@@V?$allocator@D@2@@std@@XZ 4290f4f5 f i cryptlib.obj
 0001:0000e511       ??0?$IteratedHashBase@_KVHashTransformation@CryptoPP@@@CryptoPP@@QAE@XZ 4290f511 f i cryptlib.obj
 0001:0000e52b       ??0?$IteratedHashBase@IVHashTransformation@CryptoPP@@@CryptoPP@@QAE@XZ 4290f52b f i cryptlib.obj
 0001:0000e53f       ?CorrectEndianess@?$IteratedHash@IU?$EnumToType@W4ByteOrder@CryptoPP@@$00@CryptoPP@@$0EA@VHashTransformation@2@@CryptoPP@@SAXPAIPBII@Z 4290f53f f i cryptlib.obj
 0001:0000e544       ?CorrectEndianess@?$IteratedHash@_KU?$EnumToType@W4ByteOrder@CryptoPP@@$00@CryptoPP@@$0IA@VHashTransformation@2@@CryptoPP@@SAXPA_KPB_KI@Z 4290f544 f i cryptlib.obj
 0001:0000e549       ??0?$AutoSeededX917RNG@VRijndael@CryptoPP@@@CryptoPP@@QAE@_N0@Z 4290f549 f i cryptlib.obj
 0001:0000e591       ??0Base@Rijndael@CryptoPP@@QAE@XZ 4290f591 f i cryptlib.obj
 0001:0000e5ac       ??0Enc@Rijndael@CryptoPP@@QAE@XZ 4290f5ac f i cryptlib.obj
 0001:0000e5ac       ??0Dec@Rijndael@CryptoPP@@QAE@XZ 4290f5ac f i cryptlib.obj
 0001:0000e5b8       ??0?$IteratedHash@IU?$EnumToType@W4ByteOrder@CryptoPP@@$00@CryptoPP@@$0EA@VHashTransformation@2@@CryptoPP@@QAE@ABV01@@Z 4290f5b8 f i cryptlib.obj
 0001:0000e5dd       ??0?$IteratedHash@IU?$EnumToType@W4ByteOrder@CryptoPP@@$00@CryptoPP@@$0EA@VHashTransformation@2@@CryptoPP@@QAE@XZ 4290f5dd f i cryptlib.obj
 0001:0000e5f3       ??0?$ClonableImpl@VSHA224@CryptoPP@@V?$AlgorithmImpl@V?$IteratedHash@IU?$EnumToType@W4ByteOrder@CryptoPP@@$00@CryptoPP@@$0EA@VHashTransformation@2@@CryptoPP@@VSHA224@2@@2@@CryptoPP@@QAE@XZ 4290f5f3 f i cryptlib.obj
 0001:0000e5f3       ??0?$ClonableImpl@VSHA1@CryptoPP@@V?$AlgorithmImpl@V?$IteratedHash@IU?$EnumToType@W4ByteOrder@CryptoPP@@$00@CryptoPP@@$0EA@VHashTransformation@2@@CryptoPP@@VSHA1@2@@2@@CryptoPP@@QAE@XZ 4290f5f3 f i cryptlib.obj
 0001:0000e5f3       ??0?$ClonableImpl@VSHA256@CryptoPP@@V?$AlgorithmImpl@V?$IteratedHash@IU?$EnumToType@W4ByteOrder@CryptoPP@@$00@CryptoPP@@$0EA@VHashTransformation@2@@CryptoPP@@VSHA256@2@@2@@CryptoPP@@QAE@XZ 4290f5f3 f i cryptlib.obj
 0001:0000e5f3       ??0?$AlgorithmImpl@V?$IteratedHash@IU?$EnumToType@W4ByteOrder@CryptoPP@@$00@CryptoPP@@$0EA@VHashTransformation@2@@CryptoPP@@VSHA256@2@@CryptoPP@@QAE@XZ 4290f5f3 f i cryptlib.obj
 0001:0000e5f3       ??0?$AlgorithmImpl@V?$IteratedHash@IU?$EnumToType@W4ByteOrder@CryptoPP@@$00@CryptoPP@@$0EA@VHashTransformation@2@@CryptoPP@@VSHA224@2@@CryptoPP@@QAE@XZ 4290f5f3 f i cryptlib.obj
 0001:0000e5f3       ??0?$AlgorithmImpl@V?$IteratedHash@IU?$EnumToType@W4ByteOrder@CryptoPP@@$00@CryptoPP@@$0EA@VHashTransformation@2@@CryptoPP@@VSHA1@2@@CryptoPP@@QAE@XZ 4290f5f3 f i cryptlib.obj
 0001:0000e5ff       ??0?$IteratedHashWithStaticTransform@IU?$EnumToType@W4ByteOrder@CryptoPP@@$00@CryptoPP@@$0EA@$0BE@VSHA1@2@$0A@$0A@@CryptoPP@@QAE@ABV01@@Z 4290f5ff f i cryptlib.obj
 0001:0000e63c       ??0SHA1@CryptoPP@@QAE@ABV01@@Z 4290f63c f i cryptlib.obj
 0001:0000e654       ?Final@HashTransformation@CryptoPP@@UAEXPAE@Z 4290f654 f i cryptlib.obj
 0001:0000e66c       ?CalculateDigest@HashTransformation@CryptoPP@@UAEXPAEPBEI@Z 4290f66c f i cryptlib.obj
 0001:0000e68b       ?Verify@HashTransformation@CryptoPP@@UAE_NPBE@Z 4290f68b f i cryptlib.obj
 0001:0000e6a3       ?VerifyDigest@HashTransformation@CryptoPP@@UAE_NPBE0I@Z 4290f6a3 f i cryptlib.obj
 0001:0000e6c2       ?CalculateTruncatedDigest@HashTransformation@CryptoPP@@UAEXPAEIPBEI@Z 4290f6c2 f i cryptlib.obj
 0001:0000e6e5       ?VerifyTruncatedDigest@HashTransformation@CryptoPP@@UAE_NPBEI0I@Z 4290f6e5 f i cryptlib.obj
 0001:0000e708       ??0?$AlgorithmImpl@V?$IteratedHash@IU?$EnumToType@W4ByteOrder@CryptoPP@@$00@CryptoPP@@$0EA@VHashTransformation@2@@CryptoPP@@VSHA1@2@@CryptoPP@@QAE@ABV01@@Z 4290f708 f i cryptlib.obj
 0001:0000e708       ??0?$ClonableImpl@VSHA1@CryptoPP@@V?$AlgorithmImpl@V?$IteratedHash@IU?$EnumToType@W4ByteOrder@CryptoPP@@$00@CryptoPP@@$0EA@VHashTransformation@2@@CryptoPP@@VSHA1@2@@2@@CryptoPP@@QAE@ABV01@@Z 4290f708 f i cryptlib.obj
 0001:0000e708       ??0?$AlgorithmImpl@V?$IteratedHash@IU?$EnumToType@W4ByteOrder@CryptoPP@@$00@CryptoPP@@$0EA@VHashTransformation@2@@CryptoPP@@VSHA256@2@@CryptoPP@@QAE@ABV01@@Z 4290f708 f i cryptlib.obj
 0001:0000e708       ??0?$ClonableImpl@VSHA256@CryptoPP@@V?$AlgorithmImpl@V?$IteratedHash@IU?$EnumToType@W4ByteOrder@CryptoPP@@$00@CryptoPP@@$0EA@VHashTransformation@2@@CryptoPP@@VSHA256@2@@2@@CryptoPP@@QAE@ABV01@@Z 4290f708 f i cryptlib.obj
 0001:0000e708       ??0?$AlgorithmImpl@V?$IteratedHash@IU?$EnumToType@W4ByteOrder@CryptoPP@@$00@CryptoPP@@$0EA@VHashTransformation@2@@CryptoPP@@VSHA224@2@@CryptoPP@@QAE@ABV01@@Z 4290f708 f i cryptlib.obj
 0001:0000e708       ??0?$ClonableImpl@VSHA224@CryptoPP@@V?$AlgorithmImpl@V?$IteratedHash@IU?$EnumToType@W4ByteOrder@CryptoPP@@$00@CryptoPP@@$0EA@VHashTransformation@2@@CryptoPP@@VSHA224@2@@2@@CryptoPP@@QAE@ABV01@@Z 4290f708 f i cryptlib.obj
 0001:0000e71a       ??0SHA224@CryptoPP@@QAE@ABV01@@Z 4290f71a f i cryptlib.obj
 0001:0000e732       ??0?$IteratedHash@_KU?$EnumToType@W4ByteOrder@CryptoPP@@$00@CryptoPP@@$0IA@VHashTransformation@2@@CryptoPP@@QAE@ABV01@@Z 4290f732 f i cryptlib.obj
 0001:0000e753       ??0?$IteratedHash@_KU?$EnumToType@W4ByteOrder@CryptoPP@@$00@CryptoPP@@$0IA@VHashTransformation@2@@CryptoPP@@QAE@XZ 4290f753 f i cryptlib.obj
 0001:0000e769       ??0?$AlgorithmImpl@V?$IteratedHash@_KU?$EnumToType@W4ByteOrder@CryptoPP@@$00@CryptoPP@@$0IA@VHashTransformation@2@@CryptoPP@@VSHA384@2@@CryptoPP@@QAE@ABV01@@Z 4290f769 f i cryptlib.obj
 0001:0000e769       ??0?$ClonableImpl@VSHA512@CryptoPP@@V?$AlgorithmImpl@V?$IteratedHash@_KU?$EnumToType@W4ByteOrder@CryptoPP@@$00@CryptoPP@@$0IA@VHashTransformation@2@@CryptoPP@@VSHA512@2@@2@@CryptoPP@@QAE@ABV01@@Z 4290f769 f i cryptlib.obj
 0001:0000e769       ??0?$ClonableImpl@VSHA384@CryptoPP@@V?$AlgorithmImpl@V?$IteratedHash@_KU?$EnumToType@W4ByteOrder@CryptoPP@@$00@CryptoPP@@$0IA@VHashTransformation@2@@CryptoPP@@VSHA384@2@@2@@CryptoPP@@QAE@ABV01@@Z 4290f769 f i cryptlib.obj
 0001:0000e769       ??0?$AlgorithmImpl@V?$IteratedHash@_KU?$EnumToType@W4ByteOrder@CryptoPP@@$00@CryptoPP@@$0IA@VHashTransformation@2@@CryptoPP@@VSHA512@2@@CryptoPP@@QAE@ABV01@@Z 4290f769 f i cryptlib.obj
 0001:0000e77b       ??0?$ClonableImpl@VSHA512@CryptoPP@@V?$AlgorithmImpl@V?$IteratedHash@_KU?$EnumToType@W4ByteOrder@CryptoPP@@$00@CryptoPP@@$0IA@VHashTransformation@2@@CryptoPP@@VSHA512@2@@2@@CryptoPP@@QAE@XZ 4290f77b f i cryptlib.obj
 0001:0000e77b       ??0?$ClonableImpl@VSHA384@CryptoPP@@V?$AlgorithmImpl@V?$IteratedHash@_KU?$EnumToType@W4ByteOrder@CryptoPP@@$00@CryptoPP@@$0IA@VHashTransformation@2@@CryptoPP@@VSHA384@2@@2@@CryptoPP@@QAE@XZ 4290f77b f i cryptlib.obj
 0001:0000e77b       ??0?$AlgorithmImpl@V?$IteratedHash@_KU?$EnumToType@W4ByteOrder@CryptoPP@@$00@CryptoPP@@$0IA@VHashTransformation@2@@CryptoPP@@VSHA384@2@@CryptoPP@@QAE@XZ 4290f77b f i cryptlib.obj
 0001:0000e77b       ??0?$AlgorithmImpl@V?$IteratedHash@_KU?$EnumToType@W4ByteOrder@CryptoPP@@$00@CryptoPP@@$0IA@VHashTransformation@2@@CryptoPP@@VSHA512@2@@CryptoPP@@QAE@XZ 4290f77b f i cryptlib.obj
 0001:0000e787       ??0SHA384@CryptoPP@@QAE@ABV01@@Z 4290f787 f i cryptlib.obj
 0001:0000e79f       ??_F?$AutoSeededX917RNG@VRijndael@CryptoPP@@@CryptoPP@@QAEXXZ 4290f79f f i cryptlib.obj
 0001:0000e7a9       ?TheBitBucket@CryptoPP@@YAAAVBufferedTransformation@1@XZ 4290f7a9 f   cryptlib.obj
 0001:0000e7ee       ?SetKey@SimpleKeyingInterface@CryptoPP@@UAEXPBEIABVNameValuePairs@2@@Z 4290f7ee f   cryptlib.obj
 0001:0000e811       ?GenerateBlock@RandomNumberGenerator@CryptoPP@@UAEXPAEI@Z 4290f811 f   cryptlib.obj
 0001:0000e852       ?DiscardBytes@RandomNumberGenerator@CryptoPP@@UAEXI@Z 4290f852 f   cryptlib.obj
 0001:0000e873       ?NullRNG@CryptoPP@@YAAAVRandomNumberGenerator@1@XZ 4290f873 f   cryptlib.obj
 0001:0000e8c6       ?MaxRetrievable@BufferedTransformation@CryptoPP@@UBE_KXZ 4290f8c6 f   cryptlib.obj
 0001:0000e903       ?Get@BufferedTransformation@CryptoPP@@UAEIPAEI@Z 4290f903 f   cryptlib.obj
 0001:0000e977       ?Peek@BufferedTransformation@CryptoPP@@UBEIPAEI@Z 4290f977 f   cryptlib.obj
 0001:0000e9e0       ?Skip@BufferedTransformation@CryptoPP@@UAE_K_K@Z 4290f9e0 f   cryptlib.obj
 0001:0000ea28       ?NumberOfMessages@BufferedTransformation@CryptoPP@@UBEIXZ 4290fa28 f   cryptlib.obj
 0001:0000ea5f       ?SkipMessages@BufferedTransformation@CryptoPP@@UAEII@Z 4290fa5f f   cryptlib.obj
 0001:0000eaaa       ??0?$IteratedHashWithStaticTransform@IU?$EnumToType@W4ByteOrder@CryptoPP@@$00@CryptoPP@@$0EA@$0BE@VSHA1@2@$0A@$0A@@CryptoPP@@IAE@XZ 4290faaa f i cryptlib.obj
 0001:0000eaed       ?Clone@?$ClonableImpl@VSHA1@CryptoPP@@V?$AlgorithmImpl@V?$IteratedHash@IU?$EnumToType@W4ByteOrder@CryptoPP@@$00@CryptoPP@@$0EA@VHashTransformation@2@@CryptoPP@@VSHA1@2@@2@@CryptoPP@@UBEPAVClonable@2@XZ 4290faed f i cryptlib.obj
 0001:0000eb27       ??0?$IteratedHashWithStaticTransform@IU?$EnumToType@W4ByteOrder@CryptoPP@@$00@CryptoPP@@$0EA@$0CA@VSHA256@2@$0CA@$00@CryptoPP@@IAE@XZ 4290fb27 f i cryptlib.obj
 0001:0000eb6a       ??0?$IteratedHashWithStaticTransform@IU?$EnumToType@W4ByteOrder@CryptoPP@@$00@CryptoPP@@$0EA@$0CA@VSHA224@2@$0BM@$00@CryptoPP@@IAE@XZ 4290fb6a f i cryptlib.obj
 0001:0000ebad       ?Clone@?$ClonableImpl@VSHA224@CryptoPP@@V?$AlgorithmImpl@V?$IteratedHash@IU?$EnumToType@W4ByteOrder@CryptoPP@@$00@CryptoPP@@$0EA@VHashTransformation@2@@CryptoPP@@VSHA224@2@@2@@CryptoPP@@UBEPAVClonable@2@XZ 4290fbad f i cryptlib.obj
 0001:0000ebe7       ??0?$IteratedHashWithStaticTransform@_KU?$EnumToType@W4ByteOrder@CryptoPP@@$00@CryptoPP@@$0IA@$0EA@VSHA512@2@$0EA@$00@CryptoPP@@IAE@XZ 4290fbe7 f i cryptlib.obj
 0001:0000ec2d       ??0?$IteratedHashWithStaticTransform@_KU?$EnumToType@W4ByteOrder@CryptoPP@@$00@CryptoPP@@$0IA@$0EA@VSHA384@2@$0DA@$00@CryptoPP@@IAE@XZ 4290fc2d f i cryptlib.obj
 0001:0000ec73       ?Clone@?$ClonableImpl@VSHA384@CryptoPP@@V?$AlgorithmImpl@V?$IteratedHash@_KU?$EnumToType@W4ByteOrder@CryptoPP@@$00@CryptoPP@@$0IA@VHashTransformation@2@@CryptoPP@@VSHA384@2@@2@@CryptoPP@@UBEPAVClonable@2@XZ 4290fc73 f i cryptlib.obj
 0001:0000ecad       ??0Base@Rijndael@CryptoPP@@QAE@ABV012@@Z 4290fcad f i cryptlib.obj
 0001:0000ecd4       ??0Dec@Rijndael@CryptoPP@@QAE@ABV012@@Z 4290fcd4 f i cryptlib.obj
 0001:0000ecd4       ??0Enc@Rijndael@CryptoPP@@QAE@ABV012@@Z 4290fcd4 f i cryptlib.obj
 0001:0000ece6       ??4?$IteratedHash@IU?$EnumToType@W4ByteOrder@CryptoPP@@$00@CryptoPP@@$0EA@VHashTransformation@2@@CryptoPP@@QAEAAV01@ABV01@@Z 4290fce6 f i cryptlib.obj
 0001:0000ed0b       ??4?$AlgorithmImpl@V?$IteratedHash@IU?$EnumToType@W4ByteOrder@CryptoPP@@$00@CryptoPP@@$0EA@VHashTransformation@2@@CryptoPP@@VSHA224@2@@CryptoPP@@QAEAAV01@ABV01@@Z 4290fd0b f i cryptlib.obj
 0001:0000ed0b       ??4?$ClonableImpl@VSHA224@CryptoPP@@V?$AlgorithmImpl@V?$IteratedHash@IU?$EnumToType@W4ByteOrder@CryptoPP@@$00@CryptoPP@@$0EA@VHashTransformation@2@@CryptoPP@@VSHA224@2@@2@@CryptoPP@@QAEAAV01@ABV01@@Z 4290fd0b f i cryptlib.obj
 0001:0000ed0b       ??4?$AlgorithmImpl@V?$IteratedHash@IU?$EnumToType@W4ByteOrder@CryptoPP@@$00@CryptoPP@@$0EA@VHashTransformation@2@@CryptoPP@@VSHA256@2@@CryptoPP@@QAEAAV01@ABV01@@Z 4290fd0b f i cryptlib.obj
 0001:0000ed0b       ??4?$AlgorithmImpl@V?$IteratedHash@IU?$EnumToType@W4ByteOrder@CryptoPP@@$00@CryptoPP@@$0EA@VHashTransformation@2@@CryptoPP@@VSHA1@2@@CryptoPP@@QAEAAV01@ABV01@@Z 4290fd0b f i cryptlib.obj
 0001:0000ed0b       ??4?$ClonableImpl@VSHA1@CryptoPP@@V?$AlgorithmImpl@V?$IteratedHash@IU?$EnumToType@W4ByteOrder@CryptoPP@@$00@CryptoPP@@$0EA@VHashTransformation@2@@CryptoPP@@VSHA1@2@@2@@CryptoPP@@QAEAAV01@ABV01@@Z 4290fd0b f i cryptlib.obj
 0001:0000ed0b       ??4?$ClonableImpl@VSHA256@CryptoPP@@V?$AlgorithmImpl@V?$IteratedHash@IU?$EnumToType@W4ByteOrder@CryptoPP@@$00@CryptoPP@@$0EA@VHashTransformation@2@@CryptoPP@@VSHA256@2@@2@@CryptoPP@@QAEAAV01@ABV01@@Z 4290fd0b f i cryptlib.obj
 0001:0000ed1d       ??4?$IteratedHashWithStaticTransform@IU?$EnumToType@W4ByteOrder@CryptoPP@@$00@CryptoPP@@$0EA@$0BE@VSHA1@2@$0A@$0A@@CryptoPP@@QAEAAV01@ABV01@@Z 4290fd1d f i cryptlib.obj
 0001:0000ed3e       ??0SHA1@CryptoPP@@QAE@XZ   4290fd3e f i cryptlib.obj
 0001:0000ed50       ??4SHA1@CryptoPP@@QAEAAV01@ABV01@@Z 4290fd50 f i cryptlib.obj
 0001:0000ed62       ??0?$IteratedHashWithStaticTransform@IU?$EnumToType@W4ByteOrder@CryptoPP@@$00@CryptoPP@@$0EA@$0CA@VSHA224@2@$0BM@$00@CryptoPP@@QAE@ABV01@@Z 4290fd62 f i cryptlib.obj
 0001:0000ed62       ??0?$IteratedHashWithStaticTransform@IU?$EnumToType@W4ByteOrder@CryptoPP@@$00@CryptoPP@@$0EA@$0CA@VSHA256@2@$0CA@$00@CryptoPP@@QAE@ABV01@@Z 4290fd62 f i cryptlib.obj
 0001:0000ed9f       ??0SHA256@CryptoPP@@QAE@XZ 4290fd9f f i cryptlib.obj
 0001:0000edb1       ??0SHA256@CryptoPP@@QAE@ABV01@@Z 4290fdb1 f i cryptlib.obj
 0001:0000edc9       ??4?$IteratedHashWithStaticTransform@IU?$EnumToType@W4ByteOrder@CryptoPP@@$00@CryptoPP@@$0EA@$0CA@VSHA256@2@$0CA@$00@CryptoPP@@QAEAAV01@ABV01@@Z 4290fdc9 f i cryptlib.obj
 0001:0000edc9       ??4?$IteratedHashWithStaticTransform@IU?$EnumToType@W4ByteOrder@CryptoPP@@$00@CryptoPP@@$0EA@$0CA@VSHA224@2@$0BM@$00@CryptoPP@@QAEAAV01@ABV01@@Z 4290fdc9 f i cryptlib.obj
 0001:0000edea       ??0SHA224@CryptoPP@@QAE@XZ 4290fdea f i cryptlib.obj
 0001:0000edfc       ??4SHA256@CryptoPP@@QAEAAV01@ABV01@@Z 4290fdfc f i cryptlib.obj
 0001:0000edfc       ??4SHA224@CryptoPP@@QAEAAV01@ABV01@@Z 4290fdfc f i cryptlib.obj
 0001:0000ee0e       ??4?$IteratedHash@_KU?$EnumToType@W4ByteOrder@CryptoPP@@$00@CryptoPP@@$0IA@VHashTransformation@2@@CryptoPP@@QAEAAV01@ABV01@@Z 4290fe0e f i cryptlib.obj
 0001:0000ee2f       ??4?$ClonableImpl@VSHA384@CryptoPP@@V?$AlgorithmImpl@V?$IteratedHash@_KU?$EnumToType@W4ByteOrder@CryptoPP@@$00@CryptoPP@@$0IA@VHashTransformation@2@@CryptoPP@@VSHA384@2@@2@@CryptoPP@@QAEAAV01@ABV01@@Z 4290fe2f f i cryptlib.obj
 0001:0000ee2f       ??4?$AlgorithmImpl@V?$IteratedHash@_KU?$EnumToType@W4ByteOrder@CryptoPP@@$00@CryptoPP@@$0IA@VHashTransformation@2@@CryptoPP@@VSHA512@2@@CryptoPP@@QAEAAV01@ABV01@@Z 4290fe2f f i cryptlib.obj
 0001:0000ee2f       ??4?$ClonableImpl@VSHA512@CryptoPP@@V?$AlgorithmImpl@V?$IteratedHash@_KU?$EnumToType@W4ByteOrder@CryptoPP@@$00@CryptoPP@@$0IA@VHashTransformation@2@@CryptoPP@@VSHA512@2@@2@@CryptoPP@@QAEAAV01@ABV01@@Z 4290fe2f f i cryptlib.obj
 0001:0000ee2f       ??4?$AlgorithmImpl@V?$IteratedHash@_KU?$EnumToType@W4ByteOrder@CryptoPP@@$00@CryptoPP@@$0IA@VHashTransformation@2@@CryptoPP@@VSHA384@2@@CryptoPP@@QAEAAV01@ABV01@@Z 4290fe2f f i cryptlib.obj
 0001:0000ee41       ??0?$IteratedHashWithStaticTransform@_KU?$EnumToType@W4ByteOrder@CryptoPP@@$00@CryptoPP@@$0IA@$0EA@VSHA512@2@$0EA@$00@CryptoPP@@QAE@ABV01@@Z 4290fe41 f i cryptlib.obj
 0001:0000ee41       ??0?$IteratedHashWithStaticTransform@_KU?$EnumToType@W4ByteOrder@CryptoPP@@$00@CryptoPP@@$0IA@$0EA@VSHA384@2@$0DA@$00@CryptoPP@@QAE@ABV01@@Z 4290fe41 f i cryptlib.obj
 0001:0000ee84       ??0SHA512@CryptoPP@@QAE@XZ 4290fe84 f i cryptlib.obj
 0001:0000ee96       ??0SHA512@CryptoPP@@QAE@ABV01@@Z 4290fe96 f i cryptlib.obj
 0001:0000eeae       ??4?$IteratedHashWithStaticTransform@_KU?$EnumToType@W4ByteOrder@CryptoPP@@$00@CryptoPP@@$0IA@$0EA@VSHA512@2@$0EA@$00@CryptoPP@@QAEAAV01@ABV01@@Z 4290feae f i cryptlib.obj
 0001:0000eeae       ??4?$IteratedHashWithStaticTransform@_KU?$EnumToType@W4ByteOrder@CryptoPP@@$00@CryptoPP@@$0IA@$0EA@VSHA384@2@$0DA@$00@CryptoPP@@QAEAAV01@ABV01@@Z 4290feae f i cryptlib.obj
 0001:0000eed5       ??0SHA384@CryptoPP@@QAE@XZ 4290fed5 f i cryptlib.obj
 0001:0000eee7       ??4SHA384@CryptoPP@@QAEAAV01@ABV01@@Z 4290fee7 f i cryptlib.obj
 0001:0000eee7       ??4SHA512@CryptoPP@@QAEAAV01@ABV01@@Z 4290fee7 f i cryptlib.obj
 0001:0000eef9       ?SetKeyWithRounds@SimpleKeyingInterface@CryptoPP@@QAEXPBEIH@Z 4290fef9 f   cryptlib.obj
 0001:0000ef4d       ?GenerateRandomWithKeySize@GeneratableCryptoMaterial@CryptoPP@@QAEXAAVRandomNumberGenerator@2@I@Z 4290ff4d f   cryptlib.obj
 0001:0000efa3       ?Put2@PK_DefaultEncryptionFilter@CryptoPP@@UAEIPBEIH_N@Z 4290ffa3 f i cryptlib.obj
 0001:0000f0f2       ?Put2@PK_DefaultDecryptionFilter@CryptoPP@@UAEIPBEIH_N@Z 429100f2 f i cryptlib.obj
 0001:0000f2ab       ??0InvalidCiphertext@CryptoPP@@QAE@ABV01@@Z 429102ab f i cryptlib.obj
 0001:0000f2c3       ?Clone@?$ClonableImpl@VSHA256@CryptoPP@@V?$AlgorithmImpl@V?$IteratedHash@IU?$EnumToType@W4ByteOrder@CryptoPP@@$00@CryptoPP@@$0EA@VHashTransformation@2@@CryptoPP@@VSHA256@2@@2@@CryptoPP@@UBEPAVClonable@2@XZ 429102c3 f i cryptlib.obj
 0001:0000f2fd       ?Clone@?$ClonableImpl@VSHA512@CryptoPP@@V?$AlgorithmImpl@V?$IteratedHash@_KU?$EnumToType@W4ByteOrder@CryptoPP@@$00@CryptoPP@@$0IA@VHashTransformation@2@@CryptoPP@@VSHA512@2@@2@@CryptoPP@@UBEPAVClonable@2@XZ 429102fd f i cryptlib.obj
 0001:0000f337       ??4Base@Rijndael@CryptoPP@@QAEAAV012@ABV012@@Z 42910337 f i cryptlib.obj
 0001:0000f35e       ??4Dec@Rijndael@CryptoPP@@QAEAAV012@ABV012@@Z 4291035e f i cryptlib.obj
 0001:0000f35e       ??4Enc@Rijndael@CryptoPP@@QAEAAV012@ABV012@@Z 4291035e f i cryptlib.obj
 0001:0000f370       ?SetKeyWithIV@SimpleKeyingInterface@CryptoPP@@QAEXPBEI0I@Z 42910370 f   cryptlib.obj
 0001:0000f3e7       ?GetIVAndThrowIfInvalid@SimpleKeyingInterface@CryptoPP@@IAEPBEABVNameValuePairs@2@AAI@Z 429103e7 f   cryptlib.obj
 0001:0000f4d6       ?StaticAlgorithmName@DES_EDE2_Info@CryptoPP@@SAPBDXZ 429104d6 f i des.obj
 0001:0000f4dc       ?StaticAlgorithmName@DES_EDE3_Info@CryptoPP@@SAPBDXZ 429104dc f i des.obj
 0001:0000f4e2       ?DefaultKeyLength@?$SimpleKeyingInterfaceImpl@V?$TwoBases@VBlockCipher@CryptoPP@@UDES_EDE3_Info@2@@CryptoPP@@V12@@CryptoPP@@UBEIXZ 429104e2 f i des.obj
 0001:0000f4e2       ?MinKeyLength@?$SimpleKeyingInterfaceImpl@V?$TwoBases@VBlockCipher@CryptoPP@@UDES_EDE3_Info@2@@CryptoPP@@V12@@CryptoPP@@UBEIXZ 429104e2 f i des.obj
 0001:0000f4e2       ?MaxKeyLength@?$SimpleKeyingInterfaceImpl@V?$TwoBases@VBlockCipher@CryptoPP@@UDES_EDE3_Info@2@@CryptoPP@@V12@@CryptoPP@@UBEIXZ 429104e2 f i des.obj
 0001:0000f4e6       ?GetCipherDirection@BlockTransformation@CryptoPP@@QBE?AW4CipherDir@2@XZ 429104e6 f i des.obj
 0001:0000f4f1       ??4?$TwoBases@VBlockCipher@CryptoPP@@UDES_EDE2_Info@2@@CryptoPP@@QAEAAV01@ABV01@@Z 429104f1 f i des.obj
 0001:0000f4f1       ??4?$TwoBases@VBlockCipher@CryptoPP@@USKIPJACK_Info@2@@CryptoPP@@QAEAAV01@ABV01@@Z 429104f1 f i dll.obj
 0001:0000f4f1       ??4?$TwoBases@VBlockCipher@CryptoPP@@URijndael_Info@2@@CryptoPP@@QAEAAV01@ABV01@@Z 429104f1 f i cryptlib.obj
 0001:0000f4f1       ??4?$TwoBases@VBlockCipher@CryptoPP@@UDES_EDE3_Info@2@@CryptoPP@@QAEAAV01@ABV01@@Z 429104f1 f i des.obj
 0001:0000f51d       ??0?$SimpleKeyingInterfaceImpl@V?$TwoBases@VBlockCipher@CryptoPP@@URijndael_Info@2@@CryptoPP@@V12@@CryptoPP@@QAE@ABV01@@Z 4291051d f i cryptlib.obj
 0001:0000f51d       ??0?$SimpleKeyingInterfaceImpl@V?$TwoBases@VBlockCipher@CryptoPP@@UDES_EDE2_Info@2@@CryptoPP@@V12@@CryptoPP@@QAE@ABV01@@Z 4291051d f i des.obj
 0001:0000f51d       ??0?$SimpleKeyingInterfaceImpl@V?$TwoBases@VBlockCipher@CryptoPP@@UDES_EDE3_Info@2@@CryptoPP@@V12@@CryptoPP@@QAE@ABV01@@Z 4291051d f i des.obj
 0001:0000f51d       ??0?$SimpleKeyingInterfaceImpl@V?$TwoBases@VBlockCipher@CryptoPP@@USKIPJACK_Info@2@@CryptoPP@@V12@@CryptoPP@@QAE@ABV01@@Z 4291051d f i dll.obj
 0001:0000f52f       ??4?$BlockCipherImpl@USKIPJACK_Info@CryptoPP@@VBlockCipher@2@@CryptoPP@@QAEAAV01@ABV01@@Z 4291052f f i dll.obj
 0001:0000f52f       ??4?$BlockCipherImpl@UDES_EDE2_Info@CryptoPP@@VBlockCipher@2@@CryptoPP@@QAEAAV01@ABV01@@Z 4291052f f i des.obj
 0001:0000f52f       ??4?$BlockCipherImpl@URijndael_Info@CryptoPP@@VBlockCipher@2@@CryptoPP@@QAEAAV01@ABV01@@Z 4291052f f i cryptlib.obj
 0001:0000f52f       ??4?$AlgorithmImpl@V?$SimpleKeyingInterfaceImpl@V?$TwoBases@VBlockCipher@CryptoPP@@UDES_EDE2_Info@2@@CryptoPP@@V12@@CryptoPP@@V12@@CryptoPP@@QAEAAV01@ABV01@@Z 4291052f f i des.obj
 0001:0000f52f       ??4?$AlgorithmImpl@V?$SimpleKeyingInterfaceImpl@V?$TwoBases@VBlockCipher@CryptoPP@@URijndael_Info@2@@CryptoPP@@V12@@CryptoPP@@V12@@CryptoPP@@QAEAAV01@ABV01@@Z 4291052f f i cryptlib.obj
 0001:0000f52f       ??4?$AlgorithmImpl@V?$SimpleKeyingInterfaceImpl@V?$TwoBases@VBlockCipher@CryptoPP@@UDES_EDE3_Info@2@@CryptoPP@@V12@@CryptoPP@@V12@@CryptoPP@@QAEAAV01@ABV01@@Z 4291052f f i des.obj
 0001:0000f52f       ??4?$SimpleKeyingInterfaceImpl@V?$TwoBases@VBlockCipher@CryptoPP@@UDES_EDE2_Info@2@@CryptoPP@@V12@@CryptoPP@@QAEAAV01@ABV01@@Z 4291052f f i des.obj
 0001:0000f52f       ??4?$BlockCipherImpl@UDES_EDE3_Info@CryptoPP@@VBlockCipher@2@@CryptoPP@@QAEAAV01@ABV01@@Z 4291052f f i des.obj
 0001:0000f52f       ??4?$SimpleKeyingInterfaceImpl@V?$TwoBases@VBlockCipher@CryptoPP@@USKIPJACK_Info@2@@CryptoPP@@V12@@CryptoPP@@QAEAAV01@ABV01@@Z 4291052f f i dll.obj
 0001:0000f52f       ??4?$SimpleKeyingInterfaceImpl@V?$TwoBases@VBlockCipher@CryptoPP@@UDES_EDE3_Info@2@@CryptoPP@@V12@@CryptoPP@@QAEAAV01@ABV01@@Z 4291052f f i des.obj
 0001:0000f52f       ??4?$AlgorithmImpl@V?$SimpleKeyingInterfaceImpl@V?$TwoBases@VBlockCipher@CryptoPP@@USKIPJACK_Info@2@@CryptoPP@@V12@@CryptoPP@@V12@@CryptoPP@@QAEAAV01@ABV01@@Z 4291052f f i dll.obj
 0001:0000f52f       ??4?$SimpleKeyingInterfaceImpl@V?$TwoBases@VBlockCipher@CryptoPP@@URijndael_Info@2@@CryptoPP@@V12@@CryptoPP@@QAEAAV01@ABV01@@Z 4291052f f i cryptlib.obj
 0001:0000f541       ??0?$AlgorithmImpl@V?$SimpleKeyingInterfaceImpl@V?$TwoBases@VBlockCipher@CryptoPP@@URijndael_Info@2@@CryptoPP@@V12@@CryptoPP@@V12@@CryptoPP@@QAE@ABV01@@Z 42910541 f i cryptlib.obj
 0001:0000f541       ??0?$AlgorithmImpl@V?$SimpleKeyingInterfaceImpl@V?$TwoBases@VBlockCipher@CryptoPP@@UDES_EDE3_Info@2@@CryptoPP@@V12@@CryptoPP@@V12@@CryptoPP@@QAE@ABV01@@Z 42910541 f i des.obj
 0001:0000f541       ??0?$AlgorithmImpl@V?$SimpleKeyingInterfaceImpl@V?$TwoBases@VBlockCipher@CryptoPP@@USKIPJACK_Info@2@@CryptoPP@@V12@@CryptoPP@@V12@@CryptoPP@@QAE@ABV01@@Z 42910541 f i dll.obj
 0001:0000f541       ??0?$AlgorithmImpl@V?$SimpleKeyingInterfaceImpl@V?$TwoBases@VBlockCipher@CryptoPP@@UDES_EDE2_Info@2@@CryptoPP@@V12@@CryptoPP@@V12@@CryptoPP@@QAE@ABV01@@Z 42910541 f i des.obj
 0001:0000f553       ??0?$BlockCipherImpl@URijndael_Info@CryptoPP@@VBlockCipher@2@@CryptoPP@@QAE@ABV01@@Z 42910553 f i cryptlib.obj
 0001:0000f553       ??0?$BlockCipherImpl@UDES_EDE2_Info@CryptoPP@@VBlockCipher@2@@CryptoPP@@QAE@ABV01@@Z 42910553 f i des.obj
 0001:0000f553       ??0?$BlockCipherImpl@USKIPJACK_Info@CryptoPP@@VBlockCipher@2@@CryptoPP@@QAE@ABV01@@Z 42910553 f i dll.obj
 0001:0000f553       ??0?$BlockCipherImpl@UDES_EDE3_Info@CryptoPP@@VBlockCipher@2@@CryptoPP@@QAE@ABV01@@Z 42910553 f i des.obj
 0001:0000f6ad       ?RawProcessBlock@RawDES@CryptoPP@@QBEXAAI0@Z 429106ad f   des.obj
 0001:0000f7f4       ?GetValidKeyLength@?$SimpleKeyingInterfaceImpl@V?$TwoBases@VBlockCipher@CryptoPP@@UDES_EDE2_Info@2@@CryptoPP@@V12@@CryptoPP@@UBEII@Z 429107f4 f i des.obj
 0001:0000f7fa       ?GetValidKeyLength@?$SimpleKeyingInterfaceImpl@V?$TwoBases@VBlockCipher@CryptoPP@@UDES_EDE3_Info@2@@CryptoPP@@V12@@CryptoPP@@UBEII@Z 429107fa f i des.obj
 0001:0000f800       ?allocate@?$FixedSizeAllocatorWithCleanup@I$0CA@V?$NullAllocator@I@CryptoPP@@$0A@@CryptoPP@@QAEPAIIPBX@Z 42910800 f i des.obj
 0001:0000f81e       ??0?$SecBlock@IV?$FixedSizeAllocatorWithCleanup@I$0CA@V?$NullAllocator@I@CryptoPP@@$0A@@CryptoPP@@@CryptoPP@@QAE@I@Z 4291081e f i des.obj
 0001:0000f846       ?deallocate@?$FixedSizeAllocatorWithCleanup@I$0CA@V?$NullAllocator@I@CryptoPP@@$0A@@CryptoPP@@QAEXPAXI@Z 42910846 f i des.obj
 0001:0000f865       ?reallocate@?$FixedSizeAllocatorWithCleanup@I$0CA@V?$NullAllocator@I@CryptoPP@@$0A@@CryptoPP@@QAEPAIPAIII_N@Z 42910865 f i des.obj
 0001:0000f8d7       ?New@?$SecBlock@IV?$FixedSizeAllocatorWithCleanup@I$0CA@V?$NullAllocator@I@CryptoPP@@$0A@@CryptoPP@@@CryptoPP@@QAEXI@Z 429108d7 f i des.obj
 0001:0000f900       ??$?RI@?$GetBlock@IU?$EnumToType@W4ByteOrder@CryptoPP@@$00@CryptoPP@@$0A@@CryptoPP@@QAEAAV01@AAI@Z 42910900 f i des.obj
 0001:0000f91c       ??$?RI@?$PutBlock@IU?$EnumToType@W4ByteOrder@CryptoPP@@$00@CryptoPP@@$0A@@CryptoPP@@QAEAAV01@I@Z 4291091c f i des.obj
 0001:0000f949       ??0RawDES@CryptoPP@@QAE@XZ 42910949 f i des.obj
 0001:0000f957       ??1RawDES@CryptoPP@@QAE@XZ 42910957 f i des.obj
 0001:0000f969       ??0Base@DES_EDE2@CryptoPP@@QAE@XZ 42910969 f i des.obj
 0001:0000f991       ??1Base@DES_EDE2@CryptoPP@@UAE@XZ 42910991 f i des.obj
 0001:0000f9c1       ??0Base@DES_EDE3@CryptoPP@@QAE@XZ 429109c1 f i des.obj
 0001:0000f9f6       ??1Base@DES_EDE3@CryptoPP@@UAE@XZ 429109f6 f i des.obj
 0001:0000fa3d       ?ProcessAndXorBlock@Base@DES_EDE2@CryptoPP@@UBEXPBE0PAE@Z 42910a3d f   des.obj
 0001:0000fad1       ?ProcessAndXorBlock@Base@DES_EDE3@CryptoPP@@UBEXPBE0PAE@Z 42910ad1 f   des.obj
 0001:0000fb61       ?StaticAlgorithmName@?$AlgorithmImpl@V?$SimpleKeyingInterfaceImpl@V?$TwoBases@VBlockCipher@CryptoPP@@UDES_EDE2_Info@2@@CryptoPP@@V12@@CryptoPP@@V12@@CryptoPP@@SA?AV?$basic_string@DU?$char_traits@D@std@@V?$allocator@D@2@@std@@XZ 42910b61 f i des.obj
 0001:0000fb7b       ?AlgorithmName@?$AlgorithmImpl@V?$SimpleKeyingInterfaceImpl@V?$TwoBases@VBlockCipher@CryptoPP@@UDES_EDE2_Info@2@@CryptoPP@@V12@@CryptoPP@@V12@@CryptoPP@@UBE?AV?$basic_string@DU?$char_traits@D@std@@V?$allocator@D@2@@std@@XZ 42910b7b f i des.obj
 0001:0000fb97       ?StaticAlgorithmName@?$AlgorithmImpl@V?$SimpleKeyingInterfaceImpl@V?$TwoBases@VBlockCipher@CryptoPP@@UDES_EDE3_Info@2@@CryptoPP@@V12@@CryptoPP@@V12@@CryptoPP@@SA?AV?$basic_string@DU?$char_traits@D@std@@V?$allocator@D@2@@std@@XZ 42910b97 f i des.obj
 0001:0000fbb1       ?AlgorithmName@?$AlgorithmImpl@V?$SimpleKeyingInterfaceImpl@V?$TwoBases@VBlockCipher@CryptoPP@@UDES_EDE3_Info@2@@CryptoPP@@V12@@CryptoPP@@V12@@CryptoPP@@UBE?AV?$basic_string@DU?$char_traits@D@std@@V?$allocator@D@2@@std@@XZ 42910bb1 f i des.obj
 0001:0000fbcd       ?IsValidKeyLength@SimpleKeyingInterface@CryptoPP@@UBE_NI@Z 42910bcd f i des.obj
 0001:0000fbe4       ?GetAlgorithm@AuthenticatedSymmetricCipher@CryptoPP@@MBEABVAlgorithm@2@XZ 42910be4 f i dll.obj
 0001:0000fbe4       ?GetAlgorithm@BlockCipher@CryptoPP@@MBEABVAlgorithm@2@XZ 42910be4 f i des.obj
 0001:0000fbe4       ?GetAlgorithm@SymmetricCipher@CryptoPP@@MBEABVAlgorithm@2@XZ 42910be4 f i ccm.obj
 0001:0000fbe4       ?GetAlgorithm@MessageAuthenticationCode@CryptoPP@@MBEABVAlgorithm@2@XZ 42910be4 f i dll.obj
 0001:0000fbf0       ?Resynchronize@SimpleKeyingInterface@CryptoPP@@UAEXPBEH@Z 42910bf0 f i des.obj
 0001:0000fc48       ??0?$SecBlock@IV?$FixedSizeAllocatorWithCleanup@I$0CA@V?$NullAllocator@I@CryptoPP@@$0A@@CryptoPP@@@CryptoPP@@QAE@ABV01@@Z 42910c48 f i des.obj
 0001:0000fc92       ?Assign@?$SecBlock@IV?$FixedSizeAllocatorWithCleanup@I$0CA@V?$NullAllocator@I@CryptoPP@@$0A@@CryptoPP@@@CryptoPP@@QAEXABV12@@Z 42910c92 f i des.obj
 0001:0000fccd       ?RawSetKey@RawDES@CryptoPP@@QAEXW4CipherDir@2@PBE@Z 42910ccd f   des.obj
 0001:0000fe52       ?UncheckedSetKey@Base@DES_EDE2@CryptoPP@@UAEXPBEIABVNameValuePairs@3@@Z 42910e52 f   des.obj
 0001:0000fea2       ?UncheckedSetKey@Base@DES_EDE3@CryptoPP@@UAEXPBEIABVNameValuePairs@3@@Z 42910ea2 f   des.obj
 0001:0000ff39       ??0RawDES@CryptoPP@@QAE@ABV01@@Z 42910f39 f i des.obj
 0001:0000ff4b       ??0Base@DES_EDE2@CryptoPP@@QAE@ABV012@@Z 42910f4b f i des.obj
 0001:0000ff9a       ??0Base@DES_EDE3@CryptoPP@@QAE@ABV012@@Z 42910f9a f i des.obj
 0001:0000ffff       ??4RawDES@CryptoPP@@QAEAAV01@ABV01@@Z 42910fff f i des.obj
 0001:00010011       ??4Base@DES_EDE2@CryptoPP@@QAEAAV012@ABV012@@Z 42911011 f i des.obj
 0001:00010044       ??4Base@DES_EDE3@CryptoPP@@QAEAAV012@ABV012@@Z 42911044 f i des.obj
 0001:00010089       ??PCryptoPP@@YA_NABVInteger@0@0@Z 42911089 f i dh.obj
 0001:000100a0       ??MCryptoPP@@YA_NABVInteger@0@0@Z 429110a0 f i dh.obj
 0001:000100b7       ?Equal@ModularArithmetic@CryptoPP@@UBE_NABVInteger@2@0@Z 429110b7 f i dh.obj
 0001:000100b7       ?Equal@?$EuclideanDomainOf@VInteger@CryptoPP@@@CryptoPP@@UBE_NABVInteger@2@0@Z 429110b7 f i integer.obj
 0001:000100cc       ?Double@?$AbstractGroup@VPolynomialMod2@CryptoPP@@@CryptoPP@@UBEABVPolynomialMod2@2@ABV32@@Z 429110cc f i dll.obj
 0001:000100cc       ?Double@?$AbstractGroup@VInteger@CryptoPP@@@CryptoPP@@UBEABVInteger@2@ABV32@@Z 429110cc f i dll.obj
 0001:000100cc       ?Double@?$AbstractGroup@UECPPoint@CryptoPP@@@CryptoPP@@UBEABUECPPoint@2@ABU32@@Z 429110cc f i dll.obj
 0001:000100cc       ?Double@?$AbstractGroup@UEC2NPoint@CryptoPP@@@CryptoPP@@UBEABUEC2NPoint@2@ABU32@@Z 429110cc f i dll.obj
 0001:000100cc       ?Double@ModularArithmetic@CryptoPP@@UBEABVInteger@2@ABV32@@Z 429110cc f i dh.obj
 0001:000100dc       ?Divide@ModularArithmetic@CryptoPP@@UBEABVInteger@2@ABV32@0@Z 429110dc f i dh.obj
 0001:000100f8       ??8ModularArithmetic@CryptoPP@@QBE_NABV01@@Z 429110f8 f i dh.obj
 0001:00010110       ?SimultaneousExponentiate@MontgomeryRepresentation@CryptoPP@@UBEXPAVInteger@2@ABV32@PBV32@I@Z 42911110 f i dh.obj
 0001:00010115       ??_EDL_SignatureMessageEncodingMethod_DSA@CryptoPP@@UAEPAXI@Z 42911115 f i dh.obj
 0001:00010115       ??_EDL_SignatureMessageEncodingMethod_NR@CryptoPP@@UAEPAXI@Z 42911115 f i dh.obj
 0001:00010159       ?Update@PK_MessageAccumulatorBase@CryptoPP@@UAEXPBEI@Z 42911159 f i dh.obj
 0001:00010185       ??0HashTransformation@CryptoPP@@QAE@XZ 42911185 f i authenc.obj
 0001:00010185       ??0StreamTransformation@CryptoPP@@QAE@XZ 42911185 f i authenc.obj
 0001:00010185       ??0RandomNumberGenerator@CryptoPP@@QAE@XZ 42911185 f i ccm.obj
 0001:00010185       ??0AsymmetricAlgorithm@CryptoPP@@QAE@XZ 42911185 f i dh.obj
 0001:00010185       ??0BlockTransformation@CryptoPP@@QAE@XZ 42911185 f i cryptlib.obj
 0001:00010193       ??0PrivateKeyAlgorithm@CryptoPP@@QAE@XZ 42911193 f i dh.obj
 0001:00010193       ??0PublicKeyAlgorithm@CryptoPP@@QAE@XZ 42911193 f i dh.obj
 0001:00010193       ??0PK_MessageAccumulator@CryptoPP@@QAE@XZ 42911193 f i dh.obj
 0001:00010193       ??0KeyAgreementAlgorithm@CryptoPP@@QAE@XZ 42911193 f i dh.obj
 0001:0001019f       ??0?$DL_FixedBasePrecomputation@VInteger@CryptoPP@@@CryptoPP@@QAE@ABV01@@Z 4291119f f i dh.obj
 0001:000101aa       ??0?$DL_FixedBasePrecomputation@VInteger@CryptoPP@@@CryptoPP@@QAE@XZ 429111aa f i dh.obj
 0001:000101b3       ??0PK_Decryptor@CryptoPP@@QAE@XZ 429111b3 f i dh.obj
 0001:000101b3       ??0PK_Signer@CryptoPP@@QAE@XZ 429111b3 f i dh.obj
 0001:000101b3       ??0PK_Verifier@CryptoPP@@QAE@XZ 429111b3 f i dh.obj
 0001:000101b3       ??0PK_Encryptor@CryptoPP@@QAE@XZ 429111b3 f i dh.obj
 0001:000101c2       ??0AuthenticatedKeyAgreementDomain@CryptoPP@@QAE@XZ 429111c2 f i dll.obj
 0001:000101c2       ??0SimpleKeyAgreementDomain@CryptoPP@@QAE@XZ 429111c2 f i dh.obj
 0001:000101ce       ?OptimalBlockSize@HMAC_Base@CryptoPP@@UBEIXZ 429111ce f i dh.obj
 0001:000101dd       ?DigestSize@HMAC_Base@CryptoPP@@UBEIXZ 429111dd f i dh.obj
 0001:000101ec       ?EncodeElement@DL_GroupParameters_IntegerBased@CryptoPP@@UBEX_NABVInteger@2@PAE@Z 429111ec f i dh.obj
 0001:0001020e       ?GetEncodedElementSize@DL_GroupParameters_IntegerBased@CryptoPP@@UBEI_N@Z 4291120e f i dh.obj
 0001:00010220       ?IsIdentity@DL_GroupParameters_GFP@CryptoPP@@UBE_NABVInteger@2@@Z 42911220 f i dh.obj
 0001:00010237       ?GetDefaultSubgroupOrderSize@DL_GroupParameters_GFP_DefaultSafePrime@CryptoPP@@MBEII@Z 42911237 f i dh.obj
 0001:0001023f       ??0?$DL_Algorithm_GDSA@VInteger@CryptoPP@@@CryptoPP@@QAE@XZ 4291123f f i dh.obj
 0001:00010248       ??0?$DL_Algorithm_GDSA@VInteger@CryptoPP@@@CryptoPP@@QAE@ABV01@@Z 42911248 f i dh.obj
 0001:00010253       ?StaticAlgorithmName@DSA@CryptoPP@@SAPBDXZ 42911253 f i dh.obj
 0001:00010259       ?IsValidPrimeLength@DSA@CryptoPP@@SA_NI@Z 42911259 f i dh.obj
 0001:00010274       ??0?$DL_SimpleKeyAgreementDomainBase@VInteger@CryptoPP@@@CryptoPP@@QAE@XZ 42911274 f i dh.obj
 0001:00010280       ?ParameterSupported@?$TF_CryptoSystemBase@VPK_Decryptor@CryptoPP@@V?$TF_Base@VTrapdoorFunctionInverse@CryptoPP@@VPK_EncryptionMessageEncodingMethod@2@@2@@CryptoPP@@UBE_NPBD@Z 42911280 f i dh.obj
 0001:00010280       ?ParameterSupported@?$TF_CryptoSystemBase@VPK_Encryptor@CryptoPP@@V?$TF_Base@VRandomizedTrapdoorFunction@CryptoPP@@VPK_EncryptionMessageEncodingMethod@2@@2@@CryptoPP@@UBE_NPBD@Z 42911280 f i dh.obj
 0001:0001028f       ?MaxPlaintextLength@?$PK_FixedLengthCryptoSystemImpl@VPK_Encryptor@CryptoPP@@@CryptoPP@@UBEII@Z 4291128f f i dh.obj
 0001:0001028f       ?MaxPlaintextLength@?$PK_FixedLengthCryptoSystemImpl@VPK_Decryptor@CryptoPP@@@CryptoPP@@UBEII@Z 4291128f f i dh.obj
 0001:000102ac       ?CiphertextLength@?$PK_FixedLengthCryptoSystemImpl@VPK_Decryptor@CryptoPP@@@CryptoPP@@UBEII@Z 429112ac f i dh.obj
 0001:000102ac       ?CiphertextLength@?$PK_FixedLengthCryptoSystemImpl@VPK_Encryptor@CryptoPP@@@CryptoPP@@UBEII@Z 429112ac f i dh.obj
 0001:000102c9       ?IsProbabilistic@?$TF_SignatureSchemeBase@VPK_Signer@CryptoPP@@V?$TF_Base@VRandomizedTrapdoorFunctionInverse@CryptoPP@@VPK_SignatureMessageEncodingMethod@2@@2@@CryptoPP@@UBE_NXZ 429112c9 f i dh.obj
 0001:000102ea       ?MaxRecoverableLengthFromSignatureLength@?$TF_SignatureSchemeBase@VPK_Signer@CryptoPP@@V?$TF_Base@VRandomizedTrapdoorFunctionInverse@CryptoPP@@VPK_SignatureMessageEncodingMethod@2@@2@@CryptoPP@@UBEII@Z 429112ea f i dh.obj
 0001:000102ea       ?MaxRecoverableLengthFromSignatureLength@?$TF_SignatureSchemeBase@VPK_Verifier@CryptoPP@@V?$TF_Base@VTrapdoorFunction@CryptoPP@@VPK_SignatureMessageEncodingMethod@2@@2@@CryptoPP@@UBEII@Z 429112ea f i dh.obj
 0001:000102f2       ?IsProbabilistic@?$TF_SignatureSchemeBase@VPK_Verifier@CryptoPP@@V?$TF_Base@VTrapdoorFunction@CryptoPP@@VPK_SignatureMessageEncodingMethod@2@@2@@CryptoPP@@UBE_NXZ 429112f2 f i dh.obj
 0001:00010313       ?RecoverablePartFirst@?$TF_SignatureSchemeBase@VPK_Signer@CryptoPP@@V?$TF_Base@VRandomizedTrapdoorFunctionInverse@CryptoPP@@VPK_SignatureMessageEncodingMethod@2@@2@@CryptoPP@@UBE_NXZ 42911313 f i dh.obj
 0001:00010313       ?RecoverablePartFirst@?$TF_SignatureSchemeBase@VPK_Verifier@CryptoPP@@V?$TF_Base@VTrapdoorFunction@CryptoPP@@VPK_SignatureMessageEncodingMethod@2@@2@@CryptoPP@@UBE_NXZ 42911313 f i dh.obj
 0001:00010322       ?StaticGetValidKeyLength@?$VariableKeyLength@$0BA@$0A@$0HPPPPPPP@$00$03$0A@@CryptoPP@@SAII@Z 42911322 f i dh.obj
 0001:00010332       ?Validate@?$DL_GroupParameters@UECPPoint@CryptoPP@@@CryptoPP@@UBE_NAAVRandomNumberGenerator@2@I@Z 42911332 f i dll.obj
 0001:00010332       ?Validate@?$DL_GroupParameters@UEC2NPoint@CryptoPP@@@CryptoPP@@UBE_NAAVRandomNumberGenerator@2@I@Z 42911332 f i dll.obj
 0001:00010332       ?Validate@?$DL_GroupParameters@VInteger@CryptoPP@@@CryptoPP@@UBE_NAAVRandomNumberGenerator@2@I@Z 42911332 f i dh.obj
 0001:000103a1       ?Precompute@?$DL_GroupParameters@UECPPoint@CryptoPP@@@CryptoPP@@UAEXI@Z 429113a1 f i dll.obj
 0001:000103a1       ?Precompute@?$DL_GroupParameters@UEC2NPoint@CryptoPP@@@CryptoPP@@UAEXI@Z 429113a1 f i dll.obj
 0001:000103a1       ?Precompute@?$DL_GroupParameters@VInteger@CryptoPP@@@CryptoPP@@UAEXI@Z 429113a1 f i dh.obj
 0001:000103d8       ?LoadPrecomputation@?$DL_GroupParameters@UECPPoint@CryptoPP@@@CryptoPP@@UAEXAAVBufferedTransformation@2@@Z 429113d8 f i dll.obj
 0001:000103d8       ?LoadPrecomputation@?$DL_GroupParameters@UEC2NPoint@CryptoPP@@@CryptoPP@@UAEXAAVBufferedTransformation@2@@Z 429113d8 f i dll.obj
 0001:000103d8       ?LoadPrecomputation@?$DL_GroupParameters@VInteger@CryptoPP@@@CryptoPP@@UAEXAAVBufferedTransformation@2@@Z 429113d8 f i dh.obj
 0001:00010408       ?GetSubgroupGenerator@?$DL_GroupParameters@UECPPoint@CryptoPP@@@CryptoPP@@UBEABUECPPoint@2@XZ 42911408 f i dll.obj
 0001:00010408       ?GetSubgroupGenerator@?$DL_GroupParameters@VInteger@CryptoPP@@@CryptoPP@@UBEABVInteger@2@XZ 42911408 f i dh.obj
 0001:00010408       ?GetSubgroupGenerator@?$DL_GroupParameters@UEC2NPoint@CryptoPP@@@CryptoPP@@UBEABUEC2NPoint@2@XZ 42911408 f i dll.obj
 0001:00010427       ?SetSubgroupGenerator@?$DL_GroupParameters@UECPPoint@CryptoPP@@@CryptoPP@@UAEXABUECPPoint@2@@Z 42911427 f i dll.obj
 0001:00010427       ?SetSubgroupGenerator@?$DL_GroupParameters@VInteger@CryptoPP@@@CryptoPP@@UAEXABVInteger@2@@Z 42911427 f i dh.obj
 0001:00010427       ?SetSubgroupGenerator@?$DL_GroupParameters@UEC2NPoint@CryptoPP@@@CryptoPP@@UAEXABUEC2NPoint@2@@Z 42911427 f i dll.obj
 0001:0001044c       ?Save@?$ASN1CryptoMaterial@V?$DL_GroupParameters@VInteger@CryptoPP@@@CryptoPP@@@CryptoPP@@UBEXAAVBufferedTransformation@2@@Z 4291144c f i dh.obj
 0001:00010454       ?Load@?$ASN1CryptoMaterial@V?$DL_GroupParameters@VInteger@CryptoPP@@@CryptoPP@@@CryptoPP@@UAEXAAVBufferedTransformation@2@@Z 42911454 f i dh.obj
 0001:0001045c       ?RLen@?$DL_ElgamalLikeSignatureAlgorithm@UECPPoint@CryptoPP@@@CryptoPP@@UBEIABV?$DL_GroupParameters@UECPPoint@CryptoPP@@@2@@Z 4291145c f i dll.obj
 0001:0001045c       ?RLen@?$DL_ElgamalLikeSignatureAlgorithm@VInteger@CryptoPP@@@CryptoPP@@UBEIABV?$DL_GroupParameters@VInteger@CryptoPP@@@2@@Z 4291145c f i dh.obj
 0001:0001045c       ?SLen@?$DL_ElgamalLikeSignatureAlgorithm@VInteger@CryptoPP@@@CryptoPP@@UBEIABV?$DL_GroupParameters@VInteger@CryptoPP@@@2@@Z 4291145c f i dh.obj
 0001:0001045c       ?RLen@?$DL_ElgamalLikeSignatureAlgorithm@UEC2NPoint@CryptoPP@@@CryptoPP@@UBEIABV?$DL_GroupParameters@UEC2NPoint@CryptoPP@@@2@@Z 4291145c f i dll.obj
 0001:0001045c       ?SLen@?$DL_ElgamalLikeSignatureAlgorithm@UECPPoint@CryptoPP@@@CryptoPP@@UBEIABV?$DL_GroupParameters@UECPPoint@CryptoPP@@@2@@Z 4291145c f i dll.obj
 0001:0001045c       ?SLen@?$DL_ElgamalLikeSignatureAlgorithm@UEC2NPoint@CryptoPP@@@CryptoPP@@UBEIABV?$DL_GroupParameters@UEC2NPoint@CryptoPP@@@2@@Z 4291145c f i dll.obj
 0001:0001046f       ?DEREncodePublicKey@?$DL_PublicKey_GFP@VDL_GroupParameters_DSA@CryptoPP@@@CryptoPP@@UBEXAAVBufferedTransformation@2@@Z 4291146f f i dh.obj
 0001:0001047e       ?Validate@?$DL_PublicKeyImpl@VDL_GroupParameters_DSA@CryptoPP@@@CryptoPP@@UBE_NAAVRandomNumberGenerator@2@I@Z 4291147e f i dh.obj
 0001:000104db       ?Precompute@?$DL_PublicKeyImpl@VDL_GroupParameters_DSA@CryptoPP@@@CryptoPP@@UAEXI@Z 429114db f i dh.obj
 0001:00010541       ?LoadPrecomputation@?$DL_PublicKeyImpl@VDL_GroupParameters_DSA@CryptoPP@@@CryptoPP@@UAEXAAVBufferedTransformation@2@@Z 42911541 f i dh.obj
 0001:0001058e       ?SavePrecomputation@?$DL_PublicKeyImpl@VDL_GroupParameters_DSA@CryptoPP@@@CryptoPP@@UBEXAAVBufferedTransformation@2@@Z 4291158e f i dh.obj
 0001:000105da       ?GetPublicPrecomputation@?$DL_PublicKeyImpl@VDL_GroupParameters_DSA@CryptoPP@@@CryptoPP@@UBEABV?$DL_FixedBasePrecomputation@VInteger@CryptoPP@@@2@XZ 429115da f i dh.obj
 0001:000105da       ?GetPrime1@InvertibleRSAFunction@CryptoPP@@QBEABVInteger@2@XZ 429115da f i dll.obj
 0001:000105da       ?AccessPublicPrecomputation@?$DL_PublicKeyImpl@VDL_GroupParameters_DSA@CryptoPP@@@CryptoPP@@UAEAAV?$DL_FixedBasePrecomputation@VInteger@CryptoPP@@@2@XZ 429115da f i dh.obj
 0001:000105da       ?GetSubgroupOrder@?$DL_GroupParameters_EC@VECP@CryptoPP@@@CryptoPP@@UBEABVInteger@2@XZ 429115da f i dll.obj
 0001:000105e1       ?GetPublicElement@?$DL_PublicKey@VInteger@CryptoPP@@@CryptoPP@@UBEABVInteger@2@XZ 429115e1 f i dh.obj
 0001:000105e1       ?GetPublicElement@?$DL_PublicKey@UECPPoint@CryptoPP@@@CryptoPP@@UBEABUECPPoint@2@XZ 429115e1 f i dll.obj
 0001:000105e1       ?GetPublicElement@?$DL_PublicKey@UEC2NPoint@CryptoPP@@@CryptoPP@@UBEABUEC2NPoint@2@XZ 429115e1 f i dll.obj
 0001:00010608       ?SetPublicElement@?$DL_PublicKey@UEC2NPoint@CryptoPP@@@CryptoPP@@UAEXABUEC2NPoint@2@@Z 42911608 f i dll.obj
 0001:00010608       ?SetPublicElement@?$DL_PublicKey@VInteger@CryptoPP@@@CryptoPP@@UAEXABVInteger@2@@Z 42911608 f i dh.obj
 0001:00010608       ?SetPublicElement@?$DL_PublicKey@UECPPoint@CryptoPP@@@CryptoPP@@UAEXABUECPPoint@2@@Z 42911608 f i dll.obj
 0001:00010635       ?Precompute@?$DL_PrivateKeyImpl@VDL_GroupParameters_DSA@CryptoPP@@@CryptoPP@@UAEXI@Z 42911635 f i dh.obj
 0001:0001064f       ?LoadPrecomputation@?$DL_PrivateKeyImpl@VDL_GroupParameters_DSA@CryptoPP@@@CryptoPP@@UAEXAAVBufferedTransformation@2@@Z 4291164f f i dh.obj
 0001:00010669       ?SavePrecomputation@?$DL_PrivateKeyImpl@VDL_GroupParameters_DSA@CryptoPP@@@CryptoPP@@UBEXAAVBufferedTransformation@2@@Z 42911669 f i dh.obj
 0001:00010682       ?GetPrivateExponent@?$DL_PrivateKeyImpl@VDL_GroupParameters_DSA@CryptoPP@@@CryptoPP@@UBEABVInteger@2@XZ 42911682 f i dh.obj
 0001:00010689       ?SetPrivateExponent@?$DL_PrivateKeyImpl@VDL_GroupParameters_DSA@CryptoPP@@@CryptoPP@@UAEXABVInteger@2@@Z 42911689 f i dh.obj
 0001:00010694       ?BERDecodePrivateKey@?$DL_PrivateKeyImpl@VDL_GroupParameters_DSA@CryptoPP@@@CryptoPP@@UAEXAAVBufferedTransformation@2@_NI@Z 42911694 f i dh.obj
 0001:000106a6       ?DEREncodePrivateKey@?$DL_PrivateKeyImpl@VDL_GroupParameters_DSA@CryptoPP@@@CryptoPP@@UBEXAAVBufferedTransformation@2@@Z 429116a6 f i dh.obj
 0001:000106b1       ?AccessAbstractGroupParameters@?$DH_Domain@VDL_GroupParameters_GFP_DefaultSafePrime@CryptoPP@@U?$EnumToType@W4CofactorMultiplicationOption@CryptoPP@@$0A@@2@@CryptoPP@@EAEAAV?$DL_GroupParameters@VInteger@CryptoPP@@@2@XZ 429116b1 f i dh.obj
 0001:000106be       ??0MultiplicativeGroupT@?$AbstractRing@VInteger@CryptoPP@@@CryptoPP@@QAE@XZ 429116be f i dh.obj
 0001:000106c7       ?capacity@?$vector@VInteger@CryptoPP@@V?$allocator@VInteger@CryptoPP@@@std@@@std@@QBEIXZ 429116c7 f i dh.obj
 0001:000106dd       ?size@?$vector@VInteger@CryptoPP@@V?$allocator@VInteger@CryptoPP@@@std@@@std@@QBEIXZ 429116dd f i dh.obj
 0001:000106f3       ??8?$SecBlock@EV?$AllocatorWithCleanup@E$0A@@CryptoPP@@@CryptoPP@@QBE_NABV01@@Z 429116f3 f i dh.obj
 0001:0001071c       ?GetGenerator@?$DL_GroupParameters_IntegerBasedImpl@VModExpPrecomputation@CryptoPP@@V?$DL_FixedBasePrecomputationImpl@VInteger@CryptoPP@@@2@@CryptoPP@@QBEABVInteger@2@XZ 4291171c f i dh.obj
 0001:00010734       ??$GetValueHelper@V?$DL_PublicKey@VInteger@CryptoPP@@@CryptoPP@@@CryptoPP@@YA?AV?$GetValueHelperClass@V?$DL_PublicKey@VInteger@CryptoPP@@@CryptoPP@@V12@@0@PBV?$DL_PublicKey@VInteger@CryptoPP@@@0@PBDABVtype_info@@PAXPBVNameValuePairs@0@@Z 42911734 f i dh.obj
 0001:00010753       ??$GetValueHelper@V?$DL_PrivateKey@VInteger@CryptoPP@@@CryptoPP@@@CryptoPP@@YA?AV?$GetValueHelperClass@V?$DL_PrivateKey@VInteger@CryptoPP@@@CryptoPP@@V12@@0@PBV?$DL_PrivateKey@VInteger@CryptoPP@@@0@PBDABVtype_info@@PAXPBVNameValuePairs@0@@Z 42911753 f i dh.obj
 0001:00010772       ??$AssignFromHelper@V?$DL_PrivateKey@VInteger@CryptoPP@@@CryptoPP@@@CryptoPP@@YA?AV?$AssignFromHelperClass@V?$DL_PrivateKey@VInteger@CryptoPP@@@CryptoPP@@V12@@0@PAV?$DL_PrivateKey@VInteger@CryptoPP@@@0@ABVNameValuePairs@0@@Z 42911772 f i dh.obj
 0001:00010788       ??$AssignFromHelper@V?$DL_PublicKey@VInteger@CryptoPP@@@CryptoPP@@@CryptoPP@@YA?AV?$AssignFromHelperClass@V?$DL_PublicKey@VInteger@CryptoPP@@@CryptoPP@@V12@@0@PAV?$DL_PublicKey@VInteger@CryptoPP@@@0@ABVNameValuePairs@0@@Z 42911788 f i dh.obj
 0001:0001079e       ??$_Copy_opt@PAVInteger@CryptoPP@@PAV12@@std@@YAPAVInteger@CryptoPP@@PAV12@00U_Nonscalar_ptr_iterator_tag@0@@Z 4291179e f i dh.obj
 0001:000107c2       ??$_Construct@VInteger@CryptoPP@@V12@@std@@YAXPAVInteger@CryptoPP@@ABV12@@Z 429117c2 f i dh.obj
 0001:000107ef       ?OptimalBlockSize@?$IteratedHashBase@_KVHashTransformation@CryptoPP@@@CryptoPP@@UBEIXZ 429117ef f i cryptlib.obj
 0001:000107ef       ?MinIVLength@SimpleKeyingInterface@CryptoPP@@UBEIXZ 429117ef f i ccm.obj
 0001:000107ef       ??_9@$BCA@AE               429117ef f i dh.obj
 0001:000107ef       ?DefaultIVLength@SimpleKeyingInterface@CryptoPP@@QBEIXZ 429117ef f i dll.obj
 0001:000107ef       ?MaxIVLength@SimpleKeyingInterface@CryptoPP@@UBEIXZ 429117ef f i ccm.obj
 0001:000107ef       ?OptimalBlockSize@?$IteratedHashBase@IVHashTransformation@CryptoPP@@@CryptoPP@@UBEIXZ 429117ef f i cryptlib.obj
 0001:000107f4       ??_9@$B3AE                 429117f4 f i dh.obj
 0001:000107f9       ??_9@$B7AE                 429117f9 f i dh.obj
 0001:000107f9       ?BEREncode@ASN1Object@CryptoPP@@UBEXAAVBufferedTransformation@2@@Z 429117f9 f i asn.obj
 0001:000107f9       ?GetOptimalBlockSize@AdditiveCipherAbstractPolicy@CryptoPP@@UBEIXZ 429117f9 f i ccm.obj
 0001:000107fe       ??_9@$BM@AE                429117fe f i dh.obj
 0001:000107fe       ?Put@RandomPool@CryptoPP@@QAEXPBEI@Z 429117fe f i cryptlib.obj
 0001:000107fe       ?OptimalBlockSize@StreamTransformation@CryptoPP@@UBEIXZ 429117fe f i ccm.obj
 0001:00010803       ??4?$AbstractEuclideanDomain@VInteger@CryptoPP@@@CryptoPP@@QAEAAV01@ABV01@@Z 42911803 f i dh.obj
 0001:0001081c       ??4ModularArithmetic@CryptoPP@@QAEAAV01@ABV01@@Z 4291181c f i dh.obj
 0001:0001084f       ??0?$TF_SignatureSchemeBase@VPK_Signer@CryptoPP@@V?$TF_Base@VRandomizedTrapdoorFunctionInverse@CryptoPP@@VPK_SignatureMessageEncodingMethod@2@@2@@CryptoPP@@QAE@XZ 4291184f f i dh.obj
 0001:0001084f       ??0?$PK_FixedLengthCryptoSystemImpl@VPK_Decryptor@CryptoPP@@@CryptoPP@@QAE@XZ 4291184f f i dh.obj
 0001:0001084f       ??0?$TF_SignatureSchemeBase@VPK_Verifier@CryptoPP@@V?$TF_Base@VTrapdoorFunction@CryptoPP@@VPK_SignatureMessageEncodingMethod@2@@2@@CryptoPP@@QAE@XZ 4291184f f i dh.obj
 0001:0001084f       ??0?$PK_FixedLengthCryptoSystemImpl@VPK_Encryptor@CryptoPP@@@CryptoPP@@QAE@XZ 4291184f f i dh.obj
 0001:0001085b       ??0?$TF_CryptoSystemBase@VPK_Encryptor@CryptoPP@@V?$TF_Base@VRandomizedTrapdoorFunction@CryptoPP@@VPK_EncryptionMessageEncodingMethod@2@@2@@CryptoPP@@QAE@XZ 4291185b f i dh.obj
 0001:0001085b       ??0TF_VerifierBase@CryptoPP@@QAE@XZ 4291185b f i dh.obj
 0001:0001085b       ??0TF_SignerBase@CryptoPP@@QAE@XZ 4291185b f i dh.obj
 0001:0001085b       ??0?$TF_CryptoSystemBase@VPK_Decryptor@CryptoPP@@V?$TF_Base@VTrapdoorFunctionInverse@CryptoPP@@VPK_EncryptionMessageEncodingMethod@2@@2@@CryptoPP@@QAE@XZ 4291185b f i dh.obj
 0001:00010867       ??0TF_DecryptorBase@CryptoPP@@QAE@XZ 42911867 f i dh.obj
 0001:00010867       ??0TF_EncryptorBase@CryptoPP@@QAE@XZ 42911867 f i dh.obj
 0001:00010873       ??0DL_SignatureMessageEncodingMethod_DSA@CryptoPP@@QAE@XZ 42911873 f i dh.obj
 0001:0001087c       ?NextPut@FilterWithBufferedInput@CryptoPP@@MAEHPBEI@Z 4291187c f i asn.obj
 0001:0001087c       ?MinRepresentativeBitLength@PK_SignatureMessageEncodingMethod@CryptoPP@@UBEIII@Z 4291187c f i dh.obj
 0001:00010881       ?MaxRecoverableLength@PK_SignatureMessageEncodingMethod@CryptoPP@@UBEIIII@Z 42911881 f i dh.obj
 0001:00010886       ?UncheckedSetKey@AuthenticatedSymmetricCipherBase@CryptoPP@@UAEXPBEIABVNameValuePairs@2@@Z 42911886 f i authenc.obj
 0001:00010886       ?ProcessSemisignature@PK_SignatureMessageEncodingMethod@CryptoPP@@UBEXAAVHashTransformation@2@PBEI@Z 42911886 f i dh.obj
 0001:00010889       ?ProcessRecoverableMessage@PK_SignatureMessageEncodingMethod@CryptoPP@@UBEXAAVHashTransformation@2@PBEI1IAAV?$SecBlock@EV?$AllocatorWithCleanup@E$0A@@CryptoPP@@@2@@Z 42911889 f i dh.obj
 0001:00010891       ??0DL_SignatureMessageEncodingMethod_DSA@CryptoPP@@QAE@ABV01@@Z 42911891 f i dh.obj
 0001:0001089c       ??0DL_SignatureMessageEncodingMethod_NR@CryptoPP@@QAE@XZ 4291189c f i dh.obj
 0001:000108a5       ??0DL_SignatureMessageEncodingMethod_NR@CryptoPP@@QAE@ABV01@@Z 429118a5 f i dh.obj
 0001:000108b0       ??0CryptoParameters@CryptoPP@@QAE@XZ 429118b0 f i dh.obj
 0001:000108d7       ??0CryptoParameters@CryptoPP@@QAE@ABV01@@Z 429118d7 f i dh.obj
 0001:00010901       ?SetModulus@ModExpPrecomputation@CryptoPP@@QAEXABVInteger@2@@Z 42911901 f i dh.obj
 0001:00010949       ?AccessOpad@HMAC_Base@CryptoPP@@IAEPAEXZ 42911949 f i dh.obj
 0001:0001095f       ?AccessInnerHash@HMAC_Base@CryptoPP@@IAEPAEXZ 4291195f f i dh.obj
 0001:00010976       ??0?$DL_GroupParameters@VInteger@CryptoPP@@@CryptoPP@@QAE@ABV01@@Z 42911976 f i dh.obj
 0001:000109a9       ?SetSubgroupOrder@DL_GroupParameters_IntegerBased@CryptoPP@@QAEXABVInteger@2@@Z 429119a9 f i dh.obj
 0001:000109c0       ??0?$ASN1CryptoMaterial@V?$DL_GroupParameters@VInteger@CryptoPP@@@CryptoPP@@@CryptoPP@@QAE@ABV01@@Z 429119c0 f i dh.obj
 0001:000109f7       ??4?$ASN1CryptoMaterial@V?$DL_GroupParameters@VInteger@CryptoPP@@@CryptoPP@@@CryptoPP@@QAEAAV01@ABV01@@Z 429119f7 f i dh.obj
 0001:00010a0f       ??4DL_GroupParameters_IntegerBased@CryptoPP@@QAEAAV01@ABV01@@Z 42911a0f f i dh.obj
 0001:00010a39       ??0?$AbstractRing@VInteger@CryptoPP@@@CryptoPP@@QAE@XZ 42911a39 f i dh.obj
 0001:00010a4b       ??0?$AbstractRing@VInteger@CryptoPP@@@CryptoPP@@QAE@ABV01@@Z 42911a4b f i dh.obj
 0001:00010a5f       ?Equal@MultiplicativeGroupT@?$AbstractRing@VInteger@CryptoPP@@@CryptoPP@@UBE_NABVInteger@3@0@Z 42911a5f f i dh.obj
 0001:00010a5f       ?Equal@MultiplicativeGroupT@?$AbstractRing@VPolynomialMod2@CryptoPP@@@CryptoPP@@UBE_NABVPolynomialMod2@3@0@Z 42911a5f f i dll.obj
 0001:00010a67       ?Accumulate@MultiplicativeGroupT@?$AbstractRing@VInteger@CryptoPP@@@CryptoPP@@UBEAAVInteger@3@AAV43@ABV43@@Z 42911a67 f i dh.obj
 0001:00010a84       ?Subtract@MultiplicativeGroupT@?$AbstractRing@VPolynomialMod2@CryptoPP@@@CryptoPP@@UBEABVPolynomialMod2@3@ABV43@0@Z 42911a84 f i dll.obj
 0001:00010a84       ?Subtract@MultiplicativeGroupT@?$AbstractRing@VInteger@CryptoPP@@@CryptoPP@@UBEABVInteger@3@ABV43@0@Z 42911a84 f i dh.obj
 0001:00010a8c       ?Reduce@MultiplicativeGroupT@?$AbstractRing@VInteger@CryptoPP@@@CryptoPP@@UBEAAVInteger@3@AAV43@ABV43@@Z 42911a8c f i dh.obj
 0001:00010aa9       ?Double@MultiplicativeGroupT@?$AbstractRing@VInteger@CryptoPP@@@CryptoPP@@UBEABVInteger@3@ABV43@@Z 42911aa9 f i dh.obj
 0001:00010aa9       ?Double@MultiplicativeGroupT@?$AbstractRing@VPolynomialMod2@CryptoPP@@@CryptoPP@@UBEABVPolynomialMod2@3@ABV43@@Z 42911aa9 f i dll.obj
 0001:00010ab1       ?SimultaneousMultiply@MultiplicativeGroupT@?$AbstractRing@VPolynomialMod2@CryptoPP@@@CryptoPP@@UBEXPAVPolynomialMod2@3@ABV43@PBVInteger@3@I@Z 42911ab1 f i dll.obj
 0001:00010ab1       ?SimultaneousMultiply@MultiplicativeGroupT@?$AbstractRing@VInteger@CryptoPP@@@CryptoPP@@UBEXPAVInteger@3@ABV43@PBV43@I@Z 42911ab1 f i dh.obj
 0001:00010ab9       ?IsInitialized@?$DL_FixedBasePrecomputationImpl@VInteger@CryptoPP@@@CryptoPP@@UBE_NXZ 42911ab9 f i dh.obj
 0001:00010ac8       ??0?$DL_GroupParameters@VInteger@CryptoPP@@@CryptoPP@@QAE@XZ 42911ac8 f i dh.obj
 0001:00010af4       ?GetModulus@?$DL_GroupParameters_IntegerBasedImpl@VModExpPrecomputation@CryptoPP@@V?$DL_FixedBasePrecomputationImpl@VInteger@CryptoPP@@@2@@CryptoPP@@UBEABVInteger@2@XZ 42911af4 f i dh.obj
 0001:00010afb       ?SetModulusAndSubgroupGenerator@?$DL_GroupParameters_IntegerBasedImpl@VModExpPrecomputation@CryptoPP@@V?$DL_FixedBasePrecomputationImpl@VInteger@CryptoPP@@@2@@CryptoPP@@UAEXABVInteger@2@0@Z 42911afb f i dh.obj
 0001:00010b2d       ?AccessAbstractGroupParameters@?$DL_PublicKeyImpl@VDL_GroupParameters_DSA@CryptoPP@@@CryptoPP@@UAEAAV?$DL_GroupParameters@VInteger@CryptoPP@@@2@XZ 42911b2d f i dh.obj
 0001:00010b2d       ?GetAbstractGroupParameters@?$DL_PublicKeyImpl@VDL_GroupParameters_DSA@CryptoPP@@@CryptoPP@@UBEABV?$DL_GroupParameters@VInteger@CryptoPP@@@2@XZ 42911b2d f i dh.obj
 0001:00010b3a       ?BERDecodeAlgorithmParameters@?$DL_KeyImpl@VX509PublicKey@CryptoPP@@VDL_GroupParameters_DSA@2@VOID@2@@CryptoPP@@UAE_NAAVBufferedTransformation@2@@Z 42911b3a f i dh.obj
 0001:00010b4b       ?DEREncodeAlgorithmParameters@?$DL_KeyImpl@VX509PublicKey@CryptoPP@@VDL_GroupParameters_DSA@2@VOID@2@@CryptoPP@@UBE_NAAVBufferedTransformation@2@@Z 42911b4b f i dh.obj
 0001:00010b5c       ?AccessAbstractGroupParameters@?$DL_PrivateKeyImpl@VDL_GroupParameters_DSA@CryptoPP@@@CryptoPP@@UAEAAV?$DL_GroupParameters@VInteger@CryptoPP@@@2@XZ 42911b5c f i dh.obj
 0001:00010b5c       ?GetAbstractGroupParameters@?$DL_PrivateKeyImpl@VDL_GroupParameters_DSA@CryptoPP@@@CryptoPP@@UBEABV?$DL_GroupParameters@VInteger@CryptoPP@@@2@XZ 42911b5c f i dh.obj
 0001:00010b69       ?BERDecodeAlgorithmParameters@?$DL_KeyImpl@VPKCS8PrivateKey@CryptoPP@@VDL_GroupParameters_DSA@2@VOID@2@@CryptoPP@@UAE_NAAVBufferedTransformation@2@@Z 42911b69 f i dh.obj
 0001:00010b7a       ?DEREncodeAlgorithmParameters@?$DL_KeyImpl@VPKCS8PrivateKey@CryptoPP@@VDL_GroupParameters_DSA@2@VOID@2@@CryptoPP@@UBE_NAAVBufferedTransformation@2@@Z 42911b7a f i dh.obj
 0001:00010b8b       ?AgreedValueLength@?$DL_SimpleKeyAgreementDomainBase@VInteger@CryptoPP@@@CryptoPP@@UBEIXZ 42911b8b f i dh.obj
 0001:00010b9a       ?PrivateKeyLength@?$DL_SimpleKeyAgreementDomainBase@VInteger@CryptoPP@@@CryptoPP@@UBEIXZ 42911b9a f i dh.obj
 0001:00010bad       ?PublicKeyLength@?$DL_SimpleKeyAgreementDomainBase@VInteger@CryptoPP@@@CryptoPP@@UBEIXZ 42911bad f i dh.obj
 0001:00010bbc       ?GetGenerator@?$DL_SimpleKeyAgreementDomainBase@VInteger@CryptoPP@@@CryptoPP@@QBEABVInteger@2@XZ 42911bbc f i dh.obj
 0001:00010bc8       ??_GMultiplicativeGroupT@?$AbstractRing@VInteger@CryptoPP@@@CryptoPP@@UAEPAXI@Z 42911bc8 f i dh.obj
 0001:00010bc8       ??_GWalker@ByteQueue@CryptoPP@@UAEPAXI@Z 42911bc8 f i asn.obj
 0001:00010bc8       ??_GClassNullRNG@CryptoPP@@UAEPAXI@Z 42911bc8 f i cryptlib.obj
 0001:00010bc8       ??_EWalker@ByteQueue@CryptoPP@@UAEPAXI@Z 42911bc8 f i asn.obj
 0001:00010bc8       ??_EMultiplicativeGroupT@?$AbstractRing@VInteger@CryptoPP@@@CryptoPP@@UAEPAXI@Z 42911bc8 f i dh.obj
 0001:00010bc8       ??_GStringStore@CryptoPP@@UAEPAXI@Z 42911bc8 f i asn.obj
 0001:00010bc8       ??_EClassNullRNG@CryptoPP@@UAEPAXI@Z 42911bc8 f i cryptlib.obj
 0001:00010bc8       ??_EStringStore@CryptoPP@@UAEPAXI@Z 42911bc8 f i asn.obj
 0001:00010bdf       ??8?$DL_GroupParameters_IntegerBasedImpl@VModExpPrecomputation@CryptoPP@@V?$DL_FixedBasePrecomputationImpl@VInteger@CryptoPP@@@2@@CryptoPP@@QBE_NABV01@@Z 42911bdf f i dh.obj
 0001:00010c49       ??$copy@PAVInteger@CryptoPP@@PAV12@@std@@YAPAVInteger@CryptoPP@@PAV12@00@Z 42911c49 f i dh.obj
 0001:00010c63       ??$Hack_GetValueIntoConstReference@VInteger@CryptoPP@@@CryptoPP@@YA_NABVNameValuePairs@0@PBDABVInteger@0@@Z 42911c63 f i dh.obj
 0001:00010c7a       ?Initialize@DL_GroupParameters_IntegerBased@CryptoPP@@QAEXABVInteger@2@00@Z 42911c7a f i dh.obj
 0001:00010c99       ??0?$ASN1CryptoMaterial@V?$DL_GroupParameters@VInteger@CryptoPP@@@CryptoPP@@@CryptoPP@@QAE@XZ 42911c99 f i dh.obj
 0001:00010cc1       ??1?$AutoSeededX917RNG@VRijndael@CryptoPP@@@CryptoPP@@UAE@XZ 42911cc1 f i cryptlib.obj
 0001:00010cc1       ??1AlgorithmParameters@CryptoPP@@UAE@XZ 42911cc1 f i algparam.obj
 0001:00010cc1       ??1ModExpPrecomputation@CryptoPP@@QAE@XZ 42911cc1 f i dh.obj
 0001:00010cc9       ?DEREncodeElement@ModExpPrecomputation@CryptoPP@@UBEXAAVBufferedTransformation@2@ABVInteger@2@@Z 42911cc9 f i dh.obj
 0001:00010cd9       ?GetGroup@ModExpPrecomputation@CryptoPP@@UBEABV?$AbstractGroup@VInteger@CryptoPP@@@2@XZ 42911cd9 f i dh.obj
 0001:00010ce1       ??8?$DL_PublicKeyImpl@VDL_GroupParameters_DSA@CryptoPP@@@CryptoPP@@QBE_NABV01@@Z 42911ce1 f i dh.obj
 0001:00010d1f       ??R?$NewObject@V?$DL_KeyAgreementAlgorithm_DH@VInteger@CryptoPP@@U?$EnumToType@W4CofactorMultiplicationOption@CryptoPP@@$0A@@2@@CryptoPP@@@CryptoPP@@QBEPAV?$DL_KeyAgreementAlgorithm_DH@VInteger@CryptoPP@@U?$EnumToType@W4CofactorMultiplicationOption@CryptoPP@@$0A@@2@@1@XZ 42911d1f f i dh.obj
 0001:00010d35       ??$_Destroy_range@VInteger@CryptoPP@@V?$allocator@VInteger@CryptoPP@@@std@@@std@@YAXPAVInteger@CryptoPP@@0AAV?$allocator@VInteger@CryptoPP@@@0@U_Nonscalar_ptr_iterator_tag@0@@Z 42911d35 f i dh.obj
 0001:00010d4f       ??$_Uninit_copy@Vconst_iterator@?$vector@VInteger@CryptoPP@@V?$allocator@VInteger@CryptoPP@@@std@@@std@@PAVInteger@CryptoPP@@V?$allocator@VInteger@CryptoPP@@@3@@std@@YAPAVInteger@CryptoPP@@Vconst_iterator@?$vector@VInteger@CryptoPP@@V?$allocator@VInteger@CryptoPP@@@std@@@0@0PAV12@AAV?$allocator@VInteger@CryptoPP@@@0@U_Nonscalar_ptr_iterator_tag@0@@Z 42911d4f f i dh.obj
 0001:00010d4f       ??$_Uninit_copy@PAVInteger@CryptoPP@@PAV12@V?$allocator@VInteger@CryptoPP@@@std@@@std@@YAPAVInteger@CryptoPP@@PAV12@00AAV?$allocator@VInteger@CryptoPP@@@0@U_Nonscalar_ptr_iterator_tag@0@@Z 42911d4f f i dh.obj
 0001:00010db5       ?Initialize@DL_GroupParameters_IntegerBased@CryptoPP@@QAEXABV12@@Z 42911db5 f i dh.obj
 0001:00010de6       ?GetBase@?$DL_FixedBasePrecomputationImpl@VInteger@CryptoPP@@@CryptoPP@@UBEABVInteger@2@ABV?$DL_GroupPrecomputation@VInteger@CryptoPP@@@2@@Z 42911de6 f i dh.obj
 0001:00010dff       ?append@?$basic_string@DU?$char_traits@D@std@@V?$allocator@D@2@@std@@QAEAAV12@ID@Z 42911dff f i dh.obj
 0001:00010e5f       ?Ref@?$Singleton@V?$DL_KeyAgreementAlgorithm_DH@VInteger@CryptoPP@@U?$EnumToType@W4CofactorMultiplicationOption@CryptoPP@@$0A@@2@@CryptoPP@@U?$NewObject@V?$DL_KeyAgreementAlgorithm_DH@VInteger@CryptoPP@@U?$EnumToType@W4CofactorMultiplicationOption@CryptoPP@@$0A@@2@@CryptoPP@@@2@$0A@@CryptoPP@@QBEABV?$DL_KeyAgreementAlgorithm_DH@VInteger@CryptoPP@@U?$EnumToType@W4CofactorMultiplicationOption@CryptoPP@@$0A@@2@@2@XZ 42911e5f f i dh.obj
 0001:00010eb0       ??$_Destroy_range@VInteger@CryptoPP@@V?$allocator@VInteger@CryptoPP@@@std@@@std@@YAXPAVInteger@CryptoPP@@0AAV?$allocator@VInteger@CryptoPP@@@0@@Z 42911eb0 f i dh.obj
 0001:00010eca       ??$_Uninitialized_copy@Vconst_iterator@?$vector@VInteger@CryptoPP@@V?$allocator@VInteger@CryptoPP@@@std@@@std@@PAVInteger@CryptoPP@@V?$allocator@VInteger@CryptoPP@@@3@@std@@YAPAVInteger@CryptoPP@@Vconst_iterator@?$vector@VInteger@CryptoPP@@V?$allocator@VInteger@CryptoPP@@@std@@@0@0PAV12@AAV?$allocator@VInteger@CryptoPP@@@0@@Z 42911eca f i dh.obj
 0001:00010eca       ??$_Uninitialized_copy@PAVInteger@CryptoPP@@PAV12@V?$allocator@VInteger@CryptoPP@@@std@@@std@@YAPAVInteger@CryptoPP@@PAV12@00AAV?$allocator@VInteger@CryptoPP@@@0@@Z 42911eca f i dh.obj
 0001:00010ee7       ??HCryptoPP@@YA?AVInteger@0@ABV10@0@Z 42911ee7 f i dh.obj
 0001:00010f02       ??GCryptoPP@@YA?AVInteger@0@ABV10@0@Z 42911f02 f i dh.obj
 0001:00010f1d       ??DCryptoPP@@YA?AVInteger@0@ABV10@0@Z 42911f1d f i dh.obj
 0001:00010f38       ??KCryptoPP@@YA?AVInteger@0@ABV10@0@Z 42911f38 f i dh.obj
 0001:00010f53       ??LCryptoPP@@YA?AVInteger@0@ABV10@0@Z 42911f53 f i dh.obj
 0001:00010f6e       ??KCryptoPP@@YA?AVInteger@0@ABV10@I@Z 42911f6e f i dh.obj
 0001:00010f89       ??0?$AbstractEuclideanDomain@VInteger@CryptoPP@@@CryptoPP@@QAE@XZ 42911f89 f i dh.obj
 0001:00010fa2       ??1?$AbstractEuclideanDomain@VInteger@CryptoPP@@@CryptoPP@@UAE@XZ 42911fa2 f i dh.obj
 0001:00010fb1       ??0?$AbstractEuclideanDomain@VInteger@CryptoPP@@@CryptoPP@@QAE@ABV01@@Z 42911fb1 f i dh.obj
 0001:00010fd4       ??0ModularArithmetic@CryptoPP@@QAE@ABVInteger@1@@Z 42911fd4 f i dh.obj
 0001:00011031       ??0ModularArithmetic@CryptoPP@@QAE@ABV01@@Z 42912031 f i dh.obj
 0001:0001108f       ?Clone@ModularArithmetic@CryptoPP@@UBEPAV12@XZ 4291208f f i dh.obj
 0001:000110c6       ?ConvertIn@ModularArithmetic@CryptoPP@@UBE?AVInteger@2@ABV32@@Z 429120c6 f i dh.obj
 0001:000110e7       ?ConvertOut@ModularArithmetic@CryptoPP@@UBE?AVInteger@2@ABV32@@Z 429120e7 f i dh.obj
 0001:000110e7       ?ConvertElementToInteger@DL_GroupParameters_IntegerBased@CryptoPP@@UBE?AVInteger@2@ABV32@@Z 429120e7 f i dh.obj
 0001:00011101       ?Multiply@ModularArithmetic@CryptoPP@@UBEABVInteger@2@ABV32@0@Z 42912101 f i dh.obj
 0001:00011179       ?IsUnit@ModularArithmetic@CryptoPP@@UBE_NABVInteger@2@@Z 42912179 f i dh.obj
 0001:000111ca       ?MultiplicativeInverse@ModularArithmetic@CryptoPP@@UBEABVInteger@2@ABV32@@Z 429121ca f i dh.obj
 0001:0001121c       ?MaxElementBitLength@ModularArithmetic@CryptoPP@@QBEIXZ 4291221c f i dh.obj
 0001:0001128e       ?MaxElementByteLength@ModularArithmetic@CryptoPP@@QBEIXZ 4291228e f i dh.obj
 0001:00011300       ?RandomElement@ModularArithmetic@CryptoPP@@QBE?AVInteger@2@AAVRandomNumberGenerator@2@ABH@Z 42912300 f i dh.obj
 0001:000113b4       ??1ModularArithmetic@CryptoPP@@UAE@XZ 429123b4 f i dh.obj
 0001:0001140b       ??_FModularArithmetic@CryptoPP@@QAEXXZ 4291240b f i dh.obj
 0001:0001141d       ??_EModularArithmetic@CryptoPP@@UAEPAXI@Z 4291241d f i dh.obj
 0001:00011468       ?MultiplicativeIdentity@MontgomeryRepresentation@CryptoPP@@UBEABVInteger@2@XZ 42912468 f i dh.obj
 0001:000114df       ?CascadeExponentiate@MontgomeryRepresentation@CryptoPP@@UBE?AVInteger@2@ABV32@000@Z 429124df f i dh.obj
 0001:00011502       ??1MontgomeryRepresentation@CryptoPP@@UAE@XZ 42912502 f i dh.obj
 0001:00011552       ??_EMontgomeryRepresentation@CryptoPP@@UAEPAXI@Z 42912552 f i dh.obj
 0001:0001159d       ?MaxPreimage@TrapdoorFunctionBounds@CryptoPP@@UBE?AVInteger@2@XZ 4291259d f i dh.obj
 0001:000115f5       ?MaxImage@TrapdoorFunctionBounds@CryptoPP@@UBE?AVInteger@2@XZ 429125f5 f i dh.obj
 0001:0001164d       ?ApplyRandomizedFunction@TrapdoorFunction@CryptoPP@@UBE?AVInteger@2@AAVRandomNumberGenerator@2@ABV32@@Z 4291264d f i dh.obj
 0001:00011667       ?CalculateRandomizedInverse@TrapdoorFunctionInverse@CryptoPP@@UBE?AVInteger@2@AAVRandomNumberGenerator@2@ABV32@@Z 42912667 f i dh.obj
 0001:00011684       ??1PK_MessageAccumulatorBase@CryptoPP@@UAE@XZ 42912684 f i dh.obj
 0001:00011711       ?ConvertIn@ModExpPrecomputation@CryptoPP@@UBE?AVInteger@2@ABV32@@Z 42912711 f i dh.obj
 0001:0001172e       ?ConvertOut@ModExpPrecomputation@CryptoPP@@UBE?AVInteger@2@ABV32@@Z 4291272e f i dh.obj
 0001:0001174b       ?BERDecodeElement@ModExpPrecomputation@CryptoPP@@UBE?AVInteger@2@AAVBufferedTransformation@2@@Z 4291274b f i dh.obj
 0001:00011765       ?GetGroupOrder@DL_GroupParameters_IntegerBased@CryptoPP@@UBE?AVInteger@2@XZ 42912765 f i dh.obj
 0001:00011824       ?FastSubgroupCheckAvailable@DL_GroupParameters_IntegerBased@CryptoPP@@UBE_NXZ 42912824 f i dh.obj
 0001:00011899       ?ComputeGroupOrder@DL_GroupParameters_IntegerBased@CryptoPP@@IBE?AVInteger@2@ABV32@@Z 42912899 f i dh.obj
 0001:00011901       ??0DL_GroupParameters_IntegerBased@CryptoPP@@QAE@XZ 42912901 f i dh.obj
 0001:00011930       ??1DL_GroupParameters_IntegerBased@CryptoPP@@UAE@XZ 42912930 f i dh.obj
 0001:0001193f       ??0DL_GroupParameters_IntegerBased@CryptoPP@@QAE@ABV01@@Z 4291293f f i dh.obj
 0001:00011978       ??_DDL_GroupParameters_IntegerBased@CryptoPP@@QAEXXZ 42912978 f i dh.obj
 0001:0001197d       ?FixedCiphertextLength@?$TF_CryptoSystemBase@VPK_Encryptor@CryptoPP@@V?$TF_Base@VRandomizedTrapdoorFunction@CryptoPP@@VPK_EncryptionMessageEncodingMethod@2@@2@@CryptoPP@@UBEIXZ 4291297d f i dh.obj
 0001:0001197d       ?FixedCiphertextLength@?$TF_CryptoSystemBase@VPK_Decryptor@CryptoPP@@V?$TF_Base@VTrapdoorFunctionInverse@CryptoPP@@VPK_EncryptionMessageEncodingMethod@2@@2@@CryptoPP@@UBEIXZ 4291297d f i dh.obj
 0001:000119cb       ?PaddedBlockBitLength@?$TF_CryptoSystemBase@VPK_Encryptor@CryptoPP@@V?$TF_Base@VRandomizedTrapdoorFunction@CryptoPP@@VPK_EncryptionMessageEncodingMethod@2@@2@@CryptoPP@@IBEIXZ 429129cb f i dh.obj
 0001:000119cb       ?PaddedBlockBitLength@?$TF_CryptoSystemBase@VPK_Decryptor@CryptoPP@@V?$TF_Base@VTrapdoorFunctionInverse@CryptoPP@@VPK_EncryptionMessageEncodingMethod@2@@2@@CryptoPP@@IBEIXZ 429129cb f i dh.obj
 0001:00011a1a       ?SignatureLength@?$TF_SignatureSchemeBase@VPK_Verifier@CryptoPP@@V?$TF_Base@VTrapdoorFunction@CryptoPP@@VPK_SignatureMessageEncodingMethod@2@@2@@CryptoPP@@UBEIXZ 42912a1a f i dh.obj
 0001:00011a1a       ?SignatureLength@?$TF_SignatureSchemeBase@VPK_Signer@CryptoPP@@V?$TF_Base@VRandomizedTrapdoorFunctionInverse@CryptoPP@@VPK_SignatureMessageEncodingMethod@2@@2@@CryptoPP@@UBEIXZ 42912a1a f i dh.obj
 0001:00011a68       ?MessageRepresentativeBitLength@?$TF_SignatureSchemeBase@VPK_Signer@CryptoPP@@V?$TF_Base@VRandomizedTrapdoorFunctionInverse@CryptoPP@@VPK_SignatureMessageEncodingMethod@2@@2@@CryptoPP@@IBEIXZ 42912a68 f i dh.obj
 0001:00011a68       ?MessageRepresentativeBitLength@?$TF_SignatureSchemeBase@VPK_Verifier@CryptoPP@@V?$TF_Base@VTrapdoorFunction@CryptoPP@@VPK_SignatureMessageEncodingMethod@2@@2@@CryptoPP@@IBEIXZ 42912a68 f i dh.obj
 0001:00011ab7       ?ExponentiateBase@?$DL_GroupParameters@UEC2NPoint@CryptoPP@@@CryptoPP@@UBE?AUEC2NPoint@2@ABVInteger@2@@Z 42912ab7 f i dll.obj
 0001:00011ab7       ?ExponentiateBase@?$DL_GroupParameters@VInteger@CryptoPP@@@CryptoPP@@UBE?AVInteger@2@ABV32@@Z 42912ab7 f i dh.obj
 0001:00011ab7       ?ExponentiateBase@?$DL_GroupParameters@UECPPoint@CryptoPP@@@CryptoPP@@UBE?AUECPPoint@2@ABVInteger@2@@Z 42912ab7 f i dll.obj
 0001:00011aea       ?ExponentiateElement@?$DL_GroupParameters@VInteger@CryptoPP@@@CryptoPP@@UBE?AVInteger@2@ABV32@0@Z 42912aea f i dh.obj
 0001:00011b53       ?GetGroupOrder@?$DL_GroupParameters@VInteger@CryptoPP@@@CryptoPP@@UBE?AVInteger@2@XZ 42912b53 f i dh.obj
 0001:00011bb5       ?GetCofactor@?$DL_GroupParameters@VInteger@CryptoPP@@@CryptoPP@@UBE?AVInteger@2@XZ 42912bb5 f i dh.obj
 0001:00011c1b       ?Verify@?$DL_Algorithm_GDSA@VInteger@CryptoPP@@@CryptoPP@@UBE_NABV?$DL_GroupParameters@VInteger@CryptoPP@@@2@ABV?$DL_PublicKey@VInteger@CryptoPP@@@2@ABVInteger@2@22@Z 42912c1b f i dh.obj
 0001:00011e53       ?BERDecodePublicKey@?$DL_PublicKey_GFP@VDL_GroupParameters_DSA@CryptoPP@@@CryptoPP@@UAEXAAVBufferedTransformation@2@_NI@Z 42912e53 f i dh.obj
 0001:00011e9c       ?ExponentiatePublicElement@?$DL_PublicKey@UECPPoint@CryptoPP@@@CryptoPP@@UBE?AUECPPoint@2@ABVInteger@2@@Z 42912e9c f i dll.obj
 0001:00011e9c       ?ExponentiatePublicElement@?$DL_PublicKey@VInteger@CryptoPP@@@CryptoPP@@UBE?AVInteger@2@ABV32@@Z 42912e9c f i dh.obj
 0001:00011e9c       ?ExponentiatePublicElement@?$DL_PublicKey@UEC2NPoint@CryptoPP@@@CryptoPP@@UBE?AUEC2NPoint@2@ABVInteger@2@@Z 42912e9c f i dll.obj
 0001:00011ed7       ?GetAlgorithmID@?$DL_KeyImpl@VX509PublicKey@CryptoPP@@VDL_GroupParameters_DSA@2@VOID@2@@CryptoPP@@UBE?AVOID@2@XZ 42912ed7 f i dh.obj
 0001:00011ef1       ?Validate@?$DL_PrivateKeyImpl@VDL_GroupParameters_DSA@CryptoPP@@@CryptoPP@@UBE_NAAVRandomNumberGenerator@2@I@Z 42912ef1 f i dh.obj
 0001:00011fc9       ?MakePublicKey@?$DL_PrivateKey@VInteger@CryptoPP@@@CryptoPP@@QBEXAAV?$DL_PublicKey@VInteger@CryptoPP@@@2@@Z 42912fc9 f i dh.obj
 0001:0001205b       ?GetAlgorithmID@?$DL_KeyImpl@VPKCS8PrivateKey@CryptoPP@@VDL_GroupParameters_DSA@2@VOID@2@@CryptoPP@@UBE?AVOID@2@XZ 4291305b f i dh.obj
 0001:00012075       ?GetKeyAgreementAlgorithm@?$DH_Domain@VDL_GroupParameters_GFP_DefaultSafePrime@CryptoPP@@U?$EnumToType@W4CofactorMultiplicationOption@CryptoPP@@$0A@@2@@CryptoPP@@EBEABV?$DL_KeyAgreementAlgorithm@VInteger@CryptoPP@@@2@XZ 42913075 f i dh.obj
 0001:00012081       ?GeneratePrivateKey@?$DL_SimpleKeyAgreementDomainBase@VInteger@CryptoPP@@@CryptoPP@@UBEXAAVRandomNumberGenerator@2@PAE@Z 42913081 f i dh.obj
 0001:00012111       ?GeneratePublicKey@?$DL_SimpleKeyAgreementDomainBase@VInteger@CryptoPP@@@CryptoPP@@UBEXAAVRandomNumberGenerator@2@PBEPAE@Z 42913111 f i dh.obj
 0001:00012199       ?Agree@?$DL_SimpleKeyAgreementDomainBase@VInteger@CryptoPP@@@CryptoPP@@UBE_NPAEPBE1_N@Z 42913199 f i dh.obj
 0001:00012275       ?_Tidy@?$vector@VInteger@CryptoPP@@V?$allocator@VInteger@CryptoPP@@@std@@@std@@IAEXXZ 42913275 f i dh.obj
 0001:000122a2       ?AgreeWithEphemeralPrivateKey@?$DL_KeyAgreementAlgorithm_DH@VInteger@CryptoPP@@U?$EnumToType@W4CofactorMultiplicationOption@CryptoPP@@$0A@@2@@CryptoPP@@UBE?AVInteger@2@ABV?$DL_GroupParameters@VInteger@CryptoPP@@@2@ABV?$DL_FixedBasePrecomputation@VInteger@CryptoPP@@@2@ABV32@@Z 429132a2 f i dh.obj
 0001:000122df       ??$Hack_DefaultValueFromConstReferenceType@VInteger@CryptoPP@@@CryptoPP@@YA?AVInteger@0@ABV10@@Z 429132df f i dh.obj
 0001:000122f4       ?Square@ModularArithmetic@CryptoPP@@UBEABVInteger@2@ABV32@@Z 429132f4 f i dh.obj
 0001:00012369       ?ConvertIn@MontgomeryRepresentation@CryptoPP@@UBE?AVInteger@2@ABV32@@Z 42913369 f i dh.obj
 0001:000123cf       ?Initialize@DL_GroupParameters_IntegerBased@CryptoPP@@QAEXABVInteger@2@0@Z 429133cf f i dh.obj
 0001:0001244a       ?FixedMaxPlaintextLength@?$TF_CryptoSystemBase@VPK_Decryptor@CryptoPP@@V?$TF_Base@VTrapdoorFunctionInverse@CryptoPP@@VPK_EncryptionMessageEncodingMethod@2@@2@@CryptoPP@@UBEIXZ 4291344a f i dh.obj
 0001:0001244a       ?FixedMaxPlaintextLength@?$TF_CryptoSystemBase@VPK_Encryptor@CryptoPP@@V?$TF_Base@VRandomizedTrapdoorFunction@CryptoPP@@VPK_EncryptionMessageEncodingMethod@2@@2@@CryptoPP@@UBEIXZ 4291344a f i dh.obj
 0001:0001246c       ?PaddedBlockByteLength@?$TF_CryptoSystemBase@VPK_Decryptor@CryptoPP@@V?$TF_Base@VTrapdoorFunctionInverse@CryptoPP@@VPK_EncryptionMessageEncodingMethod@2@@2@@CryptoPP@@IBEIXZ 4291346c f i dh.obj
 0001:0001246c       ?PaddedBlockByteLength@?$TF_CryptoSystemBase@VPK_Encryptor@CryptoPP@@V?$TF_Base@VRandomizedTrapdoorFunction@CryptoPP@@VPK_EncryptionMessageEncodingMethod@2@@2@@CryptoPP@@IBEIXZ 4291346c f i dh.obj
 0001:00012478       ?MaxRecoverableLength@?$TF_SignatureSchemeBase@VPK_Signer@CryptoPP@@V?$TF_Base@VRandomizedTrapdoorFunctionInverse@CryptoPP@@VPK_SignatureMessageEncodingMethod@2@@2@@CryptoPP@@UBEIXZ 42913478 f i dh.obj
 0001:000124b5       ?MessageRepresentativeLength@?$TF_SignatureSchemeBase@VPK_Signer@CryptoPP@@V?$TF_Base@VRandomizedTrapdoorFunctionInverse@CryptoPP@@VPK_SignatureMessageEncodingMethod@2@@2@@CryptoPP@@IBEIXZ 429134b5 f i dh.obj
 0001:000124b5       ?MessageRepresentativeLength@?$TF_SignatureSchemeBase@VPK_Verifier@CryptoPP@@V?$TF_Base@VTrapdoorFunction@CryptoPP@@VPK_SignatureMessageEncodingMethod@2@@2@@CryptoPP@@IBEIXZ 429134b5 f i dh.obj
 0001:000124c1       ?MaxRecoverableLength@?$TF_SignatureSchemeBase@VPK_Verifier@CryptoPP@@V?$TF_Base@VTrapdoorFunction@CryptoPP@@VPK_SignatureMessageEncodingMethod@2@@2@@CryptoPP@@UBEIXZ 429134c1 f i dh.obj
 0001:000124fe       ??1?$vector@VInteger@CryptoPP@@V?$allocator@VInteger@CryptoPP@@@std@@@std@@QAE@XZ 429134fe f i dh.obj
 0001:00012503       ?Sign@?$DL_Algorithm_GDSA@VInteger@CryptoPP@@@CryptoPP@@UBEXABV?$DL_GroupParameters@VInteger@CryptoPP@@@2@ABVInteger@2@11AAV42@2@Z 42913503 f i dh.obj
 0001:000125ef       ??1?$DL_FixedBasePrecomputationImpl@VInteger@CryptoPP@@@CryptoPP@@QAE@XZ 429135ef f i dh.obj
 0001:00012640       ?CheckSize@?$AllocatorBase@I@CryptoPP@@KAXI@Z 42913640 f i dh.obj
 0001:00012696       ?StaticAlgorithmNamePrefix@DL_GroupParameters_IntegerBased@CryptoPP@@SA?AV?$basic_string@DU?$char_traits@D@std@@V?$allocator@D@2@@std@@XZ 42913696 f i dh.obj
 0001:000126b0       ??1?$DL_GroupParametersImpl@VModExpPrecomputation@CryptoPP@@V?$DL_FixedBasePrecomputationImpl@VInteger@CryptoPP@@@2@VDL_GroupParameters_IntegerBased@2@@CryptoPP@@UAE@XZ 429136b0 f i dh.obj
 0001:000126fb       ??1?$DL_GroupParameters_IntegerBasedImpl@VModExpPrecomputation@CryptoPP@@V?$DL_FixedBasePrecomputationImpl@VInteger@CryptoPP@@@2@@CryptoPP@@UAE@XZ 429136fb f i dh.obj
 0001:000126fb       ??1DL_GroupParameters_GFP_DefaultSafePrime@CryptoPP@@UAE@XZ 429136fb f i dh.obj
 0001:000126fb       ??1DL_GroupParameters_GFP@CryptoPP@@UAE@XZ 429136fb f i dh.obj
 0001:000126fb       ??_D?$DL_GroupParametersImpl@VModExpPrecomputation@CryptoPP@@V?$DL_FixedBasePrecomputationImpl@VInteger@CryptoPP@@@2@VDL_GroupParameters_IntegerBased@2@@CryptoPP@@QAEXXZ 429136fb f i dh.obj
 0001:000126fb       ??1DL_GroupParameters_DSA@CryptoPP@@UAE@XZ 429136fb f i dh.obj
 0001:00012700       ??_DDL_GroupParameters_GFP_DefaultSafePrime@CryptoPP@@QAEXXZ 42913700 f i dh.obj
 0001:00012700       ??_D?$DL_GroupParameters_IntegerBasedImpl@VModExpPrecomputation@CryptoPP@@V?$DL_FixedBasePrecomputationImpl@VInteger@CryptoPP@@@2@@CryptoPP@@QAEXXZ 42913700 f i dh.obj
 0001:00012700       ??_DDL_GroupParameters_DSA@CryptoPP@@QAEXXZ 42913700 f i dh.obj
 0001:00012700       ??_DDL_GroupParameters_GFP@CryptoPP@@QAEXXZ 42913700 f i dh.obj
 0001:00012705       ??_E?$DL_GroupParametersImpl@VModExpPrecomputation@CryptoPP@@V?$DL_FixedBasePrecomputationImpl@VInteger@CryptoPP@@@2@VDL_GroupParameters_IntegerBased@2@@CryptoPP@@UAEPAXI@Z 42913705 f i dh.obj
 0001:00012750       ??1?$DL_KeyImpl@VX509PublicKey@CryptoPP@@VDL_GroupParameters_DSA@2@VOID@2@@CryptoPP@@UAE@XZ 42913750 f i dh.obj
 0001:00012758       ??_D?$DL_KeyImpl@VX509PublicKey@CryptoPP@@VDL_GroupParameters_DSA@2@VOID@2@@CryptoPP@@QAEXXZ 42913758 f i dh.obj
 0001:0001275d       ??1?$DL_PublicKeyImpl@VDL_GroupParameters_DSA@CryptoPP@@@CryptoPP@@UAE@XZ 4291375d f i dh.obj
 0001:000127a1       ??1?$DL_PublicKey_GFP@VDL_GroupParameters_DSA@CryptoPP@@@CryptoPP@@UAE@XZ 429137a1 f i dh.obj
 0001:000127a1       ??_D?$DL_PublicKeyImpl@VDL_GroupParameters_DSA@CryptoPP@@@CryptoPP@@QAEXXZ 429137a1 f i dh.obj
 0001:000127a6       ??_D?$DL_PublicKey_GFP@VDL_GroupParameters_DSA@CryptoPP@@@CryptoPP@@QAEXXZ 429137a6 f i dh.obj
 0001:000127ab       ??_E?$DL_KeyImpl@VX509PublicKey@CryptoPP@@VDL_GroupParameters_DSA@2@VOID@2@@CryptoPP@@UAEPAXI@Z 429137ab f i dh.obj
 0001:000127f9       ??_E?$DL_PublicKeyImpl@VDL_GroupParameters_DSA@CryptoPP@@@CryptoPP@@UAEPAXI@Z 429137f9 f i dh.obj
 0001:00012847       ??1?$DL_KeyImpl@VPKCS8PrivateKey@CryptoPP@@VDL_GroupParameters_DSA@2@VOID@2@@CryptoPP@@UAE@XZ 42913847 f i dh.obj
 0001:0001287d       ??_D?$DL_KeyImpl@VPKCS8PrivateKey@CryptoPP@@VDL_GroupParameters_DSA@2@VOID@2@@CryptoPP@@QAEXXZ 4291387d f i dh.obj
 0001:00012882       ??1?$DL_PrivateKeyImpl@VDL_GroupParameters_DSA@CryptoPP@@@CryptoPP@@UAE@XZ 42913882 f i dh.obj
 0001:000128c9       ??_D?$DL_PrivateKeyImpl@VDL_GroupParameters_DSA@CryptoPP@@@CryptoPP@@QAEXXZ 429138c9 f i dh.obj
 0001:000128c9       ??1?$DL_PrivateKey_WithSignaturePairwiseConsistencyTest@V?$DL_PrivateKey_GFP@VDL_GroupParameters_DSA@CryptoPP@@@CryptoPP@@UDSA@2@@CryptoPP@@UAE@XZ 429138c9 f i dh.obj
 0001:000128c9       ??1?$DL_PrivateKey_GFP@VDL_GroupParameters_DSA@CryptoPP@@@CryptoPP@@UAE@XZ 429138c9 f i dh.obj
 0001:000128ce       ??_D?$DL_PrivateKey_WithSignaturePairwiseConsistencyTest@V?$DL_PrivateKey_GFP@VDL_GroupParameters_DSA@CryptoPP@@@CryptoPP@@UDSA@2@@CryptoPP@@QAEXXZ 429138ce f i dh.obj
 0001:000128ce       ??_D?$DL_PrivateKey_GFP@VDL_GroupParameters_DSA@CryptoPP@@@CryptoPP@@QAEXXZ 429138ce f i dh.obj
 0001:000128d3       ??_E?$DL_KeyImpl@VPKCS8PrivateKey@CryptoPP@@VDL_GroupParameters_DSA@2@VOID@2@@CryptoPP@@UAEPAXI@Z 429138d3 f i dh.obj
 0001:00012921       ??_E?$DL_PrivateKeyImpl@VDL_GroupParameters_DSA@CryptoPP@@@CryptoPP@@UAEPAXI@Z 42913921 f i dh.obj
 0001:0001296f       ??1?$DH_Domain@VDL_GroupParameters_GFP_DefaultSafePrime@CryptoPP@@U?$EnumToType@W4CofactorMultiplicationOption@CryptoPP@@$0A@@2@@CryptoPP@@UAE@XZ 4291396f f i dh.obj
 0001:00012977       ??_E?$DH_Domain@VDL_GroupParameters_GFP_DefaultSafePrime@CryptoPP@@U?$EnumToType@W4CofactorMultiplicationOption@CryptoPP@@$0A@@2@@CryptoPP@@UAEPAXI@Z 42913977 f i dh.obj
 0001:000129c2       ?RecoverPresignature@?$DL_ElgamalLikeSignatureAlgorithm@VInteger@CryptoPP@@@CryptoPP@@UBE?AVInteger@2@ABV?$DL_GroupParameters@VInteger@CryptoPP@@@2@ABV?$DL_PublicKey@VInteger@CryptoPP@@@2@ABV32@2@Z 429139c2 f i dh.obj
 0001:00012a04       ?StaticAlgorithmName@?$DL_SS@UDL_Keys_DSA@CryptoPP@@V?$DL_Algorithm_GDSA@VInteger@CryptoPP@@@2@VDL_SignatureMessageEncodingMethod_DSA@2@VSHA1@2@UDSA@2@@CryptoPP@@SA?AV?$basic_string@DU?$char_traits@D@std@@V?$allocator@D@2@@std@@XZ 42913a04 f i dh.obj
 0001:00012a8f       ?allocate@?$AllocatorWithCleanup@I$00@CryptoPP@@QAEPAIIPBX@Z 42913a8f f i dh.obj
 0001:00012abf       ?StaticAlgorithmName@?$DH_Domain@VDL_GroupParameters_GFP_DefaultSafePrime@CryptoPP@@U?$EnumToType@W4CofactorMultiplicationOption@CryptoPP@@$0A@@2@@CryptoPP@@SA?AV?$basic_string@DU?$char_traits@D@std@@V?$allocator@D@2@@std@@XZ 42913abf f i dh.obj
 0001:00012b0b       ?_Xlen@?$vector@VInteger@CryptoPP@@V?$allocator@VInteger@CryptoPP@@@std@@@std@@IBEXXZ 42913b0b f i dh.obj
 0001:00012b4b       ??$GetThisObject@VDL_GroupParameters_DSA@CryptoPP@@@NameValuePairs@CryptoPP@@QBE_NAAVDL_GroupParameters_DSA@1@@Z 42913b4b f i dh.obj
 0001:00012bd5       ??$?RABVInteger@CryptoPP@@@?$AssignFromHelperClass@V?$DL_PrivateKey@VInteger@CryptoPP@@@CryptoPP@@V12@@CryptoPP@@QAEAAV01@PBDP8?$DL_PrivateKey@VInteger@CryptoPP@@@1@AEXABVInteger@1@@Z@Z 42913bd5 f i dh.obj
 0001:00012cb4       ??$GetThisPointer@V?$DL_PrivateKey@VInteger@CryptoPP@@@CryptoPP@@@NameValuePairs@CryptoPP@@QBE_NAAPAV?$DL_PrivateKey@VInteger@CryptoPP@@@1@@Z 42913cb4 f i dh.obj
 0001:00012d3e       ??$?RABVInteger@CryptoPP@@@?$AssignFromHelperClass@V?$DL_PublicKey@VInteger@CryptoPP@@@CryptoPP@@V12@@CryptoPP@@QAEAAV01@PBDP8?$DL_PublicKey@VInteger@CryptoPP@@@1@AEXABVInteger@1@@Z@Z 42913d3e f i dh.obj
 0001:00012e1d       ??$GetThisObject@V?$DL_GroupParameters_IntegerBasedImpl@VModExpPrecomputation@CryptoPP@@V?$DL_FixedBasePrecomputationImpl@VInteger@CryptoPP@@@2@@CryptoPP@@@NameValuePairs@CryptoPP@@QBE_NAAV?$DL_GroupParameters_IntegerBasedImpl@VModExpPrecomputation@CryptoPP@@V?$DL_FixedBasePrecomputationImpl@VInteger@CryptoPP@@@2@@1@@Z 42913e1d f i dh.obj
 0001:00012ea7       ??$GetThisObject@V?$DL_PublicKeyImpl@VDL_GroupParameters_DSA@CryptoPP@@@CryptoPP@@@NameValuePairs@CryptoPP@@QBE_NAAV?$DL_PublicKeyImpl@VDL_GroupParameters_DSA@CryptoPP@@@1@@Z 42913ea7 f i dh.obj
 0001:00012f31       ??$GetThisObject@V?$DL_PrivateKeyImpl@VDL_GroupParameters_DSA@CryptoPP@@@CryptoPP@@@NameValuePairs@CryptoPP@@QBE_NAAV?$DL_PrivateKeyImpl@VDL_GroupParameters_DSA@CryptoPP@@@1@@Z 42913f31 f i dh.obj
 0001:00012fbb       ??$GetThisObject@V?$DL_PrivateKey@VInteger@CryptoPP@@@CryptoPP@@@NameValuePairs@CryptoPP@@QBE_NAAV?$DL_PrivateKey@VInteger@CryptoPP@@@1@@Z 42913fbb f i dh.obj
 0001:00013045       ??$GetThisObject@V?$DL_PublicKey@VInteger@CryptoPP@@@CryptoPP@@@NameValuePairs@CryptoPP@@QBE_NAAV?$DL_PublicKey@VInteger@CryptoPP@@@1@@Z 42914045 f i dh.obj
 0001:000130cf       ?RecoverMessageFromSemisignature@PK_SignatureMessageEncodingMethod@CryptoPP@@UBE?AUDecodingResult@2@AAVHashTransformation@2@U?$pair@PBEI@std@@PBEI2IPAE@Z 429140cf f i dh.obj
 0001:000130cf       ?AllowNonrecoverablePart@PK_SignatureMessageEncodingMethod@CryptoPP@@QBE_NXZ 429140cf f i dh.obj
 0001:000130cf       ?RecoverMessageFromRepresentative@PK_SignatureMessageEncodingMethod@CryptoPP@@UBE?AUDecodingResult@2@AAVHashTransformation@2@U?$pair@PBEI@std@@_NPAEI3@Z 429140cf f i dh.obj
 0001:000130cf       ?RecoverablePartFirst@PK_SignatureMessageEncodingMethod@CryptoPP@@UBE_NXZ 429140cf f i dh.obj
 0001:00013111       ??_EDL_GroupParameters_GFP@CryptoPP@@UAEPAXI@Z 42914111 f i dh.obj
 0001:00013111       ??_EDL_GroupParameters_GFP_DefaultSafePrime@CryptoPP@@UAEPAXI@Z 42914111 f i dh.obj
 0001:00013111       ??_EDL_GroupParameters_DSA@CryptoPP@@UAEPAXI@Z 42914111 f i dh.obj
 0001:0001315c       ??_E?$DL_PublicKey_GFP@VDL_GroupParameters_DSA@CryptoPP@@@CryptoPP@@UAEPAXI@Z 4291415c f i dh.obj
 0001:000131aa       ??_E?$DL_PrivateKey_GFP@VDL_GroupParameters_DSA@CryptoPP@@@CryptoPP@@UAEPAXI@Z 429141aa f i dh.obj
 0001:000131aa       ??_E?$DL_PrivateKey_WithSignaturePairwiseConsistencyTest@V?$DL_PrivateKey_GFP@VDL_GroupParameters_DSA@CryptoPP@@@CryptoPP@@UDSA@2@@CryptoPP@@UAEPAXI@Z 429141aa f i dh.obj
 0001:000131f8       ??0?$SecBlock@IV?$AllocatorWithCleanup@I$00@CryptoPP@@@CryptoPP@@QAE@ABV01@@Z 429141f8 f i dh.obj
 0001:0001322c       ?AllowNonrecoverablePart@?$TF_SignatureSchemeBase@VPK_Signer@CryptoPP@@V?$TF_Base@VRandomizedTrapdoorFunctionInverse@CryptoPP@@VPK_SignatureMessageEncodingMethod@2@@2@@CryptoPP@@UBE_NXZ 4291422c f i dh.obj
 0001:0001322c       ?AllowNonrecoverablePart@?$TF_SignatureSchemeBase@VPK_Verifier@CryptoPP@@V?$TF_Base@VTrapdoorFunction@CryptoPP@@VPK_SignatureMessageEncodingMethod@2@@2@@CryptoPP@@UBE_NXZ 4291422c f i dh.obj
 0001:0001323b       ?GenerateRandom@?$DL_PrivateKeyImpl@VDL_GroupParameters_DSA@CryptoPP@@@CryptoPP@@UAEXAAVRandomNumberGenerator@2@ABVNameValuePairs@2@@Z 4291423b f i dh.obj
 0001:000132e2       ?AssignFrom@?$DL_PrivateKey@VInteger@CryptoPP@@@CryptoPP@@QAEXABVNameValuePairs@2@@Z 429142e2 f i dh.obj
 0001:00013328       ?GeneratePublicKey@?$DH_Domain@VDL_GroupParameters_GFP_DefaultSafePrime@CryptoPP@@U?$EnumToType@W4CofactorMultiplicationOption@CryptoPP@@$0A@@2@@CryptoPP@@UBEXAAVRandomNumberGenerator@2@PBEPAE@Z 42914328 f i dh.obj
 0001:0001349a       ?AlgorithmName@?$DH_Domain@VDL_GroupParameters_GFP_DefaultSafePrime@CryptoPP@@U?$EnumToType@W4CofactorMultiplicationOption@CryptoPP@@$0A@@2@@CryptoPP@@UBE?AV?$basic_string@DU?$char_traits@D@std@@V?$allocator@D@2@@std@@XZ 4291449a f i dh.obj
 0001:000134b2       ?_Buy@?$vector@VInteger@CryptoPP@@V?$allocator@VInteger@CryptoPP@@@std@@@std@@IAE_NI@Z 429144b2 f i dh.obj
 0001:000134fa       ?AgreeWithStaticPrivateKey@?$DL_KeyAgreementAlgorithm_DH@VInteger@CryptoPP@@U?$EnumToType@W4CofactorMultiplicationOption@CryptoPP@@$0A@@2@@CryptoPP@@UBE?AVInteger@2@ABV?$DL_GroupParameters@VInteger@CryptoPP@@@2@ABV32@_N1@Z 429144fa f i dh.obj
 0001:00013640       ??0DL_BadElement@CryptoPP@@QAE@ABV01@@Z 42914640 f i dh.obj
 0001:00013658       ??0DL_BadElement@CryptoPP@@QAE@XZ 42914658 f i dh.obj
 0001:000136a5       ?AssignFrom@?$DL_PublicKey@VInteger@CryptoPP@@@CryptoPP@@QAEXABVNameValuePairs@2@@Z 429146a5 f i dh.obj
 0001:0001370c       ??$?RVInteger@CryptoPP@@@?$GetValueHelperClass@V?$DL_PrivateKey@UEC2NPoint@CryptoPP@@@CryptoPP@@V12@@CryptoPP@@QAEAAV01@PBDP8?$DL_PrivateKey@UEC2NPoint@CryptoPP@@@1@BEABVInteger@1@XZ@Z 4291470c f i dll.obj
 0001:0001370c       ??$?RVInteger@CryptoPP@@@?$GetValueHelperClass@V?$DL_PrivateKey@VInteger@CryptoPP@@@CryptoPP@@V12@@CryptoPP@@QAEAAV01@PBDP8?$DL_PrivateKey@VInteger@CryptoPP@@@1@BEABVInteger@1@XZ@Z 4291470c f i dh.obj
 0001:0001370c       ??$?RVInteger@CryptoPP@@@?$GetValueHelperClass@V?$DL_PrivateKey@UECPPoint@CryptoPP@@@CryptoPP@@V12@@CryptoPP@@QAEAAV01@PBDP8?$DL_PrivateKey@UECPPoint@CryptoPP@@@1@BEABVInteger@1@XZ@Z 4291470c f i dll.obj
 0001:0001370c       ??$?RVInteger@CryptoPP@@@?$GetValueHelperClass@V?$DL_PublicKey@VInteger@CryptoPP@@@CryptoPP@@V12@@CryptoPP@@QAEAAV01@PBDP8?$DL_PublicKey@VInteger@CryptoPP@@@1@BEABVInteger@1@XZ@Z 4291470c f i dh.obj
 0001:00013772       ??$StandardReallocate@IV?$AllocatorWithCleanup@I$00@CryptoPP@@@CryptoPP@@YAPAIAAV?$AllocatorWithCleanup@I$00@0@PAIII_N@Z 42914772 f i dh.obj
 0001:000137e5       ??0?$GetValueHelperClass@VDL_GroupParameters_GFP@CryptoPP@@VDL_GroupParameters_IntegerBased@2@@CryptoPP@@QAE@PBVDL_GroupParameters_GFP@1@PBDABVtype_info@@PAXPBVNameValuePairs@1@@Z 429147e5 f i dh.obj
 0001:00013947       ??0?$GetValueHelperClass@V?$DL_GroupParameters@VInteger@CryptoPP@@@CryptoPP@@V12@@CryptoPP@@QAE@PBV?$DL_GroupParameters@VInteger@CryptoPP@@@1@PBDABVtype_info@@PAXPBVNameValuePairs@1@@Z 42914947 f i dh.obj
 0001:00013aa9       ??0?$GetValueHelperClass@V?$DL_GroupParameters_IntegerBasedImpl@VModExpPrecomputation@CryptoPP@@V?$DL_FixedBasePrecomputationImpl@VInteger@CryptoPP@@@2@@CryptoPP@@VDL_GroupParameters_IntegerBased@2@@CryptoPP@@QAE@PBV?$DL_GroupParameters_IntegerBasedImpl@VModExpPrecomputation@CryptoPP@@V?$DL_FixedBasePrecomputationImpl@VInteger@CryptoPP@@@2@@1@PBDABVtype_info@@PAXPBVNameValuePairs@1@@Z 42914aa9 f i dh.obj
 0001:00013c0b       ??0?$AssignFromHelperClass@V?$DL_GroupParameters_IntegerBasedImpl@VModExpPrecomputation@CryptoPP@@V?$DL_FixedBasePrecomputationImpl@VInteger@CryptoPP@@@2@@CryptoPP@@VDL_GroupParameters_IntegerBased@2@@CryptoPP@@QAE@PAV?$DL_GroupParameters_IntegerBasedImpl@VModExpPrecomputation@CryptoPP@@V?$DL_FixedBasePrecomputationImpl@VInteger@CryptoPP@@@2@@1@ABVNameValuePairs@1@@Z 42914c0b f i dh.obj
 0001:00013c57       ??0?$AssignFromHelperClass@V?$DL_PublicKeyImpl@VDL_GroupParameters_DSA@CryptoPP@@@CryptoPP@@V?$DL_PublicKey@VInteger@CryptoPP@@@2@@CryptoPP@@QAE@PAV?$DL_PublicKeyImpl@VDL_GroupParameters_DSA@CryptoPP@@@1@ABVNameValuePairs@1@@Z 42914c57 f i dh.obj
 0001:00013ca2       ??0?$AssignFromHelperClass@V?$DL_PrivateKeyImpl@VDL_GroupParameters_DSA@CryptoPP@@@CryptoPP@@V?$DL_PrivateKey@VInteger@CryptoPP@@@2@@CryptoPP@@QAE@PAV?$DL_PrivateKeyImpl@VDL_GroupParameters_DSA@CryptoPP@@@1@ABVNameValuePairs@1@@Z 42914ca2 f i dh.obj
 0001:00013ced       ??0?$AssignFromHelperClass@V?$DL_PrivateKey@VInteger@CryptoPP@@@CryptoPP@@V12@@CryptoPP@@QAE@PAV?$DL_PrivateKey@VInteger@CryptoPP@@@1@ABVNameValuePairs@1@@Z 42914ced f i dh.obj
 0001:00013d38       ??0?$AssignFromHelperClass@V?$DL_PublicKey@VInteger@CryptoPP@@@CryptoPP@@V12@@CryptoPP@@QAE@PAV?$DL_PublicKey@VInteger@CryptoPP@@@1@ABVNameValuePairs@1@@Z 42914d38 f i dh.obj
 0001:00013d83       ??0MontgomeryRepresentation@CryptoPP@@QAE@ABV01@@Z 42914d83 f i dh.obj
 0001:00013dd6       ??0PK_MessageAccumulatorBase@CryptoPP@@QAE@XZ 42914dd6 f i dh.obj
 0001:00013e4c       ??0PK_MessageAccumulatorBase@CryptoPP@@QAE@ABV01@@Z 42914e4c f i dh.obj
 0001:00013ed5       ??0HMAC_Base@CryptoPP@@QAE@XZ 42914ed5 f i dh.obj
 0001:00013ef4       ??0HMAC_Base@CryptoPP@@QAE@ABV01@@Z 42914ef4 f i dh.obj
 0001:00013f15       ??0?$vector@VInteger@CryptoPP@@V?$allocator@VInteger@CryptoPP@@@std@@@std@@QAE@ABV01@@Z 42914f15 f i dh.obj
 0001:00013f83       ??4?$vector@VInteger@CryptoPP@@V?$allocator@VInteger@CryptoPP@@@std@@@std@@QAEAAV01@ABV01@@Z 42914f83 f i dh.obj
 0001:00014082       ??0?$value_ptr@VMontgomeryRepresentation@CryptoPP@@@CryptoPP@@QAE@ABV01@@Z 42915082 f i dh.obj
 0001:000140cc       ?GetVoidValue@?$DL_PublicKey@VInteger@CryptoPP@@@CryptoPP@@QBE_NPBDABVtype_info@@PAX@Z 429150cc f i dh.obj
 0001:00014117       ?GetVoidValue@?$DL_PrivateKey@VInteger@CryptoPP@@@CryptoPP@@QBE_NPBDABVtype_info@@PAX@Z 42915117 f i dh.obj
 0001:00014162       ??1?$PK_FinalTemplate@V?$DL_SignerImpl@U?$DL_SignatureSchemeOptions@UDSA@CryptoPP@@UDL_Keys_DSA@2@V?$DL_Algorithm_GDSA@VInteger@CryptoPP@@@2@VDL_SignatureMessageEncodingMethod_DSA@2@VSHA1@2@@CryptoPP@@@CryptoPP@@@CryptoPP@@UAE@XZ 42915162 f i dh.obj
 0001:00014162       ??1?$DL_SignerImpl@U?$DL_SignatureSchemeOptions@UDSA@CryptoPP@@UDL_Keys_DSA@2@V?$DL_Algorithm_GDSA@VInteger@CryptoPP@@@2@VDL_SignatureMessageEncodingMethod_DSA@2@VSHA1@2@@CryptoPP@@@CryptoPP@@UAE@XZ 42915162 f i dh.obj
 0001:0001416a       ??1?$PK_FinalTemplate@V?$DL_VerifierImpl@U?$DL_SignatureSchemeOptions@UDSA@CryptoPP@@UDL_Keys_DSA@2@V?$DL_Algorithm_GDSA@VInteger@CryptoPP@@@2@VDL_SignatureMessageEncodingMethod_DSA@2@VSHA1@2@@CryptoPP@@@CryptoPP@@@CryptoPP@@UAE@XZ 4291516a f i dh.obj
 0001:0001416a       ??1?$DL_VerifierImpl@U?$DL_SignatureSchemeOptions@UDSA@CryptoPP@@UDL_Keys_DSA@2@V?$DL_Algorithm_GDSA@VInteger@CryptoPP@@@2@VDL_SignatureMessageEncodingMethod_DSA@2@VSHA1@2@@CryptoPP@@@CryptoPP@@UAE@XZ 4291516a f i dh.obj
 0001:00014172       ?reallocate@?$AllocatorWithCleanup@I$00@CryptoPP@@QAEPAIPAIII_N@Z 42915172 f i dh.obj
 0001:0001418e       ?New@?$SecBlock@IV?$AllocatorWithCleanup@I$00@CryptoPP@@@CryptoPP@@QAEXI@Z 4291518e f i dh.obj
 0001:000141b5       ??4?$value_ptr@VMontgomeryRepresentation@CryptoPP@@@CryptoPP@@QAEAAV01@ABV01@@Z 429151b5 f i dh.obj
 0001:00014214       ??$GetValueHelper@V?$DL_GroupParameters@VInteger@CryptoPP@@@CryptoPP@@@CryptoPP@@YA?AV?$GetValueHelperClass@V?$DL_GroupParameters@VInteger@CryptoPP@@@CryptoPP@@V12@@0@PBV?$DL_GroupParameters@VInteger@CryptoPP@@@0@PBDABVtype_info@@PAXPBVNameValuePairs@0@@Z 42915214 f i dh.obj
 0001:00014233       ??0?$GetValueHelperClass@V?$DL_PublicKeyImpl@VDL_GroupParameters_DSA@CryptoPP@@@CryptoPP@@V?$DL_PublicKey@VInteger@CryptoPP@@@2@@CryptoPP@@QAE@PBV?$DL_PublicKeyImpl@VDL_GroupParameters_DSA@CryptoPP@@@1@PBDABVtype_info@@PAXPBVNameValuePairs@1@@Z 42915233 f i dh.obj
 0001:0001438d       ??0?$GetValueHelperClass@V?$DL_PublicKey@VInteger@CryptoPP@@@CryptoPP@@V12@@CryptoPP@@QAE@PBV?$DL_PublicKey@VInteger@CryptoPP@@@1@PBDABVtype_info@@PAXPBVNameValuePairs@1@@Z 4291538d f i dh.obj
 0001:000144e7       ??0?$GetValueHelperClass@V?$DL_PrivateKeyImpl@VDL_GroupParameters_DSA@CryptoPP@@@CryptoPP@@V?$DL_PrivateKey@VInteger@CryptoPP@@@2@@CryptoPP@@QAE@PBV?$DL_PrivateKeyImpl@VDL_GroupParameters_DSA@CryptoPP@@@1@PBDABVtype_info@@PAXPBVNameValuePairs@1@@Z 429154e7 f i dh.obj
 0001:00014641       ??0?$GetValueHelperClass@V?$DL_PrivateKey@VInteger@CryptoPP@@@CryptoPP@@V12@@CryptoPP@@QAE@PBV?$DL_PrivateKey@VInteger@CryptoPP@@@1@PBDABVtype_info@@PAXPBVNameValuePairs@1@@Z 42915641 f i dh.obj
 0001:0001479b       ?Clone@MontgomeryRepresentation@CryptoPP@@UBEPAVModularArithmetic@2@XZ 4291579b f i dh.obj
 0001:000147d2       ??0?$DL_FixedBasePrecomputationImpl@VInteger@CryptoPP@@@CryptoPP@@QAE@ABV01@@Z 429157d2 f i dh.obj
 0001:00014831       ??4?$DL_FixedBasePrecomputationImpl@VInteger@CryptoPP@@@CryptoPP@@QAEAAV01@ABV01@@Z 42915831 f i dh.obj
 0001:0001486a       ??0ModExpPrecomputation@CryptoPP@@QAE@ABV01@@Z 4291586a f i dh.obj
 0001:00014889       ??4ModExpPrecomputation@CryptoPP@@QAEAAV01@ABV01@@Z 42915889 f i dh.obj
 0001:000148a2       ?resize@?$SecBlock@IV?$AllocatorWithCleanup@I$00@CryptoPP@@@CryptoPP@@QAEXI@Z 429158a2 f i dh.obj
 0001:000148c9       ??0?$DL_FixedBasePrecomputationImpl@VInteger@CryptoPP@@@CryptoPP@@QAE@XZ 429158c9 f i dh.obj
 0001:00014912       ?GetVoidValue@?$DL_GroupParameters@VInteger@CryptoPP@@@CryptoPP@@UBE_NPBDABVtype_info@@PAX@Z 42915912 f i dh.obj
 0001:00014987       ?AssignFrom@?$DL_GroupParameters_IntegerBasedImpl@VModExpPrecomputation@CryptoPP@@V?$DL_FixedBasePrecomputationImpl@VInteger@CryptoPP@@@2@@CryptoPP@@UAEXABVNameValuePairs@2@@Z 42915987 f i dh.obj
 0001:000149a0       ?AssignFrom@?$DL_PublicKeyImpl@VDL_GroupParameters_DSA@CryptoPP@@@CryptoPP@@UAEXABVNameValuePairs@2@@Z 429159a0 f i dh.obj
 0001:000149bc       ?AssignFrom@?$DL_PrivateKeyImpl@VDL_GroupParameters_DSA@CryptoPP@@@CryptoPP@@UAEXABVNameValuePairs@2@@Z 429159bc f i dh.obj
 0001:000149d8       ?Assign@?$SecBlock@IV?$AllocatorWithCleanup@I$00@CryptoPP@@@CryptoPP@@QAEXABV12@@Z 429159d8 f i dh.obj
 0001:00014a07       ?SetModulus@ModularArithmetic@CryptoPP@@QAEXABVInteger@2@@Z 42915a07 f i dh.obj
 0001:00014a25       ?Initialize@DL_GroupParameters_IntegerBased@CryptoPP@@QAEXAAVRandomNumberGenerator@2@I@Z 42915a25 f i dh.obj
 0001:00014a7c       ??0?$DL_GroupParametersImpl@VModExpPrecomputation@CryptoPP@@V?$DL_FixedBasePrecomputationImpl@VInteger@CryptoPP@@@2@VDL_GroupParameters_IntegerBased@2@@CryptoPP@@QAE@ABV01@@Z 42915a7c f i dh.obj
 0001:00014b04       ?Validate@?$DL_GroupParameters@VInteger@CryptoPP@@@CryptoPP@@$4PPPPPPPM@FM@BE_NAAVRandomNumberGenerator@2@I@Z 42915b04 f i dh.obj
 0001:00014b0f       ?Save@?$ASN1CryptoMaterial@V?$DL_GroupParameters@VInteger@CryptoPP@@@CryptoPP@@@CryptoPP@@$4PPPPPPPM@FM@BEXAAVBufferedTransformation@2@@Z 42915b0f f i dh.obj
 0001:00014b1a       ?Load@?$ASN1CryptoMaterial@V?$DL_GroupParameters@VInteger@CryptoPP@@@CryptoPP@@@CryptoPP@@$4PPPPPPPM@FM@AEXAAVBufferedTransformation@2@@Z 42915b1a f i dh.obj
 0001:00014b25       ?SupportsPrecomputation@?$DL_GroupParameters@VInteger@CryptoPP@@@CryptoPP@@$4PPPPPPPM@FM@BE_NXZ 42915b25 f i dh.obj
 0001:00014b30       ?Precompute@?$DL_GroupParameters@VInteger@CryptoPP@@@CryptoPP@@$4PPPPPPPM@FM@AEXI@Z 42915b30 f i dh.obj
 0001:00014b3b       ?LoadPrecomputation@?$DL_GroupParameters@VInteger@CryptoPP@@@CryptoPP@@$4PPPPPPPM@FM@AEXAAVBufferedTransformation@2@@Z 42915b3b f i dh.obj
 0001:00014b46       ?SavePrecomputation@?$DL_GroupParameters@VInteger@CryptoPP@@@CryptoPP@@$4PPPPPPPM@FM@BEXAAVBufferedTransformation@2@@Z 42915b46 f i dh.obj
 0001:00014b51       ?GetVoidValue@DL_GroupParameters_IntegerBased@CryptoPP@@$4PPPPPPPM@EI@BE_NPBDABVtype_info@@PAX@Z 42915b51 f i dh.obj
 0001:00014b5c       ?AssignFrom@DL_GroupParameters_IntegerBased@CryptoPP@@$4PPPPPPPM@EI@AEXABVNameValuePairs@2@@Z 42915b5c f i dh.obj
 0001:00014b67       ??_E?$DL_GroupParametersImpl@VModExpPrecomputation@CryptoPP@@V?$DL_FixedBasePrecomputationImpl@VInteger@CryptoPP@@@2@VDL_GroupParameters_IntegerBased@2@@CryptoPP@@$4PPPPPPPM@HA@AEPAXI@Z 42915b67 f i dh.obj
 0001:00014b72       ??0?$DL_GroupParametersImpl@VModExpPrecomputation@CryptoPP@@V?$DL_FixedBasePrecomputationImpl@VInteger@CryptoPP@@@2@VDL_GroupParameters_IntegerBased@2@@CryptoPP@@QAE@XZ 42915b72 f i dh.obj
 0001:00014bee       ??4?$DL_GroupParametersImpl@VModExpPrecomputation@CryptoPP@@V?$DL_FixedBasePrecomputationImpl@VInteger@CryptoPP@@@2@VDL_GroupParameters_IntegerBased@2@@CryptoPP@@QAEAAV01@ABV01@@Z 42915bee f i dh.obj
 0001:00014c1b       ??0?$DL_GroupParameters_IntegerBasedImpl@VModExpPrecomputation@CryptoPP@@V?$DL_FixedBasePrecomputationImpl@VInteger@CryptoPP@@@2@@CryptoPP@@QAE@XZ 42915c1b f i dh.obj
 0001:00014c42       ??0?$DL_GroupParameters_IntegerBasedImpl@VModExpPrecomputation@CryptoPP@@V?$DL_FixedBasePrecomputationImpl@VInteger@CryptoPP@@@2@@CryptoPP@@QAE@ABV01@@Z 42915c42 f i dh.obj
 0001:00014c6c       ??4DL_GroupParameters_DSA@CryptoPP@@QAEAAV01@ABV01@@Z 42915c6c f i dh.obj
 0001:00014c6c       ??4?$DL_GroupParameters_IntegerBasedImpl@VModExpPrecomputation@CryptoPP@@V?$DL_FixedBasePrecomputationImpl@VInteger@CryptoPP@@@2@@CryptoPP@@QAEAAV01@ABV01@@Z 42915c6c f i dh.obj
 0001:00014c6c       ??4DL_GroupParameters_GFP_DefaultSafePrime@CryptoPP@@QAEAAV01@ABV01@@Z 42915c6c f i dh.obj
 0001:00014c6c       ??4DL_GroupParameters_GFP@CryptoPP@@QAEAAV01@ABV01@@Z 42915c6c f i dh.obj
 0001:00014c7e       ??0DL_GroupParameters_GFP@CryptoPP@@QAE@XZ 42915c7e f i dh.obj
 0001:00014ccc       ?AssignFrom@?$DL_GroupParameters_IntegerBasedImpl@VModExpPrecomputation@CryptoPP@@V?$DL_FixedBasePrecomputationImpl@VInteger@CryptoPP@@@2@@CryptoPP@@$4PPPPPPPM@A@AEXABVNameValuePairs@2@@Z 42915ccc f i dh.obj
 0001:00014cd4       ??0DL_GroupParameters_GFP@CryptoPP@@QAE@ABV01@@Z 42915cd4 f i dh.obj
 0001:00014d25       ??0DL_GroupParameters_GFP_DefaultSafePrime@CryptoPP@@QAE@XZ 42915d25 f i dh.obj
 0001:00014d73       ??0DL_GroupParameters_GFP_DefaultSafePrime@CryptoPP@@QAE@ABV01@@Z 42915d73 f i dh.obj
 0001:00014dc4       ??0DL_GroupParameters_DSA@CryptoPP@@QAE@XZ 42915dc4 f i dh.obj
 0001:00014e12       ??_EDL_GroupParameters_GFP_DefaultSafePrime@CryptoPP@@$4PPPPPPPM@HA@AEPAXI@Z 42915e12 f i dh.obj
 0001:00014e12       ??_EDL_GroupParameters_GFP@CryptoPP@@$4PPPPPPPM@HA@AEPAXI@Z 42915e12 f i dh.obj
 0001:00014e12       ??_EDL_GroupParameters_DSA@CryptoPP@@$4PPPPPPPM@HA@AEPAXI@Z 42915e12 f i dh.obj
 0001:00014e1d       ??0DL_GroupParameters_DSA@CryptoPP@@QAE@ABV01@@Z 42915e1d f i dh.obj
 0001:00014e6e       ??0?$DL_KeyImpl@VX509PublicKey@CryptoPP@@VDL_GroupParameters_DSA@2@VOID@2@@CryptoPP@@QAE@ABV01@@Z 42915e6e f i dh.obj
 0001:00014ebd       ?Save@?$ASN1CryptoMaterial@VPublicKey@CryptoPP@@@CryptoPP@@WHE@BEXAAVBufferedTransformation@2@@Z 42915ebd f i dh.obj
 0001:00014ec5       ?Load@?$ASN1CryptoMaterial@VPublicKey@CryptoPP@@@CryptoPP@@WHE@AEXAAVBufferedTransformation@2@@Z 42915ec5 f i dh.obj
 0001:00014ecd       ??_E?$DL_KeyImpl@VX509PublicKey@CryptoPP@@VDL_GroupParameters_DSA@2@VOID@2@@CryptoPP@@WHM@AEPAXI@Z 42915ecd f i dh.obj
 0001:00014ed5       ??0?$DL_KeyImpl@VX509PublicKey@CryptoPP@@VDL_GroupParameters_DSA@2@VOID@2@@CryptoPP@@QAE@XZ 42915ed5 f i dh.obj
 0001:00014f1a       ??4?$DL_KeyImpl@VX509PublicKey@CryptoPP@@VDL_GroupParameters_DSA@2@VOID@2@@CryptoPP@@QAEAAV01@ABV01@@Z 42915f1a f i dh.obj
 0001:00014f33       ??0?$DL_PublicKeyImpl@VDL_GroupParameters_DSA@CryptoPP@@@CryptoPP@@QAE@ABV01@@Z 42915f33 f i dh.obj
 0001:00014fb5       ?Save@?$ASN1CryptoMaterial@VPublicKey@CryptoPP@@@CryptoPP@@WLE@BEXAAVBufferedTransformation@2@@Z 42915fb5 f i dh.obj
 0001:00014fc0       ?Load@?$ASN1CryptoMaterial@VPublicKey@CryptoPP@@@CryptoPP@@WLE@AEXAAVBufferedTransformation@2@@Z 42915fc0 f i dh.obj
 0001:00014fcb       ??_E?$DL_PublicKeyImpl@VDL_GroupParameters_DSA@CryptoPP@@@CryptoPP@@W3AEPAXI@Z 42915fcb f i dh.obj
 0001:00014fd3       ??_E?$DL_PublicKeyImpl@VDL_GroupParameters_DSA@CryptoPP@@@CryptoPP@@WMA@AEPAXI@Z 42915fd3 f i dh.obj
 0001:00014fde       ??0?$DL_PublicKeyImpl@VDL_GroupParameters_DSA@CryptoPP@@@CryptoPP@@QAE@XZ 42915fde f i dh.obj
 0001:00015049       ??4?$DL_PublicKeyImpl@VDL_GroupParameters_DSA@CryptoPP@@@CryptoPP@@QAEAAV01@ABV01@@Z 42916049 f i dh.obj
 0001:0001507e       ??0?$DL_PublicKey_GFP@VDL_GroupParameters_DSA@CryptoPP@@@CryptoPP@@QAE@XZ 4291607e f i dh.obj
 0001:000150c0       ??_E?$DL_PublicKey_GFP@VDL_GroupParameters_DSA@CryptoPP@@@CryptoPP@@W3AEPAXI@Z 429160c0 f i dh.obj
 0001:000150c8       ??_E?$DL_PublicKey_GFP@VDL_GroupParameters_DSA@CryptoPP@@@CryptoPP@@WMA@AEPAXI@Z 429160c8 f i dh.obj
 0001:000150d3       ??0?$DL_PublicKey_GFP@VDL_GroupParameters_DSA@CryptoPP@@@CryptoPP@@QAE@ABV01@@Z 429160d3 f i dh.obj
 0001:00015118       ??4?$DL_PublicKey_GFP@VDL_GroupParameters_DSA@CryptoPP@@@CryptoPP@@QAEAAV01@ABV01@@Z 42916118 f i dh.obj
 0001:0001512a       ??0?$DL_KeyImpl@VPKCS8PrivateKey@CryptoPP@@VDL_GroupParameters_DSA@2@VOID@2@@CryptoPP@@QAE@ABV01@@Z 4291612a f i dh.obj
 0001:0001519a       ?Save@?$ASN1CryptoMaterial@VPrivateKey@CryptoPP@@@CryptoPP@@WJM@BEXAAVBufferedTransformation@2@@Z 4291619a f i dh.obj
 0001:000151a5       ?Load@?$ASN1CryptoMaterial@VPrivateKey@CryptoPP@@@CryptoPP@@WJM@AEXAAVBufferedTransformation@2@@Z 429161a5 f i dh.obj
 0001:000151b0       ??_E?$DL_KeyImpl@VPKCS8PrivateKey@CryptoPP@@VDL_GroupParameters_DSA@2@VOID@2@@CryptoPP@@WKI@AEPAXI@Z 429161b0 f i dh.obj
 0001:000151bb       ??0?$DL_KeyImpl@VPKCS8PrivateKey@CryptoPP@@VDL_GroupParameters_DSA@2@VOID@2@@CryptoPP@@QAE@XZ 429161bb f i dh.obj
 0001:00015221       ??4?$DL_KeyImpl@VPKCS8PrivateKey@CryptoPP@@VDL_GroupParameters_DSA@2@VOID@2@@CryptoPP@@QAEAAV01@ABV01@@Z 42916221 f i dh.obj
 0001:00015242       ??0?$DL_PrivateKeyImpl@VDL_GroupParameters_DSA@CryptoPP@@@CryptoPP@@QAE@ABV01@@Z 42916242 f i dh.obj
 0001:000152cb       ?Save@?$ASN1CryptoMaterial@VPrivateKey@CryptoPP@@@CryptoPP@@WLA@BEXAAVBufferedTransformation@2@@Z 429162cb f i dh.obj
 0001:000152d6       ?Load@?$ASN1CryptoMaterial@VPrivateKey@CryptoPP@@@CryptoPP@@WLA@AEXAAVBufferedTransformation@2@@Z 429162d6 f i dh.obj
 0001:000152e1       ??_E?$DL_PrivateKeyImpl@VDL_GroupParameters_DSA@CryptoPP@@@CryptoPP@@W3AEPAXI@Z 429162e1 f i dh.obj
 0001:000152e9       ??_E?$DL_PrivateKeyImpl@VDL_GroupParameters_DSA@CryptoPP@@@CryptoPP@@WMA@AEPAXI@Z 429162e9 f i dh.obj
 0001:000152f4       ??0?$DL_PrivateKeyImpl@VDL_GroupParameters_DSA@CryptoPP@@@CryptoPP@@QAE@XZ 429162f4 f i dh.obj
 0001:00015366       ??4?$DL_PrivateKeyImpl@VDL_GroupParameters_DSA@CryptoPP@@@CryptoPP@@QAEAAV01@ABV01@@Z 42916366 f i dh.obj
 0001:0001539b       ??0?$DL_PrivateKey_GFP@VDL_GroupParameters_DSA@CryptoPP@@@CryptoPP@@QAE@XZ 4291639b f i dh.obj
 0001:000153e4       ??0?$DL_PrivateKey_GFP@VDL_GroupParameters_DSA@CryptoPP@@@CryptoPP@@QAE@ABV01@@Z 429163e4 f i dh.obj
 0001:00015430       ??4?$DL_PrivateKey_GFP@VDL_GroupParameters_DSA@CryptoPP@@@CryptoPP@@QAEAAV01@ABV01@@Z 42916430 f i dh.obj
 0001:00015430       ??4?$DL_PrivateKey_WithSignaturePairwiseConsistencyTest@V?$DL_PrivateKey_GFP@VDL_GroupParameters_DSA@CryptoPP@@@CryptoPP@@UDSA@2@@CryptoPP@@QAEAAV01@ABV01@@Z 42916430 f i dh.obj
 0001:00015442       ??0?$DL_PrivateKey_WithSignaturePairwiseConsistencyTest@V?$DL_PrivateKey_GFP@VDL_GroupParameters_DSA@CryptoPP@@@CryptoPP@@UDSA@2@@CryptoPP@@QAE@XZ 42916442 f i dh.obj
 0001:0001548b       ??_E?$DL_PrivateKey_GFP@VDL_GroupParameters_DSA@CryptoPP@@@CryptoPP@@W3AEPAXI@Z 4291648b f i dh.obj
 0001:0001548b       ??_E?$DL_PrivateKey_WithSignaturePairwiseConsistencyTest@V?$DL_PrivateKey_GFP@VDL_GroupParameters_DSA@CryptoPP@@@CryptoPP@@UDSA@2@@CryptoPP@@W3AEPAXI@Z 4291648b f i dh.obj
 0001:00015493       ??_E?$DL_PrivateKey_WithSignaturePairwiseConsistencyTest@V?$DL_PrivateKey_GFP@VDL_GroupParameters_DSA@CryptoPP@@@CryptoPP@@UDSA@2@@CryptoPP@@WMA@AEPAXI@Z 42916493 f i dh.obj
 0001:00015493       ??_E?$DL_PrivateKey_GFP@VDL_GroupParameters_DSA@CryptoPP@@@CryptoPP@@WMA@AEPAXI@Z 42916493 f i dh.obj
 0001:0001549e       ??0?$DL_PrivateKey_WithSignaturePairwiseConsistencyTest@V?$DL_PrivateKey_GFP@VDL_GroupParameters_DSA@CryptoPP@@@CryptoPP@@UDSA@2@@CryptoPP@@QAE@ABV01@@Z 4291649e f i dh.obj
 0001:000154ea       ??0?$DH_Domain@VDL_GroupParameters_GFP_DefaultSafePrime@CryptoPP@@U?$EnumToType@W4CofactorMultiplicationOption@CryptoPP@@$0A@@2@@CryptoPP@@QAE@ABV01@@Z 429164ea f i dh.obj
 0001:0001550b       ?GetCryptoParameters@KeyAgreementAlgorithm@CryptoPP@@UBEABVCryptoParameters@2@XZ 4291650b f i dh.obj
 0001:0001550b       ?PutModifiable2@BufferedTransformation@CryptoPP@@UAEIPAEIH_N@Z 4291650b f i asn.obj
 0001:0001550b       ??_9@$BBE@AE               4291650b f i gfpcrypt.obj
 0001:0001550b       ?GetPrivateKey@PrivateKeyAlgorithm@CryptoPP@@UBEABVPrivateKey@2@XZ 4291650b f i dh.obj
 0001:0001550b       ?GetPublicKey@PublicKeyAlgorithm@CryptoPP@@UBEABVPublicKey@2@XZ 4291650b f i dh.obj
 0001:00015510       ??4?$DH_Domain@VDL_GroupParameters_GFP_DefaultSafePrime@CryptoPP@@U?$EnumToType@W4CofactorMultiplicationOption@CryptoPP@@$0A@@2@@CryptoPP@@QAEAAV01@ABV01@@Z 42916510 f i dh.obj
 0001:00015529       ?Assignable@?$GetValueHelperClass@VDL_GroupParameters_GFP@CryptoPP@@VDL_GroupParameters_IntegerBased@2@@CryptoPP@@QAEAAV12@XZ 42916529 f i dh.obj
 0001:000155bf       ??0?$DH_Domain@VDL_GroupParameters_GFP_DefaultSafePrime@CryptoPP@@U?$EnumToType@W4CofactorMultiplicationOption@CryptoPP@@$0A@@2@@CryptoPP@@QAE@XZ 429165bf f i dh.obj
 0001:000155dd       ?Assignable@?$GetValueHelperClass@V?$DL_GroupParameters_IntegerBasedImpl@VModExpPrecomputation@CryptoPP@@V?$DL_FixedBasePrecomputationImpl@VInteger@CryptoPP@@@2@@CryptoPP@@VDL_GroupParameters_IntegerBased@2@@CryptoPP@@QAEAAV12@XZ 429165dd f i dh.obj
 0001:00015673       ?Assignable@?$GetValueHelperClass@V?$DL_PublicKeyImpl@VDL_GroupParameters_DSA@CryptoPP@@@CryptoPP@@V?$DL_PublicKey@VInteger@CryptoPP@@@2@@CryptoPP@@QAEAAV12@XZ 42916673 f i dh.obj
 0001:00015708       ?Assignable@?$GetValueHelperClass@V?$DL_PrivateKeyImpl@VDL_GroupParameters_DSA@CryptoPP@@@CryptoPP@@V?$DL_PrivateKey@VInteger@CryptoPP@@@2@@CryptoPP@@QAEAAV12@XZ 42916708 f i dh.obj
 0001:0001579d       ??0?$DL_ObjectImplBase@V?$DL_SignerBase@VInteger@CryptoPP@@@CryptoPP@@U?$DL_SignatureSchemeOptions@UDSA@CryptoPP@@UDL_Keys_DSA@2@V?$DL_Algorithm_GDSA@VInteger@CryptoPP@@@2@VDL_SignatureMessageEncodingMethod_DSA@2@VSHA1@2@@2@V?$DL_PrivateKey_WithSignaturePairwiseConsistencyTest@V?$DL_PrivateKey_GFP@VDL_GroupParameters_DSA@CryptoPP@@@CryptoPP@@UDSA@2@@2@@CryptoPP@@QAE@XZ 4291679d f i dh.obj
 0001:000157b8       ??0?$DL_ObjectImplBase@V?$DL_VerifierBase@VInteger@CryptoPP@@@CryptoPP@@U?$DL_SignatureSchemeOptions@UDSA@CryptoPP@@UDL_Keys_DSA@2@V?$DL_Algorithm_GDSA@VInteger@CryptoPP@@@2@VDL_SignatureMessageEncodingMethod_DSA@2@VSHA1@2@@2@V?$DL_PublicKey_GFP@VDL_GroupParameters_DSA@CryptoPP@@@2@@CryptoPP@@QAE@XZ 429167b8 f i dh.obj
 0001:000157d3       ??4MontgomeryRepresentation@CryptoPP@@QAEAAV01@ABV01@@Z 429167d3 f i dh.obj
 0001:00015800       ??4PK_MessageAccumulatorBase@CryptoPP@@QAEAAV01@ABV01@@Z 42916800 f i dh.obj
 0001:0001585d       ??4HMAC_Base@CryptoPP@@QAEAAV01@ABV01@@Z 4291685d f i dh.obj
 0001:0001587e       ?GetVoidValue@DL_GroupParameters_GFP@CryptoPP@@UBE_NPBDABVtype_info@@PAX@Z 4291687e f i dh.obj
 0001:000158aa       ?GetVoidValue@?$DL_GroupParameters_IntegerBasedImpl@VModExpPrecomputation@CryptoPP@@V?$DL_FixedBasePrecomputationImpl@VInteger@CryptoPP@@@2@@CryptoPP@@UBE_NPBDABVtype_info@@PAX@Z 429168aa f i dh.obj
 0001:000158d6       ?GetVoidValue@?$DL_PublicKeyImpl@VDL_GroupParameters_DSA@CryptoPP@@@CryptoPP@@UBE_NPBDABVtype_info@@PAX@Z 429168d6 f i dh.obj
 0001:00015905       ?GetVoidValue@?$DL_PrivateKeyImpl@VDL_GroupParameters_DSA@CryptoPP@@@CryptoPP@@UBE_NPBDABVtype_info@@PAX@Z 42916905 f i dh.obj
 0001:00015934       ?GetVoidValue@DL_GroupParameters_GFP@CryptoPP@@$4PPPPPPPM@A@BE_NPBDABVtype_info@@PAX@Z 42916934 f i dh.obj
 0001:0001593c       ??0?$DL_SignerImpl@U?$DL_SignatureSchemeOptions@UDSA@CryptoPP@@UDL_Keys_DSA@2@V?$DL_Algorithm_GDSA@VInteger@CryptoPP@@@2@VDL_SignatureMessageEncodingMethod_DSA@2@VSHA1@2@@CryptoPP@@@CryptoPP@@QAE@XZ 4291693c f i dh.obj
 0001:0001595c       ?AccessMaterial@PrivateKeyAlgorithm@CryptoPP@@UAEAAVCryptoMaterial@2@XZ 4291695c f i dh.obj
 0001:0001595c       ?AccessMaterial@KeyAgreementAlgorithm@CryptoPP@@UAEAAVCryptoMaterial@2@XZ 4291695c f i dh.obj
 0001:00015971       ?GetMaterial@KeyAgreementAlgorithm@CryptoPP@@UBEABVCryptoMaterial@2@XZ 42916971 f i dh.obj
 0001:00015971       ?GetMaterial@PrivateKeyAlgorithm@CryptoPP@@UBEABVCryptoMaterial@2@XZ 42916971 f i dh.obj
 0001:00015986       ?MaxSignatureLength@PK_SignatureScheme@CryptoPP@@UBEII@Z 42916986 f i dh.obj
 0001:0001598e       ?AccessPrivateKey@?$DL_ObjectImplBase@V?$DL_SignerBase@VInteger@CryptoPP@@@CryptoPP@@U?$DL_SignatureSchemeOptions@UDSA@CryptoPP@@UDL_Keys_DSA@2@V?$DL_Algorithm_GDSA@VInteger@CryptoPP@@@2@VDL_SignatureMessageEncodingMethod_DSA@2@VSHA1@2@@2@V?$DL_PrivateKey_WithSignaturePairwiseConsistencyTest@V?$DL_PrivateKey_GFP@VDL_GroupParameters_DSA@CryptoPP@@@CryptoPP@@UDSA@2@@2@@CryptoPP@@UAEAAVPrivateKey@2@XZ 4291698e f i dh.obj
 0001:0001598e       ?AccessPublicKey@?$DL_ObjectImplBase@V?$DL_VerifierBase@VInteger@CryptoPP@@@CryptoPP@@U?$DL_SignatureSchemeOptions@UDSA@CryptoPP@@UDL_Keys_DSA@2@V?$DL_Algorithm_GDSA@VInteger@CryptoPP@@@2@VDL_SignatureMessageEncodingMethod_DSA@2@VSHA1@2@@2@V?$DL_PublicKey_GFP@VDL_GroupParameters_DSA@CryptoPP@@@2@@CryptoPP@@UAEAAVPublicKey@2@XZ 4291698e f i dh.obj
 0001:0001598e       ?AccessPublicKey@?$DL_ObjectImplBase@V?$DL_VerifierBase@UECPPoint@CryptoPP@@@CryptoPP@@U?$DL_SignatureSchemeOptions@V?$DL_SS@U?$DL_Keys_ECDSA@VECP@CryptoPP@@@CryptoPP@@V?$DL_Algorithm_ECDSA@VECP@CryptoPP@@@2@VDL_SignatureMessageEncodingMethod_DSA@2@VSHA1@2@H@CryptoPP@@U?$DL_Keys_ECDSA@VECP@CryptoPP@@@2@V?$DL_Algorithm_ECDSA@VECP@CryptoPP@@@2@VDL_SignatureMessageEncodingMethod_DSA@2@VSHA1@2@@2@V?$DL_PublicKey_EC@VECP@CryptoPP@@@2@@CryptoPP@@UAEAAVPublicKey@2@XZ 4291698e f i fipstest.obj
 0001:0001598e       ?AccessPrivateKey@?$DL_ObjectImplBase@V?$DL_SignerBase@UEC2NPoint@CryptoPP@@@CryptoPP@@U?$DL_SignatureSchemeOptions@V?$DL_SS@U?$DL_Keys_ECDSA@VEC2N@CryptoPP@@@CryptoPP@@V?$DL_Algorithm_ECDSA@VEC2N@CryptoPP@@@2@VDL_SignatureMessageEncodingMethod_DSA@2@VSHA256@2@H@CryptoPP@@U?$DL_Keys_ECDSA@VEC2N@CryptoPP@@@2@V?$DL_Algorithm_ECDSA@VEC2N@CryptoPP@@@2@VDL_SignatureMessageEncodingMethod_DSA@2@VSHA256@2@@2@V?$DL_PrivateKey_WithSignaturePairwiseConsistencyTest@V?$DL_PrivateKey_EC@VEC2N@CryptoPP@@@CryptoPP@@U?$ECDSA@VEC2N@CryptoPP@@VSHA256@2@@2@@2@@CryptoPP@@UAEAAVPrivateKey@2@XZ 4291698e f i dll.obj
 0001:0001598e       ?AccessPrivateKey@?$DL_ObjectImplBase@V?$DL_SignerBase@UECPPoint@CryptoPP@@@CryptoPP@@U?$DL_SignatureSchemeOptions@V?$DL_SS@U?$DL_Keys_ECDSA@VECP@CryptoPP@@@CryptoPP@@V?$DL_Algorithm_ECDSA@VECP@CryptoPP@@@2@VDL_SignatureMessageEncodingMethod_DSA@2@VSHA256@2@H@CryptoPP@@U?$DL_Keys_ECDSA@VECP@CryptoPP@@@2@V?$DL_Algorithm_ECDSA@VECP@CryptoPP@@@2@VDL_SignatureMessageEncodingMethod_DSA@2@VSHA256@2@@2@V?$DL_PrivateKey_WithSignaturePairwiseConsistencyTest@V?$DL_PrivateKey_EC@VECP@CryptoPP@@@CryptoPP@@U?$ECDSA@VECP@CryptoPP@@VSHA256@2@@2@@2@@CryptoPP@@UAEAAVPrivateKey@2@XZ 4291698e f i dll.obj
 0001:0001598e       ?AccessPrivateKey@?$DL_ObjectImplBase@V?$DL_SignerBase@UEC2NPoint@CryptoPP@@@CryptoPP@@U?$DL_SignatureSchemeOptions@V?$DL_SS@U?$DL_Keys_ECDSA@VEC2N@CryptoPP@@@CryptoPP@@V?$DL_Algorithm_ECDSA@VEC2N@CryptoPP@@@2@VDL_SignatureMessageEncodingMethod_DSA@2@VSHA1@2@H@CryptoPP@@U?$DL_Keys_ECDSA@VEC2N@CryptoPP@@@2@V?$DL_Algorithm_ECDSA@VEC2N@CryptoPP@@@2@VDL_SignatureMessageEncodingMethod_DSA@2@VSHA1@2@@2@V?$DL_PrivateKey_WithSignaturePairwiseConsistencyTest@V?$DL_PrivateKey_EC@VEC2N@CryptoPP@@@CryptoPP@@U?$ECDSA@VEC2N@CryptoPP@@VSHA256@2@@2@@2@@CryptoPP@@UAEAAVPrivateKey@2@XZ 4291698e f i fipstest.obj
 0001:0001598e       ?AccessPublicKey@?$DL_ObjectImplBase@V?$DL_VerifierBase@UECPPoint@CryptoPP@@@CryptoPP@@U?$DL_SignatureSchemeOptions@V?$DL_SS@U?$DL_Keys_ECDSA@VECP@CryptoPP@@@CryptoPP@@V?$DL_Algorithm_ECDSA@VECP@CryptoPP@@@2@VDL_SignatureMessageEncodingMethod_DSA@2@VSHA256@2@H@CryptoPP@@U?$DL_Keys_ECDSA@VECP@CryptoPP@@@2@V?$DL_Algorithm_ECDSA@VECP@CryptoPP@@@2@VDL_SignatureMessageEncodingMethod_DSA@2@VSHA256@2@@2@V?$DL_PublicKey_EC@VECP@CryptoPP@@@2@@CryptoPP@@UAEAAVPublicKey@2@XZ 4291698e f i dll.obj
 0001:0001598e       ?AccessPrivateKey@?$DL_ObjectImplBase@V?$DL_SignerBase@UECPPoint@CryptoPP@@@CryptoPP@@U?$DL_SignatureSchemeOptions@V?$DL_SS@U?$DL_Keys_ECDSA@VECP@CryptoPP@@@CryptoPP@@V?$DL_Algorithm_ECDSA@VECP@CryptoPP@@@2@VDL_SignatureMessageEncodingMethod_DSA@2@VSHA1@2@H@CryptoPP@@U?$DL_Keys_ECDSA@VECP@CryptoPP@@@2@V?$DL_Algorithm_ECDSA@VECP@CryptoPP@@@2@VDL_SignatureMessageEncodingMethod_DSA@2@VSHA1@2@@2@V?$DL_PrivateKey_WithSignaturePairwiseConsistencyTest@V?$DL_PrivateKey_EC@VECP@CryptoPP@@@CryptoPP@@U?$ECDSA@VECP@CryptoPP@@VSHA256@2@@2@@2@@CryptoPP@@UAEAAVPrivateKey@2@XZ 4291698e f i fipstest.obj
 0001:0001598e       ?AccessPublicKey@?$DL_ObjectImplBase@V?$DL_VerifierBase@UEC2NPoint@CryptoPP@@@CryptoPP@@U?$DL_SignatureSchemeOptions@V?$DL_SS@U?$DL_Keys_ECDSA@VEC2N@CryptoPP@@@CryptoPP@@V?$DL_Algorithm_ECDSA@VEC2N@CryptoPP@@@2@VDL_SignatureMessageEncodingMethod_DSA@2@VSHA1@2@H@CryptoPP@@U?$DL_Keys_ECDSA@VEC2N@CryptoPP@@@2@V?$DL_Algorithm_ECDSA@VEC2N@CryptoPP@@@2@VDL_SignatureMessageEncodingMethod_DSA@2@VSHA1@2@@2@V?$DL_PublicKey_EC@VEC2N@CryptoPP@@@2@@CryptoPP@@UAEAAVPublicKey@2@XZ 4291698e f i fipstest.obj
 0001:0001598e       ?AccessPublicKey@?$DL_ObjectImplBase@V?$DL_VerifierBase@UEC2NPoint@CryptoPP@@@CryptoPP@@U?$DL_SignatureSchemeOptions@V?$DL_SS@U?$DL_Keys_ECDSA@VEC2N@CryptoPP@@@CryptoPP@@V?$DL_Algorithm_ECDSA@VEC2N@CryptoPP@@@2@VDL_SignatureMessageEncodingMethod_DSA@2@VSHA256@2@H@CryptoPP@@U?$DL_Keys_ECDSA@VEC2N@CryptoPP@@@2@V?$DL_Algorithm_ECDSA@VEC2N@CryptoPP@@@2@VDL_SignatureMessageEncodingMethod_DSA@2@VSHA256@2@@2@V?$DL_PublicKey_EC@VEC2N@CryptoPP@@@2@@CryptoPP@@UAEAAVPublicKey@2@XZ 4291698e f i dll.obj
 0001:0001599b       ??_E?$DL_SignerImpl@U?$DL_SignatureSchemeOptions@UDSA@CryptoPP@@UDL_Keys_DSA@2@V?$DL_Algorithm_GDSA@VInteger@CryptoPP@@@2@VDL_SignatureMessageEncodingMethod_DSA@2@VSHA1@2@@CryptoPP@@@CryptoPP@@W3AEPAXI@Z 4291699b f i dh.obj
 0001:000159a3       ?GetSignatureAlgorithm@?$DL_ObjectImpl@V?$DL_VerifierBase@VInteger@CryptoPP@@@CryptoPP@@U?$DL_SignatureSchemeOptions@UDSA@CryptoPP@@UDL_Keys_DSA@2@V?$DL_Algorithm_GDSA@VInteger@CryptoPP@@@2@VDL_SignatureMessageEncodingMethod_DSA@2@VSHA1@2@@2@V?$DL_PublicKey_GFP@VDL_GroupParameters_DSA@CryptoPP@@@2@@CryptoPP@@MBEABV?$DL_ElgamalLikeSignatureAlgorithm@VInteger@CryptoPP@@@2@XZ 429169a3 f i dh.obj
 0001:000159a3       ?GetSignatureAlgorithm@?$DL_ObjectImpl@V?$DL_SignerBase@VInteger@CryptoPP@@@CryptoPP@@U?$DL_SignatureSchemeOptions@UDSA@CryptoPP@@UDL_Keys_DSA@2@V?$DL_Algorithm_GDSA@VInteger@CryptoPP@@@2@VDL_SignatureMessageEncodingMethod_DSA@2@VSHA1@2@@2@V?$DL_PrivateKey_WithSignaturePairwiseConsistencyTest@V?$DL_PrivateKey_GFP@VDL_GroupParameters_DSA@CryptoPP@@@CryptoPP@@UDSA@2@@2@@CryptoPP@@MBEABV?$DL_ElgamalLikeSignatureAlgorithm@VInteger@CryptoPP@@@2@XZ 429169a3 f i dh.obj
 0001:000159af       ?Ref@?$Singleton@V?$DL_Algorithm_GDSA@VInteger@CryptoPP@@@CryptoPP@@U?$NewObject@V?$DL_Algorithm_GDSA@VInteger@CryptoPP@@@CryptoPP@@@2@$0A@@CryptoPP@@QBEABV?$DL_Algorithm_GDSA@VInteger@CryptoPP@@@2@XZ 429169af f i dh.obj
 0001:00015a0d       ?Ref@?$Singleton@VDL_SignatureMessageEncodingMethod_DSA@CryptoPP@@U?$NewObject@VDL_SignatureMessageEncodingMethod_DSA@CryptoPP@@@2@$0A@@CryptoPP@@QBEABVDL_SignatureMessageEncodingMethod_DSA@2@XZ 42916a0d f i dh.obj
 0001:00015a70       ?SignAndRestart@?$DL_SignerBase@VInteger@CryptoPP@@@CryptoPP@@UBEIAAVRandomNumberGenerator@2@AAVPK_MessageAccumulator@2@PAE_N@Z 42916a70 f i dh.obj
 0001:00015d8a       ??_G?$DL_SignerImpl@U?$DL_SignatureSchemeOptions@UDSA@CryptoPP@@UDL_Keys_DSA@2@V?$DL_Algorithm_GDSA@VInteger@CryptoPP@@@2@VDL_SignatureMessageEncodingMethod_DSA@2@VSHA1@2@@CryptoPP@@@CryptoPP@@UAEPAXI@Z 42916d8a f i dh.obj
 0001:00015d8a       ??_E?$DL_SignerImpl@U?$DL_SignatureSchemeOptions@UDSA@CryptoPP@@UDL_Keys_DSA@2@V?$DL_Algorithm_GDSA@VInteger@CryptoPP@@@2@VDL_SignatureMessageEncodingMethod_DSA@2@VSHA1@2@@CryptoPP@@@CryptoPP@@UAEPAXI@Z 42916d8a f i dh.obj
 0001:00015da6       ?NewSignatureAccumulator@?$DL_SignerImpl@U?$DL_SignatureSchemeOptions@UDSA@CryptoPP@@UDL_Keys_DSA@2@V?$DL_Algorithm_GDSA@VInteger@CryptoPP@@@2@VDL_SignatureMessageEncodingMethod_DSA@2@VSHA1@2@@CryptoPP@@@CryptoPP@@UBEPAVPK_MessageAccumulator@2@AAVRandomNumberGenerator@2@@Z 42916da6 f i dh.obj
 0001:00015df7       ??0?$PK_MessageAccumulatorImpl@VSHA1@CryptoPP@@@CryptoPP@@QAE@XZ 42916df7 f i dh.obj
 0001:00015e38       ?Restart@HashTransformation@CryptoPP@@UAEXXZ 42916e38 f i dh.obj
 0001:00015e42       ??_G?$PK_MessageAccumulatorImpl@VSHA1@CryptoPP@@@CryptoPP@@UAEPAXI@Z 42916e42 f i dh.obj
 0001:00015e42       ??_E?$PK_MessageAccumulatorImpl@VSHA1@CryptoPP@@@CryptoPP@@UAEPAXI@Z 42916e42 f i dh.obj
 0001:00015e5e       ??1?$PK_MessageAccumulatorImpl@VSHA1@CryptoPP@@@CryptoPP@@UAE@XZ 42916e5e f i dh.obj
 0001:00015e77       ?DigestSize@PK_MessageAccumulator@CryptoPP@@UBEIXZ 42916e77 f i dh.obj
 0001:00015eb9       ?TruncatedFinal@PK_MessageAccumulator@CryptoPP@@UAEXPAEI@Z 42916eb9 f i dh.obj
 0001:00015efb       ??0?$DL_VerifierImpl@U?$DL_SignatureSchemeOptions@UDSA@CryptoPP@@UDL_Keys_DSA@2@V?$DL_Algorithm_GDSA@VInteger@CryptoPP@@@2@VDL_SignatureMessageEncodingMethod_DSA@2@VSHA1@2@@CryptoPP@@@CryptoPP@@QAE@XZ 42916efb f i dh.obj
 0001:00015f1b       ?AccessMaterial@PublicKeyAlgorithm@CryptoPP@@UAEAAVCryptoMaterial@2@XZ 42916f1b f i dh.obj
 0001:00015f2f       ?GetMaterial@PublicKeyAlgorithm@CryptoPP@@UBEABVCryptoMaterial@2@XZ 42916f2f f i dh.obj
 0001:00015f43       ?MaxRecoverableLength@?$DL_SignatureSchemeBase@VPK_Verifier@CryptoPP@@V?$DL_PublicKey@UECPPoint@CryptoPP@@@2@@CryptoPP@@UBEIXZ 42916f43 f i dll.obj
 0001:00015f43       ?MaxRecoverableLength@?$DL_SignatureSchemeBase@VPK_Verifier@CryptoPP@@V?$DL_PublicKey@UEC2NPoint@CryptoPP@@@2@@CryptoPP@@UBEIXZ 42916f43 f i dll.obj
 0001:00015f43       ?MaxRecoverableLength@?$DL_SignatureSchemeBase@VPK_Verifier@CryptoPP@@V?$DL_PublicKey@VInteger@CryptoPP@@@2@@CryptoPP@@UBEIXZ 42916f43 f i dh.obj
 0001:00015f77       ??_E?$DL_VerifierImpl@U?$DL_SignatureSchemeOptions@UDSA@CryptoPP@@UDL_Keys_DSA@2@V?$DL_Algorithm_GDSA@VInteger@CryptoPP@@@2@VDL_SignatureMessageEncodingMethod_DSA@2@VSHA1@2@@CryptoPP@@@CryptoPP@@W3AEPAXI@Z 42916f77 f i dh.obj
 0001:00015f7f       ?AlgorithmName@?$AlgorithmImpl@V?$DL_SignerBase@VInteger@CryptoPP@@@CryptoPP@@UDSA@2@@CryptoPP@@UBE?AV?$basic_string@DU?$char_traits@D@std@@V?$allocator@D@2@@std@@XZ 42916f7f f i dh.obj
 0001:00015f7f       ?AlgorithmName@?$AlgorithmImpl@V?$DL_VerifierBase@VInteger@CryptoPP@@@CryptoPP@@UDSA@2@@CryptoPP@@UBE?AV?$basic_string@DU?$char_traits@D@std@@V?$allocator@D@2@@std@@XZ 42916f7f f i dh.obj
 0001:00015f9b       ?VerifyAndRestart@?$DL_VerifierBase@VInteger@CryptoPP@@@CryptoPP@@UBE_NAAVPK_MessageAccumulator@2@@Z 42916f9b f i dh.obj
 0001:000160fb       ??_E?$DL_VerifierImpl@U?$DL_SignatureSchemeOptions@UDSA@CryptoPP@@UDL_Keys_DSA@2@V?$DL_Algorithm_GDSA@VInteger@CryptoPP@@@2@VDL_SignatureMessageEncodingMethod_DSA@2@VSHA1@2@@CryptoPP@@@CryptoPP@@UAEPAXI@Z 429170fb f i dh.obj
 0001:000160fb       ??_G?$DL_VerifierImpl@U?$DL_SignatureSchemeOptions@UDSA@CryptoPP@@UDL_Keys_DSA@2@V?$DL_Algorithm_GDSA@VInteger@CryptoPP@@@2@VDL_SignatureMessageEncodingMethod_DSA@2@VSHA1@2@@CryptoPP@@@CryptoPP@@UAEPAXI@Z 429170fb f i dh.obj
 0001:00016117       ?NewVerificationAccumulator@?$DL_VerifierImpl@U?$DL_SignatureSchemeOptions@UDSA@CryptoPP@@UDL_Keys_DSA@2@V?$DL_Algorithm_GDSA@VInteger@CryptoPP@@@2@VDL_SignatureMessageEncodingMethod_DSA@2@VSHA1@2@@CryptoPP@@@CryptoPP@@UBEPAVPK_MessageAccumulator@2@XZ 42917117 f i dh.obj
 0001:0001614c       ?RecoverAndRestart@?$DL_VerifierBase@VInteger@CryptoPP@@@CryptoPP@@UBE?AUDecodingResult@2@PAEAAVPK_MessageAccumulator@2@@Z 4291714c f i dh.obj
 0001:00016334       ??0?$PK_FinalTemplate@V?$DL_SignerImpl@U?$DL_SignatureSchemeOptions@UDSA@CryptoPP@@UDL_Keys_DSA@2@V?$DL_Algorithm_GDSA@VInteger@CryptoPP@@@2@VDL_SignatureMessageEncodingMethod_DSA@2@VSHA1@2@@CryptoPP@@@CryptoPP@@@CryptoPP@@QAE@ABVCryptoMaterial@1@@Z 42917334 f i dh.obj
 0001:00016371       ??0?$PK_FinalTemplate@V?$DL_VerifierImpl@U?$DL_SignatureSchemeOptions@UDSA@CryptoPP@@UDL_Keys_DSA@2@V?$DL_Algorithm_GDSA@VInteger@CryptoPP@@@2@VDL_SignatureMessageEncodingMethod_DSA@2@VSHA1@2@@CryptoPP@@@CryptoPP@@@CryptoPP@@QAE@ABVAsymmetricAlgorithm@1@@Z 42917371 f i dh.obj
 0001:000163be       ?GenerateRandom@?$DL_PrivateKey_WithSignaturePairwiseConsistencyTest@V?$DL_PrivateKey_GFP@VDL_GroupParameters_DSA@CryptoPP@@@CryptoPP@@UDSA@2@@CryptoPP@@UAEXAAVRandomNumberGenerator@2@ABVNameValuePairs@2@@Z 429173be f i dh.obj
 0001:0001646e       ??1?$simple_ptr@VPKCS1v15_SignatureMessageEncodingMethod@CryptoPP@@@CryptoPP@@QAE@XZ 4291746e f i fipstest.obj
 0001:0001646e       ??1?$simple_ptr@V?$OAEP@VSHA1@CryptoPP@@VP1363_MGF1@2@@CryptoPP@@@CryptoPP@@QAE@XZ 4291746e f i rsa.obj
 0001:0001646e       ??1?$simple_ptr@VEMSA2Pad@CryptoPP@@@CryptoPP@@QAE@XZ 4291746e f i fipstest.obj
 0001:0001646e       ??1?$simple_ptr@V?$PSSR_MEM@$0A@VP1363_MGF1@CryptoPP@@$0?0$0A@$0A@@CryptoPP@@@CryptoPP@@QAE@XZ 4291746e f i fipstest.obj
 0001:0001646e       ??1?$simple_ptr@VDL_SignatureMessageEncodingMethod_DSA@CryptoPP@@@CryptoPP@@QAE@XZ 4291746e f i dh.obj
 0001:00016482       ?SetAutoSignalPropagation@?$AutoSignaling@V?$InputRejecting@VBufferedTransformation@CryptoPP@@@CryptoPP@@@CryptoPP@@UAEXH@Z 42917482 f i asn.obj
 0001:00016482       ?SetAutoSignalPropagation@?$AutoSignaling@VBufferedTransformation@CryptoPP@@@CryptoPP@@UAEXH@Z 42917482 f i dll.obj
 0001:00016482       ?Redirect@Redirector@CryptoPP@@QAEXAAVBufferedTransformation@2@@Z 42917482 f i asn.obj
 0001:00016482       ?SetErrorType@Exception@CryptoPP@@QAEXW4ErrorType@12@@Z 42917482 f i dll.obj
 0001:0001648c       ?GetOperation@OS_Error@CryptoPP@@QBEABV?$basic_string@DU?$char_traits@D@std@@V?$allocator@D@2@@std@@XZ 4291748c f i dll.obj
 0001:00016490       ?GetErrorCode@OS_Error@CryptoPP@@QBEHXZ 42917490 f i dll.obj
 0001:00016494       ??0DecodingResult@CryptoPP@@QAE@I@Z 42917494 f i dll.obj
 0001:000164a3       ??8DecodingResult@CryptoPP@@QBE_NABU01@@Z 429174a3 f i dll.obj
 0001:000164bf       ??9DecodingResult@CryptoPP@@QBE_NABU01@@Z 429174bf f i dll.obj
 0001:000164d0       ??4DecodingResult@CryptoPP@@QAEAAU01@ABU01@@Z 429174d0 f i dll.obj
 0001:000164e3       ??_FAlgorithm@CryptoPP@@QAEXXZ 429174e3 f i dll.obj
 0001:000164eb       ?SetKeyWithIV@SimpleKeyingInterface@CryptoPP@@QAEXPBEI0@Z 429174eb f i dll.obj
 0001:0001650b       ?CanUseRandomIVs@SimpleKeyingInterface@CryptoPP@@QBE_NXZ 4291750b f i dll.obj
 0001:0001651b       ?CanUsePredictableIVs@SimpleKeyingInterface@CryptoPP@@QBE_NXZ 4291751b f i dll.obj
 0001:0001652b       ?CanUseStructuredIVs@SimpleKeyingInterface@CryptoPP@@QBE_NXZ 4291752b f i dll.obj
 0001:0001653a       ?ProcessString@StreamTransformation@CryptoPP@@QAEXPAEI@Z 4291753a f i dll.obj
 0001:0001654e       ?ProcessByte@StreamTransformation@CryptoPP@@QAEEE@Z 4291754e f i dll.obj
 0001:00016562       ?ProcessString@StreamTransformation@CryptoPP@@QAEXPAEPBEI@Z 42917562 f i cryptlib.obj
 0001:00016562       ?TagSize@HashTransformation@CryptoPP@@QBEIXZ 42917562 f i dll.obj
 0001:00016567       ?MaxFooterLength@AuthenticatedSymmetricCipher@CryptoPP@@UBE_KXZ 42917567 f i dll.obj
 0001:0001656c       ?UncheckedSpecifyDataLengths@AuthenticatedSymmetricCipher@CryptoPP@@MAEX_K00@Z 4291756c f i dll.obj
 0001:0001656f       ?PutModifiable@BufferedTransformation@CryptoPP@@QAEIPAEI_N@Z 4291756f f i dll.obj
 0001:00016585       ?PutMessageEnd@BufferedTransformation@CryptoPP@@QAEIPBEIH_N@Z 42917585 f i dll.obj
 0001:000165a8       ?ChannelPutModifiable@BufferedTransformation@CryptoPP@@QAEIABV?$basic_string@DU?$char_traits@D@std@@V?$allocator@D@2@@std@@PAEI_N@Z 429175a8 f i dll.obj
 0001:000165c5       ?ChannelPutMessageEnd@BufferedTransformation@CryptoPP@@QAEIABV?$basic_string@DU?$char_traits@D@std@@V?$allocator@D@2@@std@@PBEIH_N@Z 429175c5 f i dll.obj
 0001:000165ee       ?DecrementPropagation@BufferedTransformation@CryptoPP@@KAHH@Z 429175ee f i dll.obj
 0001:000165fc       ?DoQuickSanityCheck@CryptoMaterial@CryptoPP@@QBEXXZ 429175fc f i dll.obj
 0001:00016612       ?BERDecode@AsymmetricAlgorithm@CryptoPP@@QAEXAAVBufferedTransformation@2@@Z 42917612 f i dll.obj
 0001:0001661e       ?DEREncode@AsymmetricAlgorithm@CryptoPP@@QBEXAAVBufferedTransformation@2@@Z 4291761e f i dll.obj
 0001:0001662a       ?FixedLengthDecrypt@PK_Decryptor@CryptoPP@@QBE?AUDecodingResult@2@AAVRandomNumberGenerator@2@PBEPAEABVNameValuePairs@2@@Z 4291762a f i dll.obj
 0001:00016654       ??OCryptoPP@@YA_NABVInteger@0@0@Z 42917654 f i dll.obj
 0001:0001666b       ?FindNextWindow@WindowSlider@CryptoPP@@QAEXXZ 4291766b f i dll.obj
 0001:000166fd       ?Degree@PolynomialMod2@CryptoPP@@QBEHXZ 429176fd f i dll.obj
 0001:00016704       ?CoefficientCount@PolynomialMod2@CryptoPP@@QBEIXZ 42917704 f i dll.obj
 0001:00016709       ?IsZero@PolynomialMod2@CryptoPP@@QBE_NXZ 42917709 f i dll.obj
 0001:0001670e       ??ZPolynomialMod2@CryptoPP@@QAEAAV01@ABV01@@Z 4291770e f i dll.obj
 0001:0001670e       ??YPolynomialMod2@CryptoPP@@QAEAAV01@ABV01@@Z 4291770e f i dll.obj
 0001:00016713       ?SetCoefficient@PolynomialMod2@CryptoPP@@QAEXIH@Z 42917713 f i dll.obj
 0001:00016718       ?IsUnit@PolynomialMod2@CryptoPP@@QBE_NXZ 42917718 f i dll.obj
 0001:0001672a       ??MCryptoPP@@YA_NABVPolynomialMod2@0@0@Z 4291772a f i dll.obj
 0001:0001674c       ?Equal@GF2NP@CryptoPP@@UBE_NABVPolynomialMod2@2@0@Z 4291774c f i dll.obj
 0001:0001674c       ?Equal@?$EuclideanDomainOf@VPolynomialMod2@CryptoPP@@@CryptoPP@@UBE_NABVPolynomialMod2@2@0@Z 4291774c f i dll.obj
 0001:0001675c       ?IsUnit@GF2NP@CryptoPP@@UBE_NABVPolynomialMod2@2@@Z 4291775c f i dll.obj
 0001:0001676d       ?MaxElementByteLength@GF2NP@CryptoPP@@QBEIXZ 4291776d f i dll.obj
 0001:00016777       ??8EC2NPoint@CryptoPP@@QBE_NABU01@@Z 42917777 f i dll.obj
 0001:000167be       ??MEC2NPoint@CryptoPP@@QBE_NABU01@@Z 429177be f i dll.obj
 0001:0001681e       ??4EC2NPoint@CryptoPP@@QAEAAU01@ABU01@@Z 4291781e f i dll.obj
 0001:00016849       ??0?$DL_FixedBasePrecomputation@UEC2NPoint@CryptoPP@@@CryptoPP@@QAE@ABV01@@Z 42917849 f i dll.obj
 0001:00016854       ??0?$DL_FixedBasePrecomputation@UEC2NPoint@CryptoPP@@@CryptoPP@@QAE@XZ 42917854 f i dll.obj
 0001:0001685d       ??0?$DL_GroupPrecomputation@UEC2NPoint@CryptoPP@@@CryptoPP@@QAE@XZ 4291785d f i dll.obj
 0001:00016866       ??0?$DL_GroupPrecomputation@UEC2NPoint@CryptoPP@@@CryptoPP@@QAE@ABV01@@Z 42917866 f i dll.obj
 0001:00016871       ??8ECPPoint@CryptoPP@@QBE_NABU01@@Z 42917871 f i dll.obj
 0001:000168b8       ??MECPPoint@CryptoPP@@QBE_NABU01@@Z 429178b8 f i dll.obj
 0001:00016918       ??4ECPPoint@CryptoPP@@QAEAAU01@ABU01@@Z 42917918 f i dll.obj
 0001:00016943       ?GetB@ECP@CryptoPP@@QBEABVInteger@2@XZ 42917943 f i dll.obj
 0001:00016947       ??_OECP@CryptoPP@@QAEXABV01@@Z 42917947 f i dll.obj
 0001:00016955       ??0?$DL_FixedBasePrecomputation@UECPPoint@CryptoPP@@@CryptoPP@@QAE@ABV01@@Z 42917955 f i dll.obj
 0001:00016960       ??0?$DL_FixedBasePrecomputation@UECPPoint@CryptoPP@@@CryptoPP@@QAE@XZ 42917960 f i dll.obj
 0001:00016969       ??0?$DL_GroupPrecomputation@UECPPoint@CryptoPP@@@CryptoPP@@QAE@XZ 42917969 f i dll.obj
 0001:00016972       ??0?$DL_GroupPrecomputation@UECPPoint@CryptoPP@@@CryptoPP@@QAE@ABV01@@Z 42917972 f i dll.obj
 0001:0001697d       ??0PrimeSelector@CryptoPP@@QAE@XZ 4291797d f i dll.obj
 0001:00016986       ??0PrimeSelector@CryptoPP@@QAE@ABV01@@Z 42917986 f i dll.obj
 0001:00016991       ??0?$TF_Base@VRandomizedTrapdoorFunctionInverse@CryptoPP@@VPK_SignatureMessageEncodingMethod@2@@CryptoPP@@QAE@XZ 42917991 f i dh.obj
 0001:00016991       ?Ref@StreamTransformation@CryptoPP@@QAEAAV12@XZ 42917991 f i dll.obj
 0001:00016991       ??0?$DL_PrivateKey@UECPPoint@CryptoPP@@@CryptoPP@@QAE@XZ 42917991 f i dll.obj
 0001:00016991       ??0AdditiveCipherAbstractPolicy@CryptoPP@@QAE@XZ 42917991 f i ccm.obj
 0001:00016991       ??0?$DL_PublicKey@UECPPoint@CryptoPP@@@CryptoPP@@QAE@XZ 42917991 f i dll.obj
 0001:00016991       ??0?$DL_ElgamalLikeSignatureAlgorithm@UEC2NPoint@CryptoPP@@@CryptoPP@@QAE@XZ 42917991 f i dll.obj
 0001:00016991       ??0?$AbstractGroup@UEC2NPoint@CryptoPP@@@CryptoPP@@QAE@XZ 42917991 f i dll.obj
 0001:00016991       ?Ref@BufferedTransformation@CryptoPP@@QAEAAV12@XZ 42917991 f i dll.obj
 0001:00016991       ??0?$TF_Base@VTrapdoorFunctionInverse@CryptoPP@@VPK_EncryptionMessageEncodingMethod@2@@CryptoPP@@QAE@XZ 42917991 f i dh.obj
 0001:00016991       ??0PK_RecoverableSignatureMessageEncodingMethod@CryptoPP@@QAE@XZ 42917991 f i dh.obj
 0001:00016991       ??0Clonable@CryptoPP@@QAE@XZ 42917991 f i cryptlib.obj
 0001:00016991       ??0?$DL_PrivateKey@VInteger@CryptoPP@@@CryptoPP@@QAE@XZ 42917991 f i dh.obj
 0001:00016991       ??0PK_SignatureScheme@CryptoPP@@QAE@XZ 42917991 f i dh.obj
 0001:00016991       ??0?$DL_PublicKey@UEC2NPoint@CryptoPP@@@CryptoPP@@QAE@XZ 42917991 f i dll.obj
 0001:00016991       ??0?$DL_Key@VInteger@CryptoPP@@@CryptoPP@@QAE@XZ 42917991 f i dh.obj
 0001:00016991       ??0?$DL_ElgamalLikeSignatureAlgorithm@UECPPoint@CryptoPP@@@CryptoPP@@QAE@XZ 42917991 f i dll.obj
 0001:00016991       ?Ref@HashTransformation@CryptoPP@@QAEAAV12@XZ 42917991 f i dll.obj
 0001:00016991       ??0PK_CryptoSystem@CryptoPP@@QAE@XZ 42917991 f i dh.obj
 0001:00016991       ??0TrapdoorFunctionBounds@CryptoPP@@QAE@XZ 42917991 f i dh.obj
 0001:00016991       ??0?$TF_Base@VTrapdoorFunction@CryptoPP@@VPK_SignatureMessageEncodingMethod@2@@CryptoPP@@QAE@XZ 42917991 f i dh.obj
 0001:00016991       ??0TrapdoorFunctionInverse@CryptoPP@@QAE@XZ 42917991 f i dh.obj
 0001:00016991       ??0?$DL_ElgamalLikeSignatureAlgorithm@VInteger@CryptoPP@@@CryptoPP@@QAE@XZ 42917991 f i dh.obj
 0001:00016991       ?Prime@PrimeAndGenerator@CryptoPP@@QBEABVInteger@2@XZ 42917991 f i dll.obj
 0001:00016991       ?GetSelectorPointer@PrimeSelector@CryptoPP@@QBEPBV12@XZ 42917991 f i dll.obj
 0001:00016991       ??0?$DL_Key@UECPPoint@CryptoPP@@@CryptoPP@@QAE@XZ 42917991 f i dll.obj
 0001:00016991       ??0?$TF_Base@VRandomizedTrapdoorFunction@CryptoPP@@VPK_EncryptionMessageEncodingMethod@2@@CryptoPP@@QAE@XZ 42917991 f i dh.obj
 0001:00016991       ??0ASN1Object@CryptoPP@@QAE@XZ 42917991 f i asn.obj
 0001:00016991       ??0?$AbstractGroup@UECPPoint@CryptoPP@@@CryptoPP@@QAE@XZ 42917991 f i dll.obj
 0001:00016991       ??0TrapdoorFunction@CryptoPP@@QAE@XZ 42917991 f i dh.obj
 0001:00016991       ??0RandomizedTrapdoorFunctionInverse@CryptoPP@@QAE@XZ 42917991 f i dh.obj
 0001:00016991       ??0CFB_CipherAbstractPolicy@CryptoPP@@QAE@XZ 42917991 f i ccm.obj
 0001:00016991       ??0?$DL_Key@UEC2NPoint@CryptoPP@@@CryptoPP@@QAE@XZ 42917991 f i dll.obj
 0001:00016991       ??0?$DL_PublicKey@VInteger@CryptoPP@@@CryptoPP@@QAE@XZ 42917991 f i dh.obj
 0001:00016991       ??0?$DL_PrivateKey@UEC2NPoint@CryptoPP@@@CryptoPP@@QAE@XZ 42917991 f i dll.obj
 0001:00016991       ??0?$AbstractGroup@VInteger@CryptoPP@@@CryptoPP@@QAE@XZ 42917991 f i dh.obj
 0001:00016991       ??0PK_DeterministicSignatureMessageEncodingMethod@CryptoPP@@QAE@XZ 42917991 f i dh.obj
 0001:00016991       ??0CryptoMaterial@CryptoPP@@QAE@XZ 42917991 f i asn.obj
 0001:00016991       ??0SimpleKeyingInterface@CryptoPP@@QAE@XZ 42917991 f i authenc.obj
 0001:00016991       ??0RandomizedTrapdoorFunction@CryptoPP@@QAE@XZ 42917991 f i dh.obj
 0001:00016991       ??0?$AbstractGroup@VPolynomialMod2@CryptoPP@@@CryptoPP@@QAE@XZ 42917991 f i dll.obj
 0001:00016994       ?GetB@EC2N@CryptoPP@@QBEABVPolynomialMod2@2@XZ 42917994 f i dll.obj
 0001:00016994       ?SubPrime@PrimeAndGenerator@CryptoPP@@QBEABVInteger@2@XZ 42917994 f i dll.obj
 0001:00016998       ??0?$DL_Algorithm_GDSA@UECPPoint@CryptoPP@@@CryptoPP@@QAE@XZ 42917998 f i dll.obj
 0001:000169a1       ??0?$DL_Algorithm_GDSA@UECPPoint@CryptoPP@@@CryptoPP@@QAE@ABV01@@Z 429179a1 f i dll.obj
 0001:000169ac       ??0?$DL_Algorithm_GDSA@UEC2NPoint@CryptoPP@@@CryptoPP@@QAE@XZ 429179ac f i dll.obj
 0001:000169b5       ??0?$DL_Algorithm_GDSA@UEC2NPoint@CryptoPP@@@CryptoPP@@QAE@ABV01@@Z 429179b5 f i dll.obj
 0001:000169c0       ?KeystreamBufferBegin@?$AdditiveCipherTemplate@V?$AbstractPolicyHolder@UAdditiveCipherAbstractPolicy@CryptoPP@@VOFB_ModePolicy@2@@CryptoPP@@@CryptoPP@@IAEPAEXZ 429179c0 f i dll.obj
 0001:000169c0       ?GetStream@FileStore@CryptoPP@@QAEPAV?$basic_istream@DU?$char_traits@D@std@@@std@@XZ 429179c0 f i dll.obj
 0001:000169c4       ?GetStream@FileSource@CryptoPP@@QAEPAV?$basic_istream@DU?$char_traits@D@std@@@std@@XZ 429179c4 f i dll.obj
 0001:000169c8       ?GetBytesPerIteration@CFB_ModePolicy@CryptoPP@@MBEIXZ 429179c8 f i ccm.obj
 0001:000169c8       ?IVSize@CipherModeBase@CryptoPP@@UBEIXZ 429179c8 f i ccm.obj
 0001:000169c8       ?BlockSize@CipherModeBase@CryptoPP@@IBEIXZ 429179c8 f i ccm.obj
 0001:000169c8       ?GetBehavior@Redirector@CryptoPP@@QAE?AW4Behavior@12@XZ 429179c8 f i asn.obj
 0001:000169c8       ?GetStream@FileSink@CryptoPP@@QAEPAV?$basic_ostream@DU?$char_traits@D@std@@@std@@XZ 429179c8 f i dll.obj
 0001:000169c8       ?AccessIpad@HMAC_Base@CryptoPP@@IAEPAEXZ 429179c8 f i dh.obj
 0001:000169cc       ?IVSize@GCM_Base@CryptoPP@@UBEIXZ 429179cc f i dll.obj
 0001:000169d0       ?MaxHeaderLength@GCM_Base@CryptoPP@@UBE_KXZ 429179d0 f i dll.obj
 0001:000169d9       ?MaxMessageLength@GCM_Base@CryptoPP@@UBE_KXZ 429179d9 f i dll.obj
 0001:000169e0       ?DigestSize@GCM_Base@CryptoPP@@UBEIXZ 429179e0 f i dll.obj
 0001:000169e0       ?MinKeyLength@?$SimpleKeyingInterfaceImpl@V?$TwoBases@VBlockCipher@CryptoPP@@URijndael_Info@2@@CryptoPP@@V12@@CryptoPP@@UBEIXZ 429179e0 f i cryptlib.obj
 0001:000169e0       ?BlockSize@?$BlockCipherImpl@URijndael_Info@CryptoPP@@VBlockCipher@2@@CryptoPP@@UBEIXZ 429179e0 f i cryptlib.obj
 0001:000169e0       ?DefaultKeyLength@?$SimpleKeyingInterfaceImpl@V?$TwoBases@VBlockCipher@CryptoPP@@UDES_EDE2_Info@2@@CryptoPP@@V12@@CryptoPP@@UBEIXZ 429179e0 f i des.obj
 0001:000169e0       ?MinKeyLength@?$SimpleKeyingInterfaceImpl@V?$TwoBases@VBlockCipher@CryptoPP@@UDES_EDE2_Info@2@@CryptoPP@@V12@@CryptoPP@@UBEIXZ 429179e0 f i des.obj
 0001:000169e0       ?DefaultKeyLength@?$SimpleKeyingInterfaceImpl@VHMAC_Base@CryptoPP@@V?$HMAC@VSHA1@CryptoPP@@@2@@CryptoPP@@UBEIXZ 429179e0 f i fipstest.obj
 0001:000169e0       ?AuthenticationBlockSize@GCM_Base@CryptoPP@@MBEIXZ 429179e0 f i dll.obj
 0001:000169e0       ?DefaultKeyLength@?$SimpleKeyingInterfaceImpl@V?$TwoBases@VBlockCipher@CryptoPP@@URijndael_Info@2@@CryptoPP@@V12@@CryptoPP@@UBEIXZ 429179e0 f i cryptlib.obj
 0001:000169e0       ?MaxKeyLength@?$SimpleKeyingInterfaceImpl@V?$TwoBases@VBlockCipher@CryptoPP@@UDES_EDE2_Info@2@@CryptoPP@@V12@@CryptoPP@@UBEIXZ 429179e0 f i des.obj
 0001:000169e4       ?AccessSymmetricCipher@GCM_Base@CryptoPP@@MAEAAVSymmetricCipher@2@XZ 429179e4 f i dll.obj
 0001:000169e8       ?GetBlockCipher@CCM_Base@CryptoPP@@IBEABVBlockCipher@2@XZ 429179e8 f i ccm.obj
 0001:000169e8       ?GetBlockCipher@GCM_Base@CryptoPP@@IBEABVBlockCipher@2@XZ 429179e8 f i dll.obj
 0001:000169ed       ?TotalBytesRetrievable@MessageQueue@CryptoPP@@UBE_KXZ 429179ed f i dll.obj
 0001:000169f5       ??_FMessageQueue@CryptoPP@@QAEXXZ 429179f5 f i dll.obj
 0001:00016a00       ?StaticAlgorithmName@PKCS1v15_SignatureMessageEncodingMethod@CryptoPP@@SAPBDXZ 42917a00 f i dll.obj
 0001:00016a06       ?MinRepresentativeBitLength@PKCS1v15_SignatureMessageEncodingMethod@CryptoPP@@UBEIII@Z 42917a06 f i dll.obj
 0001:00016a1a       ?StaticAlgorithmName@EMSA2Pad@CryptoPP@@SAPBDXZ 42917a1a f i dll.obj
 0001:00016a20       ?MinRepresentativeBitLength@EMSA2Pad@CryptoPP@@UBEIII@Z 42917a20 f i dll.obj
 0001:00016a2e       ??0PSSR_MEM_Base@CryptoPP@@QAE@XZ 42917a2e f i dll.obj
 0001:00016a37       ??0PSSR_MEM_Base@CryptoPP@@QAE@ABV01@@Z 42917a37 f i dll.obj
 0001:00016a42       ?ParameterSupported@OAEP_Base@CryptoPP@@UBE_NPBD@Z 42917a42 f i dll.obj
 0001:00016a5a       ?Initialize@RSAFunction@CryptoPP@@QAEXABVInteger@2@0@Z 42917a5a f i dll.obj
 0001:00016a79       ?GetPublicExponent@RSAFunction@CryptoPP@@QBEABVInteger@2@XZ 42917a79 f i dll.obj
 0001:00016a79       ?GetGroupPrecomputation@?$DL_GroupParametersImpl@VModExpPrecomputation@CryptoPP@@V?$DL_FixedBasePrecomputationImpl@VInteger@CryptoPP@@@2@VDL_GroupParameters_IntegerBased@2@@CryptoPP@@UBEABV?$DL_GroupPrecomputation@VInteger@CryptoPP@@@2@XZ 42917a79 f i dh.obj
 0001:00016a7d       ?SetModulus@RSAFunction@CryptoPP@@QAEXABVInteger@2@@Z 42917a7d f i dll.obj
 0001:00016a85       ?SetPublicExponent@RSAFunction@CryptoPP@@QAEXABVInteger@2@@Z 42917a85 f i dll.obj
 0001:00016a8d       ?Initialize@InvertibleRSAFunction@CryptoPP@@QAEXABVInteger@2@0000000@Z 42917a8d f i dll.obj
 0001:00016aff       ?BERDecode@InvertibleRSAFunction@CryptoPP@@UAEXAAVBufferedTransformation@2@@Z 42917aff f i dll.obj
 0001:00016b07       ?DEREncode@InvertibleRSAFunction@CryptoPP@@UBEXAAVBufferedTransformation@2@@Z 42917b07 f i dll.obj
 0001:00016b0f       ?Load@InvertibleRSAFunction@CryptoPP@@UAEXAAVBufferedTransformation@2@@Z 42917b0f f i dll.obj
 0001:00016b1a       ?Save@InvertibleRSAFunction@CryptoPP@@UBEXAAVBufferedTransformation@2@@Z 42917b1a f i dll.obj
 0001:00016b25       ?GetPrime2@InvertibleRSAFunction@CryptoPP@@QBEABVInteger@2@XZ 42917b25 f i dll.obj
 0001:00016b2c       ?GetPrivateExponent@InvertibleRSAFunction@CryptoPP@@QBEABVInteger@2@XZ 42917b2c f i dll.obj
 0001:00016b30       ?GetModPrime1PrivateExponent@InvertibleRSAFunction@CryptoPP@@QBEABVInteger@2@XZ 42917b30 f i dll.obj
 0001:00016b37       ?GetModPrime2PrivateExponent@InvertibleRSAFunction@CryptoPP@@QBEABVInteger@2@XZ 42917b37 f i dll.obj
 0001:00016b3e       ?GetMultiplicativeInverseOfPrime2ModPrime1@InvertibleRSAFunction@CryptoPP@@QBEABVInteger@2@XZ 42917b3e f i dll.obj
 0001:00016b45       ?SetPrime1@InvertibleRSAFunction@CryptoPP@@QAEXABVInteger@2@@Z 42917b45 f i dll.obj
 0001:00016b50       ?SetPrime2@InvertibleRSAFunction@CryptoPP@@QAEXABVInteger@2@@Z 42917b50 f i dll.obj
 0001:00016b5b       ?SetPrivateExponent@InvertibleRSAFunction@CryptoPP@@QAEXABVInteger@2@@Z 42917b5b f i dll.obj
 0001:00016b63       ?SetModPrime1PrivateExponent@InvertibleRSAFunction@CryptoPP@@QAEXABVInteger@2@@Z 42917b63 f i dll.obj
 0001:00016b6e       ?SetModPrime2PrivateExponent@InvertibleRSAFunction@CryptoPP@@QAEXABVInteger@2@@Z 42917b6e f i dll.obj
 0001:00016b79       ?SetMultiplicativeInverseOfPrime2ModPrime1@InvertibleRSAFunction@CryptoPP@@QAEXABVInteger@2@@Z 42917b79 f i dll.obj
 0001:00016b84       ?StaticAlgorithmName@RSA@CryptoPP@@SAPBDXZ 42917b84 f i dll.obj
 0001:00016b8a       ?StaticAlgorithmName@RSA_ISO@CryptoPP@@SAPBDXZ 42917b8a f i dll.obj
 0001:00016b90       ?AccessGroupParameters@?$DL_KeyImpl@VX509PublicKey@CryptoPP@@V?$DL_GroupParameters_EC@VEC2N@CryptoPP@@@2@VOID@2@@CryptoPP@@QAEAAV?$DL_GroupParameters_EC@VEC2N@CryptoPP@@@2@XZ 42917b90 f i dll.obj
 0001:00016b90       ?GetModulus@RWFunction@CryptoPP@@QBEABVInteger@2@XZ 42917b90 f i dll.obj
 0001:00016b90       ?AccessGroupParameters@?$DL_KeyImpl@VX509PublicKey@CryptoPP@@VDL_GroupParameters_DSA@2@VOID@2@@CryptoPP@@QAEAAVDL_GroupParameters_DSA@2@XZ 42917b90 f i dh.obj
 0001:00016b90       ?GetGroupParameters@?$DL_KeyImpl@VX509PublicKey@CryptoPP@@VDL_GroupParameters_DSA@2@VOID@2@@CryptoPP@@QBEABVDL_GroupParameters_DSA@2@XZ 42917b90 f i dh.obj
 0001:00016b90       ?GetA@ECP@CryptoPP@@QBEABVInteger@2@XZ 42917b90 f i dll.obj
 0001:00016b90       ?GetGroupParameters@?$DL_KeyImpl@VX509PublicKey@CryptoPP@@V?$DL_GroupParameters_EC@VEC2N@CryptoPP@@@2@VOID@2@@CryptoPP@@QBEABV?$DL_GroupParameters_EC@VEC2N@CryptoPP@@@2@XZ 42917b90 f i dll.obj
 0001:00016b90       ?AccessGroupParameters@?$DL_KeyImpl@VX509PublicKey@CryptoPP@@V?$DL_GroupParameters_EC@VECP@CryptoPP@@@2@VOID@2@@CryptoPP@@QAEAAV?$DL_GroupParameters_EC@VECP@CryptoPP@@@2@XZ 42917b90 f i dll.obj
 0001:00016b90       ?GetGroupParameters@?$DL_KeyImpl@VX509PublicKey@CryptoPP@@V?$DL_GroupParameters_EC@VECP@CryptoPP@@@2@VOID@2@@CryptoPP@@QBEABV?$DL_GroupParameters_EC@VECP@CryptoPP@@@2@XZ 42917b90 f i dll.obj
 0001:00016b90       ?GetA@EC2N@CryptoPP@@QBEABVPolynomialMod2@2@XZ 42917b90 f i dll.obj
 0001:00016b94       ?SetModulus@RWFunction@CryptoPP@@QAEXABVInteger@2@@Z 42917b94 f i dll.obj
 0001:00016b94       ?Initialize@RWFunction@CryptoPP@@QAEXABVInteger@2@@Z 42917b94 f i dll.obj
 0001:00016b9c       ?Initialize@InvertibleRWFunction@CryptoPP@@QAEXABVInteger@2@000@Z 42917b9c f i dll.obj
 0001:00016bd3       ?Initialize@InvertibleRWFunction@CryptoPP@@QAEXAAVRandomNumberGenerator@2@I@Z 42917bd3 f i dll.obj
 0001:00016bdb       ?AccessBasePrecomputation@?$DL_GroupParametersImpl@VModExpPrecomputation@CryptoPP@@V?$DL_FixedBasePrecomputationImpl@VInteger@CryptoPP@@@2@VDL_GroupParameters_IntegerBased@2@@CryptoPP@@UAEAAV?$DL_FixedBasePrecomputation@VInteger@CryptoPP@@@2@XZ 42917bdb f i dh.obj
 0001:00016bdb       ?Generator@PrimeAndGenerator@CryptoPP@@QBEABVInteger@2@XZ 42917bdb f i dll.obj
 0001:00016bdb       ?GetBasePrecomputation@?$DL_GroupParameters_IntegerBasedImpl@VModExpPrecomputation@CryptoPP@@V?$DL_FixedBasePrecomputationImpl@VInteger@CryptoPP@@@2@@CryptoPP@@UBEABV?$DL_FixedBasePrecomputation@VInteger@CryptoPP@@@2@XZ 42917bdb f i dh.obj
 0001:00016bdb       ?GetBasePrecomputation@?$DL_GroupParametersImpl@VModExpPrecomputation@CryptoPP@@V?$DL_FixedBasePrecomputationImpl@VInteger@CryptoPP@@@2@VDL_GroupParameters_IntegerBased@2@@CryptoPP@@UBEABV?$DL_FixedBasePrecomputation@VInteger@CryptoPP@@@2@XZ 42917bdb f i dh.obj
 0001:00016bdb       ?AccessBasePrecomputation@?$DL_GroupParameters_IntegerBasedImpl@VModExpPrecomputation@CryptoPP@@V?$DL_FixedBasePrecomputationImpl@VInteger@CryptoPP@@@2@@CryptoPP@@UAEAAV?$DL_FixedBasePrecomputation@VInteger@CryptoPP@@@2@XZ 42917bdb f i dh.obj
 0001:00016bdb       ?GetPrime1@InvertibleRWFunction@CryptoPP@@QBEABVInteger@2@XZ 42917bdb f i dll.obj
 0001:00016bdf       ?GetPrime2@InvertibleRWFunction@CryptoPP@@QBEABVInteger@2@XZ 42917bdf f i dll.obj
 0001:00016be3       ?GetMultiplicativeInverseOfPrime2ModPrime1@InvertibleRWFunction@CryptoPP@@QBEABVInteger@2@XZ 42917be3 f i dll.obj
 0001:00016be7       ?SetPrime1@InvertibleRWFunction@CryptoPP@@QAEXABVInteger@2@@Z 42917be7 f i dll.obj
 0001:00016bef       ?SetPrime2@InvertibleRWFunction@CryptoPP@@QAEXABVInteger@2@@Z 42917bef f i dll.obj
 0001:00016bf7       ?SetMultiplicativeInverseOfPrime2ModPrime1@InvertibleRWFunction@CryptoPP@@QAEXABVInteger@2@@Z 42917bf7 f i dll.obj
 0001:00016bff       ?StaticAlgorithmName@SKIPJACK_Info@CryptoPP@@SAPBDXZ 42917bff f i dll.obj
 0001:00016c05       ??0?$TwoBases@VBlockCipher@CryptoPP@@USKIPJACK_Info@2@@CryptoPP@@QAE@ABV01@@Z 42917c05 f i dll.obj
 0001:00016c05       ??0?$TwoBases@VBlockCipher@CryptoPP@@URijndael_Info@2@@CryptoPP@@QAE@ABV01@@Z 42917c05 f i cryptlib.obj
 0001:00016c05       ??0?$TwoBases@VBlockCipher@CryptoPP@@UDES_EDE2_Info@2@@CryptoPP@@QAE@ABV01@@Z 42917c05 f i des.obj
 0001:00016c05       ??0?$TwoBases@VBlockCipher@CryptoPP@@UDES_EDE3_Info@2@@CryptoPP@@QAE@ABV01@@Z 42917c05 f i des.obj
 0001:00016c2a       ??0?$BlockCipherImpl@USKIPJACK_Info@CryptoPP@@VBlockCipher@2@@CryptoPP@@QAE@XZ 42917c2a f i dll.obj
 0001:00016c2a       ??0?$BlockCipherImpl@UDES_EDE3_Info@CryptoPP@@VBlockCipher@2@@CryptoPP@@QAE@XZ 42917c2a f i des.obj
 0001:00016c2a       ??0?$BlockCipherImpl@URijndael_Info@CryptoPP@@VBlockCipher@2@@CryptoPP@@QAE@XZ 42917c2a f i cryptlib.obj
 0001:00016c2a       ??0?$BlockCipherImpl@UDES_EDE2_Info@CryptoPP@@VBlockCipher@2@@CryptoPP@@QAE@XZ 42917c2a f i des.obj
 0001:00016d6c       ??2@YAPAXI@Z               42917d6c f   dll.obj
 0001:00016d80       ??3@YAXPAX@Z               42917d80 f   dll.obj
 0001:00016d80       ??_V@YAXPAX@Z              42917d80 f   dll.obj
 0001:00016d86       ?construct@?$AllocatorBase@E@CryptoPP@@QAEXPAEABE@Z 42917d86 f i dll.obj
 0001:00016d99       ?max_size@?$AllocatorBase@E@CryptoPP@@QBEIXZ 42917d99 f i dll.obj
 0001:00016d99       ?MaxIVLength@GCM_Base@CryptoPP@@UBEIXZ 42917d99 f i dll.obj
 0001:00016d99       ?underflow@?$basic_streambuf@DU?$char_traits@D@std@@@std@@MAEHXZ 42917d99 f i files.obj
 0001:00016d9d       ?construct@?$AllocatorBase@G@CryptoPP@@QAEXPAGABG@Z 42917d9d f i dll.obj
 0001:00016db2       ?MaxKeyLength@?$SimpleKeyingInterfaceImpl@VHMAC_Base@CryptoPP@@V?$HMAC@VSHA1@CryptoPP@@@2@@CryptoPP@@UBEIXZ 42917db2 f i fipstest.obj
 0001:00016db2       ?max_size@?$AllocatorBase@G@CryptoPP@@QBEIXZ 42917db2 f i dll.obj
 0001:00016db8       ?address@?$AllocatorBase@E@CryptoPP@@QBEPBEABE@Z 42917db8 f i dll.obj
 0001:00016db8       ?address@?$AllocatorBase@G@CryptoPP@@QBEPBGABG@Z 42917db8 f i dll.obj
 0001:00016db8       ?address@?$AllocatorBase@I@CryptoPP@@QBEPAIAAI@Z 42917db8 f i dll.obj
 0001:00016db8       ?SaltLen@?$PSSR_MEM@$0A@VP1363_MGF1@CryptoPP@@$0?0$0A@$0A@@CryptoPP@@EBEII@Z 42917db8 f i fipstest.obj
 0001:00016db8       ?address@?$AllocatorBase@_K@CryptoPP@@QBEPA_KAA_K@Z 42917db8 f i dll.obj
 0001:00016db8       ?address@?$AllocatorBase@_K@CryptoPP@@QBEPB_KAB_K@Z 42917db8 f i dll.obj
 0001:00016db8       ?address@?$AllocatorBase@I@CryptoPP@@QBEPBIABI@Z 42917db8 f i dll.obj
 0001:00016db8       ?address@?$AllocatorBase@G@CryptoPP@@QBEPAGAAG@Z 42917db8 f i dll.obj
 0001:00016db8       ?address@?$AllocatorBase@E@CryptoPP@@QBEPAEAAE@Z 42917db8 f i dll.obj
 0001:00016dbf       ?construct@?$AllocatorBase@I@CryptoPP@@QAEXPAIABI@Z 42917dbf f i dll.obj
 0001:00016dd2       ?max_size@?$AllocatorBase@I@CryptoPP@@QBEIXZ 42917dd2 f i dll.obj
 0001:00016dd8       ?construct@?$AllocatorBase@_K@CryptoPP@@QAEXPA_KAB_K@Z 42917dd8 f i dll.obj
 0001:00016df1       ?max_size@?$AllocatorBase@_K@CryptoPP@@QBEIXZ 42917df1 f i dll.obj
 0001:00016df7       ?GetOptimalNextBlockSize@?$AdditiveCipherTemplate@V?$AbstractPolicyHolder@UAdditiveCipherAbstractPolicy@CryptoPP@@VSymmetricCipher@2@@CryptoPP@@@CryptoPP@@QBEIXZ 42917df7 f i dll.obj
 0001:00016dfb       ?GetOptimalNextBlockSize@?$CFB_CipherTemplate@V?$AbstractPolicyHolder@VCFB_CipherAbstractPolicy@CryptoPP@@VSymmetricCipher@2@@CryptoPP@@@CryptoPP@@QBEIXZ 42917dfb f i dll.obj
 0001:00016dff       ?GetStoredTypeInfo@ValueTypeMismatch@NameValuePairs@CryptoPP@@QBEABVtype_info@@XZ 42917dff f i dll.obj
 0001:00016dff       ?GetOptimalNextBlockSize@?$AdditiveCipherTemplate@V?$AbstractPolicyHolder@UAdditiveCipherAbstractPolicy@CryptoPP@@VOFB_ModePolicy@2@@CryptoPP@@@CryptoPP@@QBEIXZ 42917dff f i dll.obj
 0001:00016dff       ?GetOptimalNextBlockSize@?$CFB_CipherTemplate@V?$AbstractPolicyHolder@VCFB_CipherAbstractPolicy@CryptoPP@@VCFB_ModePolicy@2@@CryptoPP@@@CryptoPP@@QBEIXZ 42917dff f i dll.obj
 0001:00016e03       ?GetBufferByteSize@?$AdditiveCipherTemplate@V?$AbstractPolicyHolder@UAdditiveCipherAbstractPolicy@CryptoPP@@VCTR_ModePolicy@2@@CryptoPP@@@CryptoPP@@IBEIABUAdditiveCipherAbstractPolicy@2@@Z 42917e03 f i dll.obj
 0001:00016e03       ?GetBufferByteSize@?$AdditiveCipherTemplate@V?$AbstractPolicyHolder@UAdditiveCipherAbstractPolicy@CryptoPP@@VSymmetricCipher@2@@CryptoPP@@@CryptoPP@@IBEIABUAdditiveCipherAbstractPolicy@2@@Z 42917e03 f i dll.obj
 0001:00016e03       ?GetBufferByteSize@?$AdditiveCipherTemplate@V?$AbstractPolicyHolder@UAdditiveCipherAbstractPolicy@CryptoPP@@VOFB_ModePolicy@2@@CryptoPP@@@CryptoPP@@IBEIABUAdditiveCipherAbstractPolicy@2@@Z 42917e03 f i dll.obj
 0001:00016e21       ?GetTotalMessageSeries@MeterFilter@CryptoPP@@QAEIXZ 42917e21 f i asn.obj
 0001:00016e21       ?GetOptimalNextBlockSize@?$AdditiveCipherTemplate@V?$AbstractPolicyHolder@UAdditiveCipherAbstractPolicy@CryptoPP@@VCTR_ModePolicy@2@@CryptoPP@@@CryptoPP@@QBEIXZ 42917e21 f i dll.obj
 0001:00016e25       ?GetBitCountHi@?$IteratedHashBase@_KVHashTransformation@CryptoPP@@@CryptoPP@@IBE_KXZ 42917e25 f i dll.obj
 0001:00016e56       ?GetBitCountLo@?$IteratedHashBase@_KVHashTransformation@CryptoPP@@@CryptoPP@@IBE_KXZ 42917e56 f i dll.obj
 0001:00016e64       ?GetBitCountHi@?$IteratedHashBase@IVHashTransformation@CryptoPP@@@CryptoPP@@IBEIXZ 42917e64 f i dll.obj
 0001:00016e71       ?GetBitCountLo@?$IteratedHashBase@IVHashTransformation@CryptoPP@@@CryptoPP@@IBEIXZ 42917e71 f i dll.obj
 0001:00016e78       ?HashBlock@?$IteratedHashBase@_KVHashTransformation@CryptoPP@@@CryptoPP@@IAEXPB_K@Z 42917e78 f i dll.obj
 0001:00016e78       ?HashBlock@?$IteratedHashBase@IVHashTransformation@CryptoPP@@@CryptoPP@@IAEXPBI@Z 42917e78 f i dll.obj
 0001:00016e90       ??9?$DL_GroupParameters_IntegerBasedImpl@VModExpPrecomputation@CryptoPP@@V?$DL_FixedBasePrecomputationImpl@VInteger@CryptoPP@@@2@@CryptoPP@@QBE_NABV01@@Z 42917e90 f i dll.obj
 0001:00016ea1       ?Initialize@?$DL_PrivateKey_GFP@VDL_GroupParameters_DSA@CryptoPP@@@CryptoPP@@QAEXAAVRandomNumberGenerator@2@I@Z 42917ea1 f i dll.obj
 0001:00016ea9       ?Identity@MultiplicativeGroupT@?$AbstractRing@VInteger@CryptoPP@@@CryptoPP@@UBEABVInteger@3@XZ 42917ea9 f i dh.obj
 0001:00016ea9       ?Identity@MultiplicativeGroupT@?$AbstractRing@VPolynomialMod2@CryptoPP@@@CryptoPP@@UBEABVPolynomialMod2@3@XZ 42917ea9 f i dll.obj
 0001:00016eb1       ?Add@MultiplicativeGroupT@?$AbstractRing@VInteger@CryptoPP@@@CryptoPP@@UBEABVInteger@3@ABV43@0@Z 42917eb1 f i dh.obj
 0001:00016eb1       ?Add@MultiplicativeGroupT@?$AbstractRing@VPolynomialMod2@CryptoPP@@@CryptoPP@@UBEABVPolynomialMod2@3@ABV43@0@Z 42917eb1 f i dll.obj
 0001:00016eb9       ?Accumulate@MultiplicativeGroupT@?$AbstractRing@VPolynomialMod2@CryptoPP@@@CryptoPP@@UBEAAVPolynomialMod2@3@AAV43@ABV43@@Z 42917eb9 f i dll.obj
 0001:00016ed6       ?Inverse@MultiplicativeGroupT@?$AbstractRing@VPolynomialMod2@CryptoPP@@@CryptoPP@@UBEABVPolynomialMod2@3@ABV43@@Z 42917ed6 f i dll.obj
 0001:00016ed6       ?Inverse@MultiplicativeGroupT@?$AbstractRing@VInteger@CryptoPP@@@CryptoPP@@UBEABVInteger@3@ABV43@@Z 42917ed6 f i dh.obj
 0001:00016ede       ?Reduce@MultiplicativeGroupT@?$AbstractRing@VPolynomialMod2@CryptoPP@@@CryptoPP@@UBEAAVPolynomialMod2@3@AAV43@ABV43@@Z 42917ede f i dll.obj
 0001:00016efb       ?Identity@?$EuclideanDomainOf@VPolynomialMod2@CryptoPP@@@CryptoPP@@UBEABVPolynomialMod2@2@XZ 42917efb f i dll.obj
 0001:00016f00       ?Reduce@?$EuclideanDomainOf@VPolynomialMod2@CryptoPP@@@CryptoPP@@UBEAAVPolynomialMod2@2@AAV32@ABV32@@Z 42917f00 f i dll.obj
 0001:00016f00       ?Accumulate@?$EuclideanDomainOf@VPolynomialMod2@CryptoPP@@@CryptoPP@@UBEAAVPolynomialMod2@2@AAV32@ABV32@@Z 42917f00 f i dll.obj
 0001:00016f10       ?MultiplicativeIdentity@?$EuclideanDomainOf@VPolynomialMod2@CryptoPP@@@CryptoPP@@UBEABVPolynomialMod2@2@XZ 42917f10 f i dll.obj
 0001:00016f15       ?IsUnit@?$EuclideanDomainOf@VPolynomialMod2@CryptoPP@@@CryptoPP@@UBE_NABVPolynomialMod2@2@@Z 42917f15 f i dll.obj
 0001:00016f27       ?DivisionAlgorithm@?$EuclideanDomainOf@VPolynomialMod2@CryptoPP@@@CryptoPP@@UBEXAAVPolynomialMod2@2@0ABV32@1@Z 42917f27 f i dll.obj
 0001:00016f42       ??8?$EuclideanDomainOf@VPolynomialMod2@CryptoPP@@@CryptoPP@@QBE_NABV01@@Z 42917f42 f i dll.obj
 0001:00016f47       ?GetModulus@?$QuotientRing@V?$EuclideanDomainOf@VPolynomialMod2@CryptoPP@@@CryptoPP@@@CryptoPP@@QBEABVPolynomialMod2@2@XZ 42917f47 f i dll.obj
 0001:00016f4b       ?Equal@?$QuotientRing@V?$EuclideanDomainOf@VPolynomialMod2@CryptoPP@@@CryptoPP@@@CryptoPP@@UBE_NABVPolynomialMod2@2@0@Z 42917f4b f i dll.obj
 0001:00016f8b       ?Identity@?$QuotientRing@V?$EuclideanDomainOf@VPolynomialMod2@CryptoPP@@@CryptoPP@@@CryptoPP@@UBEABVPolynomialMod2@2@XZ 42917f8b f i dll.obj
 0001:00016f93       ?Add@?$QuotientRing@V?$EuclideanDomainOf@VPolynomialMod2@CryptoPP@@@CryptoPP@@@CryptoPP@@UBEABVPolynomialMod2@2@ABV32@0@Z 42917f93 f i dll.obj
 0001:00016f9b       ?Accumulate@?$QuotientRing@V?$EuclideanDomainOf@VPolynomialMod2@CryptoPP@@@CryptoPP@@@CryptoPP@@UBEAAVPolynomialMod2@2@AAV32@ABV32@@Z 42917f9b f i dll.obj
 0001:00016fa3       ?Inverse@?$QuotientRing@V?$EuclideanDomainOf@VPolynomialMod2@CryptoPP@@@CryptoPP@@@CryptoPP@@UBEABVPolynomialMod2@2@ABV32@@Z 42917fa3 f i dll.obj
 0001:00016fab       ?Subtract@?$QuotientRing@V?$EuclideanDomainOf@VPolynomialMod2@CryptoPP@@@CryptoPP@@@CryptoPP@@UBEABVPolynomialMod2@2@ABV32@0@Z 42917fab f i dll.obj
 0001:00016fb3       ?Reduce@?$QuotientRing@V?$EuclideanDomainOf@VPolynomialMod2@CryptoPP@@@CryptoPP@@@CryptoPP@@UBEAAVPolynomialMod2@2@AAV32@ABV32@@Z 42917fb3 f i dll.obj
 0001:00016fbb       ?Double@?$QuotientRing@V?$EuclideanDomainOf@VPolynomialMod2@CryptoPP@@@CryptoPP@@@CryptoPP@@UBEABVPolynomialMod2@2@ABV32@@Z 42917fbb f i dll.obj
 0001:00016fc3       ?IsUnit@?$QuotientRing@V?$EuclideanDomainOf@VPolynomialMod2@CryptoPP@@@CryptoPP@@@CryptoPP@@UBE_NABVPolynomialMod2@2@@Z 42917fc3 f i dll.obj
 0001:00016fe2       ?MultiplicativeIdentity@?$QuotientRing@V?$EuclideanDomainOf@VPolynomialMod2@CryptoPP@@@CryptoPP@@@CryptoPP@@UBEABVPolynomialMod2@2@XZ 42917fe2 f i dll.obj
 0001:00016fea       ?Multiply@?$QuotientRing@V?$EuclideanDomainOf@VPolynomialMod2@CryptoPP@@@CryptoPP@@@CryptoPP@@UBEABVPolynomialMod2@2@ABV32@0@Z 42917fea f i dll.obj
 0001:0001700d       ?Square@?$QuotientRing@V?$EuclideanDomainOf@VPolynomialMod2@CryptoPP@@@CryptoPP@@@CryptoPP@@UBEABVPolynomialMod2@2@ABV32@@Z 4291800d f i dll.obj
 0001:0001702c       ??8?$QuotientRing@V?$EuclideanDomainOf@VPolynomialMod2@CryptoPP@@@CryptoPP@@@CryptoPP@@QBE_NABV01@@Z 4291802c f i dll.obj
 0001:00017045       ??1TF_SignerBase@CryptoPP@@UAE@XZ 42918045 f i dh.obj
 0001:00017045       ??_D?$ASN1CryptoMaterial@VPublicKey@CryptoPP@@@CryptoPP@@QAEXXZ 42918045 f i asn.obj
 0001:00017045       ??1BitBucket@CryptoPP@@UAE@XZ 42918045 f i cryptlib.obj
 0001:00017045       ??1TF_DecryptorBase@CryptoPP@@UAE@XZ 42918045 f i dh.obj
 0001:00017045       ??1AuthenticatedSymmetricCipher@CryptoPP@@UAE@XZ 42918045 f i authenc.obj
 0001:00017045       ??1?$TF_CryptoSystemBase@VPK_Encryptor@CryptoPP@@V?$TF_Base@VRandomizedTrapdoorFunction@CryptoPP@@VPK_EncryptionMessageEncodingMethod@2@@2@@CryptoPP@@UAE@XZ 42918045 f i dh.obj
 0001:00017045       ??1RandomizedTrapdoorFunction@CryptoPP@@UAE@XZ 42918045 f i dh.obj
 0001:00017045       ??1AuthenticatedKeyAgreementDomain@CryptoPP@@UAE@XZ 42918045 f i dll.obj
 0001:00017045       ??_DCryptoParameters@CryptoPP@@QAEXXZ 42918045 f i dll.obj
 0001:00017045       ??1PSSR_MEM_Base@CryptoPP@@UAE@XZ 42918045 f i dll.obj
 0001:00017045       ??1?$InputRejecting@VBufferedTransformation@CryptoPP@@@CryptoPP@@UAE@XZ 42918045 f i asn.obj
 0001:00017045       ??1KeyAgreementAlgorithm@CryptoPP@@UAE@XZ 42918045 f i dh.obj
 0001:00017045       ??1RandomNumberStore@CryptoPP@@UAE@XZ 42918045 f i asn.obj
 0001:00017045       ??1?$CFB_DecryptionTemplate@V?$AbstractPolicyHolder@VCFB_CipherAbstractPolicy@CryptoPP@@VSymmetricCipher@2@@CryptoPP@@@CryptoPP@@UAE@XZ 42918045 f i ccm.obj
 0001:00017045       ??1?$BlockCipherImpl@USKIPJACK_Info@CryptoPP@@VBlockCipher@2@@CryptoPP@@UAE@XZ 42918045 f i dll.obj
 0001:00017045       ??1?$AlgorithmImpl@V?$SimpleKeyingInterfaceImpl@V?$TwoBases@VBlockCipher@CryptoPP@@URijndael_Info@2@@CryptoPP@@V12@@CryptoPP@@V12@@CryptoPP@@UAE@XZ 42918045 f i cryptlib.obj
 0001:00017045       ??1?$DL_SimpleKeyAgreementDomainBase@VInteger@CryptoPP@@@CryptoPP@@UAE@XZ 42918045 f i dh.obj
 0001:00017045       ??1?$SimpleKeyingInterfaceImpl@V?$TwoBases@VBlockCipher@CryptoPP@@UDES_EDE3_Info@2@@CryptoPP@@V12@@CryptoPP@@UAE@XZ 42918045 f i des.obj
 0001:00017045       ??1?$OAEP@VSHA1@CryptoPP@@VP1363_MGF1@2@@CryptoPP@@UAE@XZ 42918045 f i dll.obj
 0001:00017045       ??1ArrayXorSink@CryptoPP@@UAE@XZ 42918045 f i asn.obj
 0001:00017045       ??1Algorithm@CryptoPP@@UAE@XZ 42918045 f i asn.obj
 0001:00017045       ??1EMSA2Pad@CryptoPP@@UAE@XZ 42918045 f i dll.obj
 0001:00017045       ??1PrivateKey@CryptoPP@@UAE@XZ 42918045 f i asn.obj
 0001:00017045       ??1SimpleKeyAgreementDomain@CryptoPP@@UAE@XZ 42918045 f i dh.obj
 0001:00017045       ??1X509PublicKey@CryptoPP@@UAE@XZ 42918045 f i asn.obj
 0001:00017045       ??1PK_DeterministicSignatureMessageEncodingMethod@CryptoPP@@UAE@XZ 42918045 f i dh.obj
 0001:00017045       ??1?$TwoBases@VBlockCipher@CryptoPP@@UDES_EDE2_Info@2@@CryptoPP@@UAE@XZ 42918045 f i des.obj
 0001:00017045       ?AuthenticateLastConfidentialBlock@AuthenticatedSymmetricCipherBase@CryptoPP@@MAEXXZ 42918045 f i authenc.obj
 0001:00017045       ??1?$PSSR_MEM_BaseWithHashId@$0A@@CryptoPP@@UAE@XZ 42918045 f i fipstest.obj
 0001:00017045       ??1OAEP_Base@CryptoPP@@UAE@XZ 42918045 f i dll.obj
 0001:00017045       ??1PKCS1v15_SignatureMessageEncodingMethod@CryptoPP@@UAE@XZ 42918045 f i dll.obj
 0001:00017045       ?ReverseHashBufferIfNeeded@GCM_Base@CryptoPP@@IAEXXZ 42918045 f i gcm.obj
 0001:00017045       ??1?$TF_CryptoSystemBase@VPK_Decryptor@CryptoPP@@V?$TF_Base@VTrapdoorFunctionInverse@CryptoPP@@VPK_EncryptionMessageEncodingMethod@2@@2@@CryptoPP@@UAE@XZ 42918045 f i dh.obj
 0001:00017045       ??1CombinedNameValuePairs@CryptoPP@@UAE@XZ 42918045 f i algparam.obj
 0001:00017045       ??1TrapdoorFunctionBounds@CryptoPP@@UAE@XZ 42918045 f i dh.obj
 0001:00017045       ??_D?$ASN1CryptoMaterial@V?$DL_GroupParameters@VInteger@CryptoPP@@@CryptoPP@@@CryptoPP@@QAEXXZ 42918045 f i dh.obj
 0001:00017045       ?FlushDerived@FilterWithBufferedInput@CryptoPP@@MAEXXZ 42918045 f i asn.obj
 0001:00017045       ??1ASN1Object@CryptoPP@@UAE@XZ 42918045 f i algebra.obj
 0001:00017045       ??1?$Bufferless@VBufferedTransformation@CryptoPP@@@CryptoPP@@UAE@XZ 42918045 f i asn.obj
 0001:00017045       ??1SymmetricCipher@CryptoPP@@UAE@XZ 42918045 f i ccm.obj
 0001:00017045       ??_DPrivateKey@CryptoPP@@QAEXXZ 42918045 f i dll.obj
 0001:00017045       ??1ArraySink@CryptoPP@@UAE@XZ 42918045 f i asn.obj
 0001:00017045       ??1CryptoParameters@CryptoPP@@UAE@XZ 42918045 f i dh.obj
 0001:00017045       ??1NullStore@CryptoPP@@UAE@XZ 42918045 f i asn.obj
 0001:00017045       ??1?$AutoSignaling@VBufferedTransformation@CryptoPP@@@CryptoPP@@UAE@XZ 42918045 f i dll.obj
 0001:00017045       ??1?$StringSinkTemplate@V?$basic_string@DU?$char_traits@D@std@@V?$allocator@D@2@@std@@@CryptoPP@@UAE@XZ 42918045 f i asn.obj
 0001:00017045       ??1DL_SignatureMessageEncodingMethod_NR@CryptoPP@@UAE@XZ 42918045 f i dh.obj
 0001:00017045       ??_DPublicKey@CryptoPP@@QAEXXZ 42918045 f i dll.obj
 0001:00017045       ??1?$AbstractPolicyHolder@UAdditiveCipherAbstractPolicy@CryptoPP@@VSymmetricCipher@2@@CryptoPP@@UAE@XZ 42918045 f i ccm.obj
 0001:00017045       ??1RandomizedTrapdoorFunctionInverse@CryptoPP@@UAE@XZ 42918045 f i dh.obj
 0001:00017045       ??1Clonable@CryptoPP@@UAE@XZ 42918045 f i asn.obj
 0001:00017045       ??1?$AbstractRing@VPolynomialMod2@CryptoPP@@@CryptoPP@@UAE@XZ 42918045 f i dll.obj
 0001:00017045       ??1TF_EncryptorBase@CryptoPP@@UAE@XZ 42918045 f i dh.obj
 0001:00017045       ??1?$AbstractPolicyHolder@VCFB_CipherAbstractPolicy@CryptoPP@@VSymmetricCipher@2@@CryptoPP@@UAE@XZ 42918045 f i ccm.obj
 0001:00017045       ??1?$AbstractGroup@VPolynomialMod2@CryptoPP@@@CryptoPP@@UAE@XZ 42918045 f i dll.obj
 0001:00017045       ??1?$AlgorithmImpl@V?$SimpleKeyingInterfaceImpl@V?$TwoBases@VBlockCipher@CryptoPP@@UDES_EDE3_Info@2@@CryptoPP@@V12@@CryptoPP@@V12@@CryptoPP@@UAE@XZ 42918045 f i des.obj
 0001:00017045       ??1P1363_MGF1@CryptoPP@@UAE@XZ 42918045 f i dll.obj
 0001:00017045       __fpclear                  42918045 f i LIBCMT:fpinit.obj
 0001:00017045       ??1?$BlockCipherImpl@UDES_EDE3_Info@CryptoPP@@VBlockCipher@2@@CryptoPP@@UAE@XZ 42918045 f i des.obj
 0001:00017045       ??1PK_RecoverableSignatureMessageEncodingMethod@CryptoPP@@UAE@XZ 42918045 f i dh.obj
 0001:00017045       ??1TrapdoorFunctionInverse@CryptoPP@@UAE@XZ 42918045 f i dh.obj
 0001:00017045       ??1TrapdoorFunction@CryptoPP@@UAE@XZ 42918045 f i dh.obj
 0001:00017045       ??1?$SimpleKeyingInterfaceImpl@V?$TwoBases@VBlockCipher@CryptoPP@@USKIPJACK_Info@2@@CryptoPP@@V12@@CryptoPP@@UAE@XZ 42918045 f i dll.obj
 0001:00017045       ??1?$IteratedHashBase@_KVHashTransformation@CryptoPP@@@CryptoPP@@UAE@XZ 42918045 f i cryptlib.obj
 0001:00017045       ??1PK_Verifier@CryptoPP@@UAE@XZ 42918045 f i dh.obj
 0001:00017045       ??1BufferedTransformation@CryptoPP@@UAE@XZ 42918045 f i asn.obj
 0001:00017045       ??1?$AbstractGroup@UECPPoint@CryptoPP@@@CryptoPP@@UAE@XZ 42918045 f i dll.obj
 0001:00017045       ??1?$AbstractRing@VInteger@CryptoPP@@@CryptoPP@@UAE@XZ 42918045 f i dh.obj
 0001:00017045       ??_D?$DL_GroupParameters@UEC2NPoint@CryptoPP@@@CryptoPP@@QAEXXZ 42918045 f i dll.obj
 0001:00017045       ??1AdditiveCipherAbstractPolicy@CryptoPP@@UAE@XZ 42918045 f i ccm.obj
 0001:00017045       ??1PK_Decryptor@CryptoPP@@UAE@XZ 42918045 f i dh.obj
 0001:00017045       ??1?$ASN1CryptoMaterial@VPrivateKey@CryptoPP@@@CryptoPP@@UAE@XZ 42918045 f i asn.obj
 0001:00017045       ??1PrivateKeyAlgorithm@CryptoPP@@UAE@XZ 42918045 f i dh.obj
 0001:00017045       ??1PK_MessageAccumulator@CryptoPP@@UAE@XZ 42918045 f i dh.obj
 0001:00017045       ??1AsymmetricAlgorithm@CryptoPP@@UAE@XZ 42918045 f i dh.obj
 0001:00017045       ??_DGeneratableCryptoMaterial@CryptoPP@@QAEXXZ 42918045 f i dll.obj
 0001:00017045       ??1PublicKey@CryptoPP@@UAE@XZ 42918045 f i asn.obj
 0001:00017045       ??1TF_VerifierBase@CryptoPP@@UAE@XZ 42918045 f i dh.obj
 0001:00017045       ??1DL_SignatureMessageEncodingMethod_DSA@CryptoPP@@UAE@XZ 42918045 f i dh.obj
 0001:00017045       ??1?$DL_GroupParameters@VInteger@CryptoPP@@@CryptoPP@@UAE@XZ 42918045 f i dh.obj
 0001:00017045       ??1?$TF_SignatureSchemeBase@VPK_Verifier@CryptoPP@@V?$TF_Base@VTrapdoorFunction@CryptoPP@@VPK_SignatureMessageEncodingMethod@2@@2@@CryptoPP@@UAE@XZ 42918045 f i dh.obj
 0001:00017045       ??_D?$ASN1CryptoMaterial@VPrivateKey@CryptoPP@@@CryptoPP@@QAEXXZ 42918045 f i asn.obj
 0001:00017045       ??1PK_SignatureScheme@CryptoPP@@UAE@XZ 42918045 f i dh.obj
 0001:00017045       ??1?$CustomFlushPropagation@VSink@CryptoPP@@@CryptoPP@@UAE@XZ 42918045 f i asn.obj
 0001:00017045       ??1?$DL_GroupParameters@UEC2NPoint@CryptoPP@@@CryptoPP@@UAE@XZ 42918045 f i dll.obj
 0001:00017045       ??1OutputProxy@CryptoPP@@UAE@XZ 42918045 f i asn.obj
 0001:00017045       ??1?$PK_FixedLengthCryptoSystemImpl@VPK_Decryptor@CryptoPP@@@CryptoPP@@UAE@XZ 42918045 f i dh.obj
 0001:00017045       ??1?$AlgorithmImpl@V?$SimpleKeyingInterfaceImpl@V?$TwoBases@VBlockCipher@CryptoPP@@USKIPJACK_Info@2@@CryptoPP@@V12@@CryptoPP@@V12@@CryptoPP@@UAE@XZ 42918045 f i dll.obj
 0001:00017045       ??1?$TwoBases@VBlockCipher@CryptoPP@@USKIPJACK_Info@2@@CryptoPP@@UAE@XZ 42918045 f i dll.obj
 0001:00017045       ??1?$ASN1CryptoMaterial@VPublicKey@CryptoPP@@@CryptoPP@@UAE@XZ 42918045 f i asn.obj
 0001:00017045       ??1StreamTransformation@CryptoPP@@UAE@XZ 42918045 f i authenc.obj
 0001:00017045       ??1?$EMSA2HashIdLookup@VPK_DeterministicSignatureMessageEncodingMethod@CryptoPP@@@CryptoPP@@UAE@XZ 42918045 f i dll.obj
 0001:00017045       ??1?$TwoBases@VBlockCipher@CryptoPP@@UDES_EDE3_Info@2@@CryptoPP@@UAE@XZ 42918045 f i des.obj
 0001:00017045       ??1?$AbstractGroup@UEC2NPoint@CryptoPP@@@CryptoPP@@UAE@XZ 42918045 f i dll.obj
 0001:00017045       ??1HashTransformation@CryptoPP@@UAE@XZ 42918045 f i authenc.obj
 0001:00017045       ??1?$CFB_CipherTemplate@V?$AbstractPolicyHolder@VCFB_CipherAbstractPolicy@CryptoPP@@VSymmetricCipher@2@@CryptoPP@@@CryptoPP@@UAE@XZ 42918045 f i ccm.obj
 0001:00017045       ??1RandomNumberGenerator@CryptoPP@@UAE@XZ 42918045 f i ccm.obj
 0001:00017045       ??1?$AutoSignaling@V?$InputRejecting@VBufferedTransformation@CryptoPP@@@CryptoPP@@@CryptoPP@@UAE@XZ 42918045 f i asn.obj
 0001:00017045       ??_D?$DL_GroupParameters@VInteger@CryptoPP@@@CryptoPP@@QAEXXZ 42918045 f i dh.obj
 0001:00017045       ??1BlockTransformation@CryptoPP@@UAE@XZ 42918045 f i cryptlib.obj
 0001:00017045       ??1?$DL_GroupParameters@UECPPoint@CryptoPP@@@CryptoPP@@UAE@XZ 42918045 f i dll.obj
 0001:00017045       ??1BlockCipher@CryptoPP@@UAE@XZ 42918045 f i cryptlib.obj
 0001:00017045       ??_D?$DL_GroupParameters@UECPPoint@CryptoPP@@@CryptoPP@@QAEXXZ 42918045 f i dll.obj
 0001:00017045       ??1?$BlockCipherImpl@UDES_EDE2_Info@CryptoPP@@VBlockCipher@2@@CryptoPP@@UAE@XZ 42918045 f i des.obj
 0001:00017045       ??1?$SimpleKeyingInterfaceImpl@V?$TwoBases@VBlockCipher@CryptoPP@@UDES_EDE2_Info@2@@CryptoPP@@V12@@CryptoPP@@UAE@XZ 42918045 f i des.obj
 0001:00017045       ??1?$SimpleKeyingInterfaceImpl@V?$TwoBases@VBlockCipher@CryptoPP@@URijndael_Info@2@@CryptoPP@@V12@@CryptoPP@@UAE@XZ 42918045 f i cryptlib.obj
 0001:00017045       ??1Redirector@CryptoPP@@UAE@XZ 42918045 f i asn.obj
 0001:00017045       ??1Sink@CryptoPP@@UAE@XZ   42918045 f i asn.obj
 0001:00017045       ??1?$TwoBases@VBlockCipher@CryptoPP@@URijndael_Info@2@@CryptoPP@@UAE@XZ 42918045 f i cryptlib.obj
 0001:00017045       ??1PK_Signer@CryptoPP@@UAE@XZ 42918045 f i dh.obj
 0001:00017045       ??1PK_Encryptor@CryptoPP@@UAE@XZ 42918045 f i dh.obj
 0001:00017045       ??1PublicKeyAlgorithm@CryptoPP@@UAE@XZ 42918045 f i dh.obj
 0001:00017045       ??1?$ASN1CryptoMaterial@V?$DL_GroupParameters@VInteger@CryptoPP@@@CryptoPP@@@CryptoPP@@UAE@XZ 42918045 f i dh.obj
 0001:00017045       ??1?$Multichannel@VSink@CryptoPP@@@CryptoPP@@UAE@XZ 42918045 f i channels.obj
 0001:00017045       ??1NullNameValuePairs@CryptoPP@@UAE@XZ 42918045 f i cryptlib.obj
 0001:00017045       ??3@YAXPAX0@Z              42918045 f i algparam.obj
 0001:00017045       ??1?$IteratedHashBase@IVHashTransformation@CryptoPP@@@CryptoPP@@UAE@XZ 42918045 f i cryptlib.obj
 0001:00017045       ??1GeneratableCryptoMaterial@CryptoPP@@UAE@XZ 42918045 f i asn.obj
 0001:00017045       ??1?$BlockCipherImpl@URijndael_Info@CryptoPP@@VBlockCipher@2@@CryptoPP@@UAE@XZ 42918045 f i cryptlib.obj
 0001:00017045       ??1?$PSSR_MEM@$0A@VP1363_MGF1@CryptoPP@@$0?0$0A@$0A@@CryptoPP@@UAE@XZ 42918045 f i fipstest.obj
 0001:00017045       ??1?$TF_SignatureSchemeBase@VPK_Signer@CryptoPP@@V?$TF_Base@VRandomizedTrapdoorFunctionInverse@CryptoPP@@VPK_SignatureMessageEncodingMethod@2@@2@@CryptoPP@@UAE@XZ 42918045 f i dh.obj
 0001:00017045       ??1SimpleKeyingInterface@CryptoPP@@UAE@XZ 42918045 f i authenc.obj
 0001:00017045       ??1?$AlgorithmImpl@V?$SimpleKeyingInterfaceImpl@V?$TwoBases@VBlockCipher@CryptoPP@@UDES_EDE2_Info@2@@CryptoPP@@V12@@CryptoPP@@V12@@CryptoPP@@UAE@XZ 42918045 f i des.obj
 0001:00017045       ??1?$PK_FixedLengthCryptoSystemImpl@VPK_Encryptor@CryptoPP@@@CryptoPP@@UAE@XZ 42918045 f i dh.obj
 0001:00017045       ??1PK_CryptoSystem@CryptoPP@@UAE@XZ 42918045 f i dh.obj
 0001:00017045       ??1Store@CryptoPP@@UAE@XZ  42918045 f i asn.obj
 0001:00017045       ??1?$Bufferless@VSink@CryptoPP@@@CryptoPP@@UAE@XZ 42918045 f i asn.obj
 0001:00017045       ??1CFB_CipherAbstractPolicy@CryptoPP@@UAE@XZ 42918045 f i ccm.obj
 0001:00017045       ??1MessageAuthenticationCode@CryptoPP@@UAE@XZ 42918045 f i authenc.obj
 0001:00017045       ??1?$CustomSignalPropagation@VSink@CryptoPP@@@CryptoPP@@UAE@XZ 42918045 f i asn.obj
 0001:00017045       ??1CryptoMaterial@CryptoPP@@UAE@XZ 42918045 f i asn.obj
 0001:00017045       ??1?$AbstractGroup@VInteger@CryptoPP@@@CryptoPP@@UAE@XZ 42918045 f i dh.obj
 0001:00017045       ??1?$CFB_EncryptionTemplate@V?$AbstractPolicyHolder@VCFB_CipherAbstractPolicy@CryptoPP@@VSymmetricCipher@2@@CryptoPP@@@CryptoPP@@UAE@XZ 42918045 f i ccm.obj
 0001:00017045       ??_DX509PublicKey@CryptoPP@@QAEXXZ 42918045 f i asn.obj
 0001:00017046       ?IsIdentity@?$DL_GroupParameters_EC@VECP@CryptoPP@@@CryptoPP@@UBE_NABUECPPoint@2@@Z 42918046 f i dll.obj
 0001:00017046       ?IsIdentity@?$DL_GroupParameters_EC@VEC2N@CryptoPP@@@CryptoPP@@UBE_NABUEC2NPoint@2@@Z 42918046 f i dll.obj
 0001:0001704f       ?SetPointCompression@?$DL_GroupParameters_EC@VECP@CryptoPP@@@CryptoPP@@QAEX_N@Z 4291804f f i dll.obj
 0001:0001705c       ?GetPointCompression@?$DL_GroupParameters_EC@VECP@CryptoPP@@@CryptoPP@@QBE_NXZ 4291805c f i dll.obj
 0001:00017063       ?SetEncodeAsOID@?$DL_GroupParameters_EC@VECP@CryptoPP@@@CryptoPP@@QAEX_N@Z 42918063 f i dll.obj
 0001:00017070       ?GetEncodeAsOID@?$DL_GroupParameters_EC@VECP@CryptoPP@@@CryptoPP@@QBE_NXZ 42918070 f i dll.obj
 0001:00017077       ?ExponentLength@?$DL_GroupParameters_EC@VECP@CryptoPP@@@CryptoPP@@IBEIXZ 42918077 f i dll.obj
 0001:00017082       ?AccessBasePrecomputation@?$DL_GroupParameters_EC@VECP@CryptoPP@@@CryptoPP@@UAEAAV?$DL_FixedBasePrecomputation@UECPPoint@CryptoPP@@@2@XZ 42918082 f i dll.obj
 0001:00017082       ?AccessBasePrecomputation@?$DL_GroupParametersImpl@V?$EcPrecomputation@VECP@CryptoPP@@@CryptoPP@@V?$DL_FixedBasePrecomputationImpl@UECPPoint@CryptoPP@@@2@V?$DL_GroupParameters@UECPPoint@CryptoPP@@@2@@CryptoPP@@UAEAAV?$DL_FixedBasePrecomputation@UECPPoint@CryptoPP@@@2@XZ 42918082 f i dll.obj
 0001:00017082       ?GetBasePrecomputation@?$DL_GroupParameters_EC@VECP@CryptoPP@@@CryptoPP@@UBEABV?$DL_FixedBasePrecomputation@UECPPoint@CryptoPP@@@2@XZ 42918082 f i dll.obj
 0001:00017082       ?AccessHash@?$HMAC@VSHA1@CryptoPP@@@CryptoPP@@EAEAAVHashTransformation@2@XZ 42918082 f i fipstest.obj
 0001:00017082       ?GetBasePrecomputation@?$DL_GroupParametersImpl@V?$EcPrecomputation@VECP@CryptoPP@@@CryptoPP@@V?$DL_FixedBasePrecomputationImpl@UECPPoint@CryptoPP@@@2@V?$DL_GroupParameters@UECPPoint@CryptoPP@@@2@@CryptoPP@@UBEABV?$DL_FixedBasePrecomputation@UECPPoint@CryptoPP@@@2@XZ 42918082 f i dll.obj
 0001:00017086       ?GetSubgroupOrder@?$DL_GroupParameters_EC@VEC2N@CryptoPP@@@CryptoPP@@UBEABVInteger@2@XZ 42918086 f i dll.obj
 0001:0001708d       ?SetPointCompression@?$DL_GroupParameters_EC@VEC2N@CryptoPP@@@CryptoPP@@QAEX_N@Z 4291808d f i dll.obj
 0001:0001709a       ?GetPointCompression@?$DL_GroupParameters_EC@VEC2N@CryptoPP@@@CryptoPP@@QBE_NXZ 4291809a f i dll.obj
 0001:000170a1       ?SetEncodeAsOID@?$DL_GroupParameters_EC@VEC2N@CryptoPP@@@CryptoPP@@QAEX_N@Z 429180a1 f i dll.obj
 0001:000170ae       ?GetEncodeAsOID@?$DL_GroupParameters_EC@VEC2N@CryptoPP@@@CryptoPP@@QBE_NXZ 429180ae f i dll.obj
 0001:000170b5       ?GetWhat@Exception@CryptoPP@@QBEABV?$basic_string@DU?$char_traits@D@std@@V?$allocator@D@2@@std@@XZ 429180b5 f i dll.obj
 0001:000170b5       ?GetCurve@?$DL_GroupParameters_EC@VEC2N@CryptoPP@@@CryptoPP@@QBEABVEC2N@2@XZ 429180b5 f i dll.obj
 0001:000170b9       ?ExponentLength@?$DL_GroupParameters_EC@VEC2N@CryptoPP@@@CryptoPP@@IBEIXZ 429180b9 f i dll.obj
 0001:000170c4       ?GetKey@?$TF_ObjectImpl@VTF_SignerBase@CryptoPP@@U?$TF_SignatureSchemeOptions@V?$TF_SS@UPSS@CryptoPP@@VSHA1@2@URSA@2@H@CryptoPP@@URSA@2@V?$PSSR_MEM@$0A@VP1363_MGF1@CryptoPP@@$0?0$0A@$0A@@2@VSHA1@2@@2@VInvertibleRSAFunction@2@@CryptoPP@@UBEABVInvertibleRSAFunction@2@XZ 429180c4 f i fipstest.obj
 0001:000170c4       ?AccessKey@?$TF_ObjectImpl@VTF_SignerBase@CryptoPP@@U?$TF_SignatureSchemeOptions@V?$TF_SS@UPSS@CryptoPP@@VSHA1@2@URSA@2@H@CryptoPP@@URSA@2@V?$PSSR_MEM@$0A@VP1363_MGF1@CryptoPP@@$0?0$0A@$0A@@2@VSHA1@2@@2@VInvertibleRSAFunction@2@@CryptoPP@@UAEAAVInvertibleRSAFunction@2@XZ 429180c4 f i fipstest.obj
 0001:000170c4       ?GetKey@?$TF_ObjectImpl@VTF_VerifierBase@CryptoPP@@U?$TF_SignatureSchemeOptions@V?$TF_SS@UP1363_EMSA2@CryptoPP@@VSHA1@2@URSA_ISO@2@H@CryptoPP@@URSA_ISO@2@VEMSA2Pad@2@VSHA1@2@@2@VRSAFunction_ISO@2@@CryptoPP@@UBEABVRSAFunction_ISO@2@XZ 429180c4 f i fipstest.obj
 0001:000170c4       ?GetModulus@RSAFunction@CryptoPP@@QBEABVInteger@2@XZ 429180c4 f i dll.obj
 0001:000170c4       ?AccessAbstractGroupParameters@?$DL_PublicKeyImpl@V?$DL_GroupParameters_EC@VEC2N@CryptoPP@@@CryptoPP@@@CryptoPP@@UAEAAV?$DL_GroupParameters@UEC2NPoint@CryptoPP@@@2@XZ 429180c4 f i dll.obj
 0001:000170c4       ?AccessAbstractGroupParameters@?$DL_PublicKeyImpl@V?$DL_GroupParameters_EC@VECP@CryptoPP@@@CryptoPP@@@CryptoPP@@UAEAAV?$DL_GroupParameters@UECPPoint@CryptoPP@@@2@XZ 429180c4 f i dll.obj
 0001:000170c4       ?GetGroupPrecomputation@?$DL_GroupParametersImpl@V?$EcPrecomputation@VECP@CryptoPP@@@CryptoPP@@V?$DL_FixedBasePrecomputationImpl@UECPPoint@CryptoPP@@@2@V?$DL_GroupParameters@UECPPoint@CryptoPP@@@2@@CryptoPP@@UBEABV?$DL_GroupPrecomputation@UECPPoint@CryptoPP@@@2@XZ 429180c4 f i dll.obj
 0001:000170c4       ?GetKey@?$TF_ObjectImpl@VTF_DecryptorBase@CryptoPP@@U?$TF_CryptoSchemeOptions@V?$TF_ES@V?$OAEP@VSHA1@CryptoPP@@VP1363_MGF1@2@@CryptoPP@@URSA@2@H@CryptoPP@@URSA@2@V?$OAEP@VSHA1@CryptoPP@@VP1363_MGF1@2@@2@@2@VInvertibleRSAFunction@2@@CryptoPP@@UBEABVInvertibleRSAFunction@2@XZ 429180c4 f i rsa.obj
 0001:000170c4       ?GetKey@?$TF_ObjectImpl@VTF_VerifierBase@CryptoPP@@U?$TF_SignatureSchemeOptions@V?$TF_SS@UPKCS1v15@CryptoPP@@VSHA1@2@URSA@2@H@CryptoPP@@URSA@2@VPKCS1v15_SignatureMessageEncodingMethod@2@VSHA1@2@@2@VRSAFunction@2@@CryptoPP@@UBEABVRSAFunction@2@XZ 429180c4 f i fipstest.obj
 0001:000170c4       ?GetGroupPrecomputation@?$DL_GroupParametersImpl@V?$EcPrecomputation@VEC2N@CryptoPP@@@CryptoPP@@V?$DL_FixedBasePrecomputationImpl@UEC2NPoint@CryptoPP@@@2@V?$DL_GroupParameters@UEC2NPoint@CryptoPP@@@2@@CryptoPP@@UBEABV?$DL_GroupPrecomputation@UEC2NPoint@CryptoPP@@@2@XZ 429180c4 f i dll.obj
 0001:000170c4       ?AccessKey@?$TF_ObjectImpl@VTF_VerifierBase@CryptoPP@@U?$TF_SignatureSchemeOptions@V?$TF_SS@UPKCS1v15@CryptoPP@@VSHA1@2@URSA@2@H@CryptoPP@@URSA@2@VPKCS1v15_SignatureMessageEncodingMethod@2@VSHA1@2@@2@VRSAFunction@2@@CryptoPP@@UAEAAVRSAFunction@2@XZ 429180c4 f i fipstest.obj
 0001:000170c4       ?AccessKey@?$TF_ObjectImpl@VTF_SignerBase@CryptoPP@@U?$TF_SignatureSchemeOptions@V?$TF_SS@UPKCS1v15@CryptoPP@@VSHA1@2@URSA@2@H@CryptoPP@@URSA@2@VPKCS1v15_SignatureMessageEncodingMethod@2@VSHA1@2@@2@VInvertibleRSAFunction@2@@CryptoPP@@UAEAAVInvertibleRSAFunction@2@XZ 429180c4 f i fipstest.obj
 0001:000170c4       ?GetDomain@?$QuotientRing@V?$EuclideanDomainOf@VPolynomialMod2@CryptoPP@@@CryptoPP@@@CryptoPP@@QBEABV?$EuclideanDomainOf@VPolynomialMod2@CryptoPP@@@2@XZ 429180c4 f i dll.obj
 0001:000170c4       ?AccessKey@?$TF_ObjectImpl@VTF_VerifierBase@CryptoPP@@U?$TF_SignatureSchemeOptions@V?$TF_SS@UPSS@CryptoPP@@VSHA1@2@URSA@2@H@CryptoPP@@URSA@2@V?$PSSR_MEM@$0A@VP1363_MGF1@CryptoPP@@$0?0$0A@$0A@@2@VSHA1@2@@2@VRSAFunction@2@@CryptoPP@@UAEAAVRSAFunction@2@XZ 429180c4 f i fipstest.obj
 0001:000170c4       ?GetModulus@ModularArithmetic@CryptoPP@@QBEABVInteger@2@XZ 429180c4 f i dh.obj
 0001:000170c4       ?AccessKey@?$TF_ObjectImpl@VTF_EncryptorBase@CryptoPP@@U?$TF_CryptoSchemeOptions@V?$TF_ES@V?$OAEP@VSHA1@CryptoPP@@VP1363_MGF1@2@@CryptoPP@@URSA@2@H@CryptoPP@@URSA@2@V?$OAEP@VSHA1@CryptoPP@@VP1363_MGF1@2@@2@@2@VRSAFunction@2@@CryptoPP@@UAEAAVRSAFunction@2@XZ 429180c4 f i rsa.obj
 0001:000170c4       ?GetKey@?$TF_ObjectImpl@VTF_EncryptorBase@CryptoPP@@U?$TF_CryptoSchemeOptions@V?$TF_ES@V?$OAEP@VSHA1@CryptoPP@@VP1363_MGF1@2@@CryptoPP@@URSA@2@H@CryptoPP@@URSA@2@V?$OAEP@VSHA1@CryptoPP@@VP1363_MGF1@2@@2@@2@VRSAFunction@2@@CryptoPP@@UBEABVRSAFunction@2@XZ 429180c4 f i rsa.obj
 0001:000170c4       ?AccessKey@?$TF_ObjectImpl@VTF_DecryptorBase@CryptoPP@@U?$TF_CryptoSchemeOptions@V?$TF_ES@V?$OAEP@VSHA1@CryptoPP@@VP1363_MGF1@2@@CryptoPP@@URSA@2@H@CryptoPP@@URSA@2@V?$OAEP@VSHA1@CryptoPP@@VP1363_MGF1@2@@2@@2@VInvertibleRSAFunction@2@@CryptoPP@@UAEAAVInvertibleRSAFunction@2@XZ 429180c4 f i rsa.obj
 0001:000170c4       ?GetKey@?$TF_ObjectImpl@VTF_SignerBase@CryptoPP@@U?$TF_SignatureSchemeOptions@V?$TF_SS@UPKCS1v15@CryptoPP@@VSHA1@2@URSA@2@H@CryptoPP@@URSA@2@VPKCS1v15_SignatureMessageEncodingMethod@2@VSHA1@2@@2@VInvertibleRSAFunction@2@@CryptoPP@@UBEABVInvertibleRSAFunction@2@XZ 429180c4 f i fipstest.obj
 0001:000170c4       ?GetSubgroupOrder@DL_GroupParameters_IntegerBased@CryptoPP@@UBEABVInteger@2@XZ 429180c4 f i dh.obj
 0001:000170c4       ?GetAbstractGroupParameters@?$DL_PublicKeyImpl@V?$DL_GroupParameters_EC@VECP@CryptoPP@@@CryptoPP@@@CryptoPP@@UBEABV?$DL_GroupParameters@UECPPoint@CryptoPP@@@2@XZ 429180c4 f i dll.obj
 0001:000170c4       ?AccessKey@?$TF_ObjectImpl@VTF_VerifierBase@CryptoPP@@U?$TF_SignatureSchemeOptions@V?$TF_SS@UP1363_EMSA2@CryptoPP@@VSHA1@2@URSA_ISO@2@H@CryptoPP@@URSA_ISO@2@VEMSA2Pad@2@VSHA1@2@@2@VRSAFunction_ISO@2@@CryptoPP@@UAEAAVRSAFunction_ISO@2@XZ 429180c4 f i fipstest.obj
 0001:000170c4       ?GetKey@?$TF_ObjectImpl@VTF_VerifierBase@CryptoPP@@U?$TF_SignatureSchemeOptions@V?$TF_SS@UPSS@CryptoPP@@VSHA1@2@URSA@2@H@CryptoPP@@URSA@2@V?$PSSR_MEM@$0A@VP1363_MGF1@CryptoPP@@$0?0$0A@$0A@@2@VSHA1@2@@2@VRSAFunction@2@@CryptoPP@@UBEABVRSAFunction@2@XZ 429180c4 f i fipstest.obj
 0001:000170c4       ?GetKey@?$TF_ObjectImpl@VTF_SignerBase@CryptoPP@@U?$TF_SignatureSchemeOptions@V?$TF_SS@UP1363_EMSA2@CryptoPP@@VSHA1@2@URSA_ISO@2@H@CryptoPP@@URSA_ISO@2@VEMSA2Pad@2@VSHA1@2@@2@VInvertibleRSAFunction_ISO@2@@CryptoPP@@UBEABVInvertibleRSAFunction_ISO@2@XZ 429180c4 f i fipstest.obj
 0001:000170c4       ?GetAbstractGroupParameters@?$DL_PublicKeyImpl@V?$DL_GroupParameters_EC@VEC2N@CryptoPP@@@CryptoPP@@@CryptoPP@@UBEABV?$DL_GroupParameters@UEC2NPoint@CryptoPP@@@2@XZ 429180c4 f i dll.obj
 0001:000170c4       ?AccessKey@?$TF_ObjectImpl@VTF_SignerBase@CryptoPP@@U?$TF_SignatureSchemeOptions@V?$TF_SS@UP1363_EMSA2@CryptoPP@@VSHA1@2@URSA_ISO@2@H@CryptoPP@@URSA_ISO@2@VEMSA2Pad@2@VSHA1@2@@2@VInvertibleRSAFunction_ISO@2@@CryptoPP@@UAEAAVInvertibleRSAFunction_ISO@2@XZ 429180c4 f i fipstest.obj
 0001:000170c8       ?GetBasePrecomputation@?$DL_GroupParameters_EC@VEC2N@CryptoPP@@@CryptoPP@@UBEABV?$DL_FixedBasePrecomputation@UEC2NPoint@CryptoPP@@@2@XZ 429180c8 f i dll.obj
 0001:000170c8       ?AccessBasePrecomputation@?$DL_GroupParametersImpl@V?$EcPrecomputation@VEC2N@CryptoPP@@@CryptoPP@@V?$DL_FixedBasePrecomputationImpl@UEC2NPoint@CryptoPP@@@2@V?$DL_GroupParameters@UEC2NPoint@CryptoPP@@@2@@CryptoPP@@UAEAAV?$DL_FixedBasePrecomputation@UEC2NPoint@CryptoPP@@@2@XZ 429180c8 f i dll.obj
 0001:000170c8       ?GetBasePrecomputation@?$DL_GroupParametersImpl@V?$EcPrecomputation@VEC2N@CryptoPP@@@CryptoPP@@V?$DL_FixedBasePrecomputationImpl@UEC2NPoint@CryptoPP@@@2@V?$DL_GroupParameters@UEC2NPoint@CryptoPP@@@2@@CryptoPP@@UBEABV?$DL_FixedBasePrecomputation@UEC2NPoint@CryptoPP@@@2@XZ 429180c8 f i dll.obj
 0001:000170c8       ?AccessBasePrecomputation@?$DL_GroupParameters_EC@VEC2N@CryptoPP@@@CryptoPP@@UAEAAV?$DL_FixedBasePrecomputation@UEC2NPoint@CryptoPP@@@2@XZ 429180c8 f i dll.obj
 0001:000170cc       ?SavePrecomputation@?$DL_GroupParameters@UECPPoint@CryptoPP@@@CryptoPP@@UBEXAAVBufferedTransformation@2@@Z 429180cc f i dll.obj
 0001:000170cc       ?SavePrecomputation@?$DL_GroupParameters@UEC2NPoint@CryptoPP@@@CryptoPP@@UBEXAAVBufferedTransformation@2@@Z 429180cc f i dll.obj
 0001:000170cc       ?SavePrecomputation@?$DL_GroupParameters@VInteger@CryptoPP@@@CryptoPP@@UBEXAAVBufferedTransformation@2@@Z 429180cc f i dh.obj
 0001:000170f4       ?ParametersChanged@?$DL_GroupParameters@VInteger@CryptoPP@@@CryptoPP@@IAEXXZ 429180f4 f i dh.obj
 0001:000170f4       ?ParametersChanged@?$DL_GroupParameters@UEC2NPoint@CryptoPP@@@CryptoPP@@IAEXXZ 429180f4 f i dll.obj
 0001:000170f4       ?ParametersChanged@?$DL_GroupParameters@UECPPoint@CryptoPP@@@CryptoPP@@IAEXXZ 429180f4 f i dll.obj
 0001:000170f9       ?Validate@?$DL_PublicKeyImpl@V?$DL_GroupParameters_EC@VECP@CryptoPP@@@CryptoPP@@@CryptoPP@@UBE_NAAVRandomNumberGenerator@2@I@Z 429180f9 f i dll.obj
 0001:00017156       ?Precompute@?$DL_PublicKeyImpl@V?$DL_GroupParameters_EC@VECP@CryptoPP@@@CryptoPP@@@CryptoPP@@UAEXI@Z 42918156 f i dll.obj
 0001:000171bc       ?LoadPrecomputation@?$DL_PublicKeyImpl@V?$DL_GroupParameters_EC@VECP@CryptoPP@@@CryptoPP@@@CryptoPP@@UAEXAAVBufferedTransformation@2@@Z 429181bc f i dll.obj
 0001:00017209       ?SavePrecomputation@?$DL_PublicKeyImpl@V?$DL_GroupParameters_EC@VECP@CryptoPP@@@CryptoPP@@@CryptoPP@@UBEXAAVBufferedTransformation@2@@Z 42918209 f i dll.obj
 0001:00017255       ?AccessPublicPrecomputation@?$DL_PublicKeyImpl@V?$DL_GroupParameters_EC@VECP@CryptoPP@@@CryptoPP@@@CryptoPP@@UAEAAV?$DL_FixedBasePrecomputation@UECPPoint@CryptoPP@@@2@XZ 42918255 f i dll.obj
 0001:00017255       ?GetPublicPrecomputation@?$DL_PublicKeyImpl@V?$DL_GroupParameters_EC@VECP@CryptoPP@@@CryptoPP@@@CryptoPP@@UBEABV?$DL_FixedBasePrecomputation@UECPPoint@CryptoPP@@@2@XZ 42918255 f i dll.obj
 0001:0001725c       ?Validate@?$DL_PublicKeyImpl@V?$DL_GroupParameters_EC@VEC2N@CryptoPP@@@CryptoPP@@@CryptoPP@@UBE_NAAVRandomNumberGenerator@2@I@Z 4291825c f i dll.obj
 0001:000172b9       ?Precompute@?$DL_PublicKeyImpl@V?$DL_GroupParameters_EC@VEC2N@CryptoPP@@@CryptoPP@@@CryptoPP@@UAEXI@Z 429182b9 f i dll.obj
 0001:0001731f       ?LoadPrecomputation@?$DL_PublicKeyImpl@V?$DL_GroupParameters_EC@VEC2N@CryptoPP@@@CryptoPP@@@CryptoPP@@UAEXAAVBufferedTransformation@2@@Z 4291831f f i dll.obj
 0001:0001736c       ?SavePrecomputation@?$DL_PublicKeyImpl@V?$DL_GroupParameters_EC@VEC2N@CryptoPP@@@CryptoPP@@@CryptoPP@@UBEXAAVBufferedTransformation@2@@Z 4291836c f i dll.obj
 0001:000173b8       ?AccessPublicPrecomputation@?$DL_PublicKeyImpl@V?$DL_GroupParameters_EC@VEC2N@CryptoPP@@@CryptoPP@@@CryptoPP@@UAEAAV?$DL_FixedBasePrecomputation@UEC2NPoint@CryptoPP@@@2@XZ 429183b8 f i dll.obj
 0001:000173b8       ?GetPublicPrecomputation@?$DL_PublicKeyImpl@V?$DL_GroupParameters_EC@VEC2N@CryptoPP@@@CryptoPP@@@CryptoPP@@UBEABV?$DL_FixedBasePrecomputation@UEC2NPoint@CryptoPP@@@2@XZ 429183b8 f i dll.obj
 0001:000173bf       ?Precompute@?$DL_PrivateKeyImpl@V?$DL_GroupParameters_EC@VECP@CryptoPP@@@CryptoPP@@@CryptoPP@@UAEXI@Z 429183bf f i dll.obj
 0001:000173d9       ?LoadPrecomputation@?$DL_PrivateKeyImpl@V?$DL_GroupParameters_EC@VECP@CryptoPP@@@CryptoPP@@@CryptoPP@@UAEXAAVBufferedTransformation@2@@Z 429183d9 f i dll.obj
 0001:000173f3       ?SavePrecomputation@?$DL_PrivateKeyImpl@V?$DL_GroupParameters_EC@VECP@CryptoPP@@@CryptoPP@@@CryptoPP@@UBEXAAVBufferedTransformation@2@@Z 429183f3 f i dll.obj
 0001:0001740c       ?GetPrivateExponent@?$DL_PrivateKeyImpl@V?$DL_GroupParameters_EC@VECP@CryptoPP@@@CryptoPP@@@CryptoPP@@UBEABVInteger@2@XZ 4291840c f i dll.obj
 0001:00017413       ?SetPrivateExponent@?$DL_PrivateKeyImpl@V?$DL_GroupParameters_EC@VECP@CryptoPP@@@CryptoPP@@@CryptoPP@@UAEXABVInteger@2@@Z 42918413 f i dll.obj
 0001:0001741e       ?BERDecodePrivateKey@?$DL_PrivateKeyImpl@V?$DL_GroupParameters_EC@VECP@CryptoPP@@@CryptoPP@@@CryptoPP@@UAEXAAVBufferedTransformation@2@_NI@Z 4291841e f i dll.obj
 0001:00017430       ?DEREncodePrivateKey@?$DL_PrivateKeyImpl@V?$DL_GroupParameters_EC@VECP@CryptoPP@@@CryptoPP@@@CryptoPP@@UBEXAAVBufferedTransformation@2@@Z 42918430 f i dll.obj
 0001:0001743b       ?AccessGroupParameters@?$DL_KeyImpl@VPKCS8PrivateKey@CryptoPP@@V?$DL_GroupParameters_EC@VECP@CryptoPP@@@2@VOID@2@@CryptoPP@@QAEAAV?$DL_GroupParameters_EC@VECP@CryptoPP@@@2@XZ 4291843b f i dll.obj
 0001:0001743b       ?GetGroupParameters@?$DL_KeyImpl@VPKCS8PrivateKey@CryptoPP@@V?$DL_GroupParameters_EC@VEC2N@CryptoPP@@@2@VOID@2@@CryptoPP@@QBEABV?$DL_GroupParameters_EC@VEC2N@CryptoPP@@@2@XZ 4291843b f i dll.obj
 0001:0001743b       ?AccessGroupParameters@?$DL_KeyImpl@VPKCS8PrivateKey@CryptoPP@@V?$DL_GroupParameters_EC@VEC2N@CryptoPP@@@2@VOID@2@@CryptoPP@@QAEAAV?$DL_GroupParameters_EC@VEC2N@CryptoPP@@@2@XZ 4291843b f i dll.obj
 0001:0001743b       ?AccessGroupParameters@?$DL_KeyImpl@VPKCS8PrivateKey@CryptoPP@@VDL_GroupParameters_DSA@2@VOID@2@@CryptoPP@@QAEAAVDL_GroupParameters_DSA@2@XZ 4291843b f i dh.obj
 0001:0001743b       ?GetGroupParameters@?$DL_KeyImpl@VPKCS8PrivateKey@CryptoPP@@VDL_GroupParameters_DSA@2@VOID@2@@CryptoPP@@QBEABVDL_GroupParameters_DSA@2@XZ 4291843b f i dh.obj
 0001:0001743b       ?GetGroupParameters@?$DL_KeyImpl@VPKCS8PrivateKey@CryptoPP@@V?$DL_GroupParameters_EC@VECP@CryptoPP@@@2@VOID@2@@CryptoPP@@QBEABV?$DL_GroupParameters_EC@VECP@CryptoPP@@@2@XZ 4291843b f i dll.obj
 0001:0001743f       ?Precompute@?$DL_PrivateKeyImpl@V?$DL_GroupParameters_EC@VEC2N@CryptoPP@@@CryptoPP@@@CryptoPP@@UAEXI@Z 4291843f f i dll.obj
 0001:00017459       ?LoadPrecomputation@?$DL_PrivateKeyImpl@V?$DL_GroupParameters_EC@VEC2N@CryptoPP@@@CryptoPP@@@CryptoPP@@UAEXAAVBufferedTransformation@2@@Z 42918459 f i dll.obj
 0001:00017473       ?SavePrecomputation@?$DL_PrivateKeyImpl@V?$DL_GroupParameters_EC@VEC2N@CryptoPP@@@CryptoPP@@@CryptoPP@@UBEXAAVBufferedTransformation@2@@Z 42918473 f i dll.obj
 0001:0001748c       ?GetPrivateExponent@?$DL_PrivateKeyImpl@V?$DL_GroupParameters_EC@VEC2N@CryptoPP@@@CryptoPP@@@CryptoPP@@UBEABVInteger@2@XZ 4291848c f i dll.obj
 0001:00017493       ?SetPrivateExponent@?$DL_PrivateKeyImpl@V?$DL_GroupParameters_EC@VEC2N@CryptoPP@@@CryptoPP@@@CryptoPP@@UAEXABVInteger@2@@Z 42918493 f i dll.obj
 0001:0001749e       ?BERDecodePrivateKey@?$DL_PrivateKeyImpl@V?$DL_GroupParameters_EC@VEC2N@CryptoPP@@@CryptoPP@@@CryptoPP@@UAEXAAVBufferedTransformation@2@_NI@Z 4291849e f i dll.obj
 0001:000174b0       ?DEREncodePrivateKey@?$DL_PrivateKeyImpl@V?$DL_GroupParameters_EC@VEC2N@CryptoPP@@@CryptoPP@@@CryptoPP@@UBEXAAVBufferedTransformation@2@@Z 429184b0 f i dll.obj
 0001:000174bb       ?Initialize@?$DL_PrivateKey_EC@VEC2N@CryptoPP@@@CryptoPP@@QAEXAAVRandomNumberGenerator@2@ABV?$DL_GroupParameters_EC@VEC2N@CryptoPP@@@2@@Z 429184bb f i dll.obj
 0001:000174bb       ?Initialize@?$DL_PrivateKey_EC@VECP@CryptoPP@@@CryptoPP@@QAEXAAVRandomNumberGenerator@2@ABV?$DL_GroupParameters_EC@VECP@CryptoPP@@@2@@Z 429184bb f i dll.obj
 0001:000174dc       ?StaticAlgorithmName@?$DL_Algorithm_GDSA@UECPPoint@CryptoPP@@@CryptoPP@@SAPBDXZ 429184dc f i dll.obj
 0001:000174dc       ?StaticAlgorithmName@?$DL_Algorithm_GDSA@VInteger@CryptoPP@@@CryptoPP@@SAPBDXZ 429184dc f i dh.obj
 0001:000174dc       ?StaticAlgorithmName@?$DL_Algorithm_GDSA@UEC2NPoint@CryptoPP@@@CryptoPP@@SAPBDXZ 429184dc f i dll.obj
 0001:000174e2       ?IsolatedInitialize@?$SourceTemplate@VStringStore@CryptoPP@@@CryptoPP@@UAEXABVNameValuePairs@2@@Z 429184e2 f i asn.obj
 0001:000174e2       ?IsolatedInitialize@?$SourceTemplate@VFileStore@CryptoPP@@@CryptoPP@@UAEXABVNameValuePairs@2@@Z 429184e2 f i dll.obj
 0001:000174e2       ?IsolatedInitialize@?$SourceTemplate@VRandomNumberStore@CryptoPP@@@CryptoPP@@UAEXABVNameValuePairs@2@@Z 429184e2 f i asn.obj
 0001:000174ea       ?PumpAll2@?$SourceTemplate@VStringStore@CryptoPP@@@CryptoPP@@UAEI_N@Z 429184ea f i asn.obj
 0001:000174ea       ?PumpAll2@?$SourceTemplate@VRandomNumberStore@CryptoPP@@@CryptoPP@@UAEI_N@Z 429184ea f i asn.obj
 0001:000174ea       ?PumpAll2@?$SourceTemplate@VFileStore@CryptoPP@@@CryptoPP@@UAEI_N@Z 429184ea f i dll.obj
 0001:0001750b       ?SetAutoSignalPropagation@?$SourceTemplate@VRandomNumberStore@CryptoPP@@@CryptoPP@@UAEXH@Z 4291850b f i asn.obj
 0001:0001750b       ?SetAutoSignalPropagation@?$SourceTemplate@VStringStore@CryptoPP@@@CryptoPP@@UAEXH@Z 4291850b f i asn.obj
 0001:0001750b       ?SetAutoSignalPropagation@?$SourceTemplate@VFileStore@CryptoPP@@@CryptoPP@@UAEXH@Z 4291850b f i dll.obj
 0001:00017513       ?GetAutoSignalPropagation@?$SourceTemplate@VFileStore@CryptoPP@@@CryptoPP@@UBEHXZ 42918513 f i dll.obj
 0001:00017513       ?GetAutoSignalPropagation@?$SourceTemplate@VStringStore@CryptoPP@@@CryptoPP@@UBEHXZ 42918513 f i asn.obj
 0001:00017513       ?GetAutoSignalPropagation@?$SourceTemplate@VRandomNumberStore@CryptoPP@@@CryptoPP@@UBEHXZ 42918513 f i asn.obj
 0001:0001751b       ?MessageSeriesEnd@?$Multichannel@VSink@CryptoPP@@@CryptoPP@@UAE_NH_N@Z 4291851b f i channels.obj
 0001:0001751b       ?MessageSeriesEnd@?$Multichannel@VFilter@CryptoPP@@@CryptoPP@@UAE_NH_N@Z 4291851b f i dll.obj
 0001:00017533       ?CreatePutSpace@?$Multichannel@VSink@CryptoPP@@@CryptoPP@@UAEPAEAAI@Z 42918533 f i channels.obj
 0001:00017533       ?CreatePutSpace@?$Multichannel@VFilter@CryptoPP@@@CryptoPP@@UAEPAEAAI@Z 42918533 f i dll.obj
 0001:00017547       ?ChannelCreatePutSpace@?$Multichannel@VSink@CryptoPP@@@CryptoPP@@UAEPAEABV?$basic_string@DU?$char_traits@D@std@@V?$allocator@D@2@@std@@AAI@Z 42918547 f i channels.obj
 0001:00017547       ?ChannelCreatePutSpace@?$Multichannel@VFilter@CryptoPP@@@CryptoPP@@UAEPAEABV?$basic_string@DU?$char_traits@D@std@@V?$allocator@D@2@@std@@AAI@Z 42918547 f i dll.obj
 0001:00017553       ?ChannelPutModifiable@?$Multichannel@VFilter@CryptoPP@@@CryptoPP@@QAE_NABV?$basic_string@DU?$char_traits@D@std@@V?$allocator@D@2@@std@@PAEI@Z 42918553 f i dll.obj
 0001:00017553       ?ChannelPutModifiable@?$Multichannel@VSink@CryptoPP@@@CryptoPP@@QAE_NABV?$basic_string@DU?$char_traits@D@std@@V?$allocator@D@2@@std@@PAEI@Z 42918553 f i channels.obj
 0001:00017570       ?BlockSize@?$BlockCipherImpl@USKIPJACK_Info@CryptoPP@@VBlockCipher@2@@CryptoPP@@UBEIXZ 42918570 f i dll.obj
 0001:00017570       ?BlockSize@?$BlockCipherImpl@UDES_EDE3_Info@CryptoPP@@VBlockCipher@2@@CryptoPP@@UBEIXZ 42918570 f i des.obj
 0001:00017570       ?BlockSize@?$BlockCipherImpl@UDES_EDE2_Info@CryptoPP@@VBlockCipher@2@@CryptoPP@@UBEIXZ 42918570 f i des.obj
 0001:00017570       ?IVSize@CCM_Base@CryptoPP@@UBEIXZ 42918570 f i ccm.obj
 0001:00017574       ?MaxKeyLength@?$SimpleKeyingInterfaceImpl@V?$TwoBases@VBlockCipher@CryptoPP@@USKIPJACK_Info@2@@CryptoPP@@V12@@CryptoPP@@UBEIXZ 42918574 f i dll.obj
 0001:00017574       ?DefaultKeyLength@?$SimpleKeyingInterfaceImpl@V?$TwoBases@VBlockCipher@CryptoPP@@USKIPJACK_Info@2@@CryptoPP@@V12@@CryptoPP@@UBEIXZ 42918574 f i dll.obj
 0001:00017574       ?MinKeyLength@?$SimpleKeyingInterfaceImpl@V?$TwoBases@VBlockCipher@CryptoPP@@USKIPJACK_Info@2@@CryptoPP@@V12@@CryptoPP@@UBEIXZ 42918574 f i dll.obj
 0001:00017578       ??0MultiplicativeGroupT@?$AbstractRing@VPolynomialMod2@CryptoPP@@@CryptoPP@@QAE@XZ 42918578 f i dll.obj
 0001:00017581       ?capacity@?$vector@UEC2NPoint@CryptoPP@@V?$allocator@UEC2NPoint@CryptoPP@@@std@@@std@@QBEIXZ 42918581 f i dll.obj
 0001:00017597       ?size@?$vector@UEC2NPoint@CryptoPP@@V?$allocator@UEC2NPoint@CryptoPP@@@std@@@std@@QBEIXZ 42918597 f i dll.obj
 0001:000175ad       ?capacity@?$vector@UECPPoint@CryptoPP@@V?$allocator@UECPPoint@CryptoPP@@@std@@@std@@QBEIXZ 429185ad f i dll.obj
 0001:000175c3       ?size@?$vector@UECPPoint@CryptoPP@@V?$allocator@UECPPoint@CryptoPP@@@std@@@std@@QBEIXZ 429185c3 f i dll.obj
 0001:000175d9       ??Dconst_iterator@?$deque@_KV?$allocator@_K@std@@@std@@QBEAB_KXZ 429185d9 f i dll.obj
 0001:000175fc       ??Dconst_iterator@?$deque@IV?$allocator@I@std@@@std@@QBEABIXZ 429185fc f i dll.obj
 0001:00017622       ?Resynchronize@?$CFB_CipherTemplate@V?$AbstractPolicyHolder@VCFB_CipherAbstractPolicy@CryptoPP@@VSymmetricCipher@2@@CryptoPP@@@CryptoPP@@UAEXPBEH@Z 42918622 f i dll.obj
 0001:00017655       ?UncheckedSetKey@?$CFB_CipherTemplate@V?$AbstractPolicyHolder@VCFB_CipherAbstractPolicy@CryptoPP@@VSymmetricCipher@2@@CryptoPP@@@CryptoPP@@MAEXPBEIABVNameValuePairs@2@@Z 42918655 f i dll.obj
 0001:000176a8       ?CombineMessageAndShiftRegister@?$CFB_EncryptionTemplate@V?$AbstractPolicyHolder@VCFB_CipherAbstractPolicy@CryptoPP@@VSymmetricCipher@2@@CryptoPP@@@CryptoPP@@EAEXPAE0PBEI@Z 429186a8 f i dll.obj
 0001:000176a8       ?CombineMessageAndShiftRegister@?$CFB_EncryptionTemplate@V?$AbstractPolicyHolder@VCFB_CipherAbstractPolicy@CryptoPP@@VCFB_ModePolicy@2@@CryptoPP@@@CryptoPP@@EAEXPAE0PBEI@Z 429186a8 f i dll.obj
 0001:000176ce       ?CombineMessageAndShiftRegister@?$CFB_DecryptionTemplate@V?$AbstractPolicyHolder@VCFB_CipherAbstractPolicy@CryptoPP@@VCFB_ModePolicy@2@@CryptoPP@@@CryptoPP@@EAEXPAE0PBEI@Z 429186ce f i dll.obj
 0001:000176ce       ?CombineMessageAndShiftRegister@?$CFB_DecryptionTemplate@V?$AbstractPolicyHolder@VCFB_CipherAbstractPolicy@CryptoPP@@VSymmetricCipher@2@@CryptoPP@@@CryptoPP@@EAEXPAE0PBEI@Z 429186ce f i dll.obj
 0001:00017706       ?Resynchronize@?$CFB_CipherTemplate@V?$AbstractPolicyHolder@VCFB_CipherAbstractPolicy@CryptoPP@@VCFB_ModePolicy@2@@CryptoPP@@@CryptoPP@@UAEXPBEH@Z 42918706 f i dll.obj
 0001:00017739       ?UncheckedSetKey@?$CFB_CipherTemplate@V?$AbstractPolicyHolder@VCFB_CipherAbstractPolicy@CryptoPP@@VCFB_ModePolicy@2@@CryptoPP@@@CryptoPP@@MAEXPBEIABVNameValuePairs@2@@Z 42918739 f i dll.obj
 0001:0001778c       ?Accumulate@?$AbstractGroup@VInteger@CryptoPP@@@CryptoPP@@UBEAAVInteger@2@AAV32@ABV32@@Z 4291878c f i dll.obj
 0001:000177a6       ?Reduce@?$AbstractGroup@VInteger@CryptoPP@@@CryptoPP@@UBEAAVInteger@2@AAV32@ABV32@@Z 429187a6 f i dll.obj
 0001:000177c0       ?Square@?$AbstractRing@VPolynomialMod2@CryptoPP@@@CryptoPP@@UBEABVPolynomialMod2@2@ABV32@@Z 429187c0 f i dll.obj
 0001:000177c0       ?Square@?$AbstractRing@VInteger@CryptoPP@@@CryptoPP@@UBEABVInteger@2@ABV32@@Z 429187c0 f i dll.obj
 0001:000177d0       ?Accumulate@?$AbstractGroup@VPolynomialMod2@CryptoPP@@@CryptoPP@@UBEAAVPolynomialMod2@2@AAV32@ABV32@@Z 429187d0 f i dll.obj
 0001:000177ea       ?Reduce@?$AbstractGroup@VPolynomialMod2@CryptoPP@@@CryptoPP@@UBEAAVPolynomialMod2@2@AAV32@ABV32@@Z 429187ea f i dll.obj
 0001:00017804       ?Accumulate@?$AbstractGroup@UEC2NPoint@CryptoPP@@@CryptoPP@@UBEAAUEC2NPoint@2@AAU32@ABU32@@Z 42918804 f i dll.obj
 0001:0001781e       ?Reduce@?$AbstractGroup@UEC2NPoint@CryptoPP@@@CryptoPP@@UBEAAUEC2NPoint@2@AAU32@ABU32@@Z 4291881e f i dll.obj
 0001:00017838       ??1?$member_ptr@VModularArithmetic@CryptoPP@@@CryptoPP@@QAE@XZ 42918838 f i dll.obj
 0001:00017838       ??1?$auto_ptr@VHashTransformation@CryptoPP@@@std@@QAE@XZ 42918838 f i oaep.obj
 0001:00017838       ??1?$auto_ptr@VMaskGeneratingFunction@CryptoPP@@@std@@QAE@XZ 42918838 f i oaep.obj
 0001:00017838       ??1?$auto_ptr@VPK_MessageAccumulator@CryptoPP@@@std@@QAE@XZ 42918838 f i cryptlib.obj
 0001:00017838       ??1?$member_ptr@VKDF2_RNG@CryptoPP@@@CryptoPP@@QAE@XZ 42918838 f i integer.obj
 0001:00017838       ??1?$member_ptr@VBlockCipher@CryptoPP@@@CryptoPP@@QAE@XZ 42918838 f i cryptlib.obj
 0001:00017838       ??1?$auto_ptr@VOutputProxy@CryptoPP@@@std@@QAE@XZ 42918838 f i filters.obj
 0001:00017838       ??1?$auto_ptr@VECP@CryptoPP@@@std@@QAE@XZ 42918838 f i dll.obj
 0001:00017838       ??1?$member_ptr@VPK_MessageAccumulator@CryptoPP@@@CryptoPP@@QAE@XZ 42918838 f i asn.obj
 0001:00017838       ??1?$auto_ptr@VEC2N@CryptoPP@@@std@@QAE@XZ 42918838 f i dll.obj
 0001:00017838       ??1?$member_ptr@VECP@CryptoPP@@@CryptoPP@@QAE@XZ 42918838 f i dll.obj
 0001:00017838       ??1?$member_ptr@VGF2NP@CryptoPP@@@CryptoPP@@QAE@XZ 42918838 f i dll.obj
 0001:00017838       ??1?$member_ptr@VAlgorithmParametersBase@CryptoPP@@@CryptoPP@@QAE@XZ 42918838 f i algparam.obj
 0001:00017838       ??1?$member_ptr@VBufferedTransformation@CryptoPP@@@CryptoPP@@QAE@XZ 42918838 f i asn.obj
 0001:00017838       ??1?$auto_ptr@VPK_MessageAccumulatorBase@CryptoPP@@@std@@QAE@XZ 42918838 f i dh.obj
 0001:00017838       ??1?$auto_ptr@VMessageAuthenticationCode@CryptoPP@@@std@@QAE@XZ 42918838 f i fipstest.obj
 0001:00017838       ??1?$member_ptr@VMontgomeryRepresentation@CryptoPP@@@CryptoPP@@QAE@XZ 42918838 f i dh.obj
 0001:00017838       ??1?$member_ptr@VRandomNumberGenerator@CryptoPP@@@CryptoPP@@QAE@XZ 42918838 f i cryptlib.obj
 0001:00017838       ??1?$member_ptr@VBlockTransformation@CryptoPP@@@CryptoPP@@QAE@XZ 42918838 f i cryptlib.obj
 0001:00017845       ??4?$clonable_ptr@VGF2NP@CryptoPP@@@CryptoPP@@QAEAAV01@ABV01@@Z 42918845 f i dll.obj
 0001:00017845       ??4?$clonable_ptr@VModularArithmetic@CryptoPP@@@CryptoPP@@QAEAAV01@ABV01@@Z 42918845 f i dll.obj
 0001:00017873       ?Accumulate@?$AbstractGroup@UECPPoint@CryptoPP@@@CryptoPP@@UBEAAUECPPoint@2@AAU32@ABU32@@Z 42918873 f i dll.obj
 0001:0001788d       ?Reduce@?$AbstractGroup@UECPPoint@CryptoPP@@@CryptoPP@@UBEAAUECPPoint@2@AAU32@ABU32@@Z 4291888d f i dll.obj
 0001:000178a7       ??4?$value_ptr@VECP@CryptoPP@@@CryptoPP@@QAEAAV01@ABV01@@Z 429188a7 f i dll.obj
 0001:00017904       ?SimultaneousExponentiate@?$DL_GroupParameters_EC@VEC2N@CryptoPP@@@CryptoPP@@UBEXPAUEC2NPoint@2@ABU32@PBVInteger@2@I@Z 42918904 f i dll.obj
 0001:0001790c       ?DEREncodePublicKey@?$DL_PublicKey_EC@VEC2N@CryptoPP@@@CryptoPP@@UBEXAAVBufferedTransformation@2@@Z 4291890c f i dll.obj
 0001:00017938       ??1?$member_ptr@V?$basic_ifstream@DU?$char_traits@D@std@@@std@@@CryptoPP@@QAE@XZ 42918938 f i dll.obj
 0001:00017938       ??1?$member_ptr@V?$basic_ofstream@DU?$char_traits@D@std@@@std@@@CryptoPP@@QAE@XZ 42918938 f i dll.obj
 0001:0001794c       ??$GetValueHelper@V?$DL_PublicKey@UECPPoint@CryptoPP@@@CryptoPP@@@CryptoPP@@YA?AV?$GetValueHelperClass@V?$DL_PublicKey@UECPPoint@CryptoPP@@@CryptoPP@@V12@@0@PBV?$DL_PublicKey@UECPPoint@CryptoPP@@@0@PBDABVtype_info@@PAXPBVNameValuePairs@0@@Z 4291894c f i dll.obj
 0001:0001796b       ??$GetValueHelper@V?$DL_PublicKey@UEC2NPoint@CryptoPP@@@CryptoPP@@@CryptoPP@@YA?AV?$GetValueHelperClass@V?$DL_PublicKey@UEC2NPoint@CryptoPP@@@CryptoPP@@V12@@0@PBV?$DL_PublicKey@UEC2NPoint@CryptoPP@@@0@PBDABVtype_info@@PAXPBVNameValuePairs@0@@Z 4291896b f i dll.obj
 0001:0001798a       ??$GetValueHelper@V?$DL_PrivateKey@UECPPoint@CryptoPP@@@CryptoPP@@@CryptoPP@@YA?AV?$GetValueHelperClass@V?$DL_PrivateKey@UECPPoint@CryptoPP@@@CryptoPP@@V12@@0@PBV?$DL_PrivateKey@UECPPoint@CryptoPP@@@0@PBDABVtype_info@@PAXPBVNameValuePairs@0@@Z 4291898a f i dll.obj
 0001:000179a9       ??$AssignFromHelper@V?$DL_PrivateKey@UECPPoint@CryptoPP@@@CryptoPP@@@CryptoPP@@YA?AV?$AssignFromHelperClass@V?$DL_PrivateKey@UECPPoint@CryptoPP@@@CryptoPP@@V12@@0@PAV?$DL_PrivateKey@UECPPoint@CryptoPP@@@0@ABVNameValuePairs@0@@Z 429189a9 f i dll.obj
 0001:000179bf       ??$GetValueHelper@V?$DL_PrivateKey@UEC2NPoint@CryptoPP@@@CryptoPP@@@CryptoPP@@YA?AV?$GetValueHelperClass@V?$DL_PrivateKey@UEC2NPoint@CryptoPP@@@CryptoPP@@V12@@0@PBV?$DL_PrivateKey@UEC2NPoint@CryptoPP@@@0@PBDABVtype_info@@PAXPBVNameValuePairs@0@@Z 429189bf f i dll.obj
 0001:000179de       ??$AssignFromHelper@V?$DL_PrivateKey@UEC2NPoint@CryptoPP@@@CryptoPP@@@CryptoPP@@YA?AV?$AssignFromHelperClass@V?$DL_PrivateKey@UEC2NPoint@CryptoPP@@@CryptoPP@@V12@@0@PAV?$DL_PrivateKey@UEC2NPoint@CryptoPP@@@0@ABVNameValuePairs@0@@Z 429189de f i dll.obj
 0001:000179f4       ??$_Construct@_K_K@std@@YAXPA_KAB_K@Z 429189f4 f i dll.obj
 0001:00017a0b       ?size@?$vector@VPolynomialMod2@CryptoPP@@V?$allocator@VPolynomialMod2@CryptoPP@@@std@@@std@@QBEIXZ 42918a0b f i dll.obj
 0001:00017a21       ??8const_iterator@?$deque@IV?$allocator@I@std@@@std@@QBE_NABV012@@Z 42918a21 f i dll.obj
 0001:00017a21       ??8const_iterator@?$deque@UMessageRange@MeterFilter@CryptoPP@@V?$allocator@UMessageRange@MeterFilter@CryptoPP@@@std@@@std@@QBE_NABV012@@Z 42918a21 f i filters.obj
 0001:00017a21       ??8const_iterator@?$deque@_KV?$allocator@_K@std@@@std@@QBE_NABV012@@Z 42918a21 f i dll.obj
 0001:00017a3d       ?capacity@?$vector@UWindowSlider@CryptoPP@@V?$allocator@UWindowSlider@CryptoPP@@@std@@@std@@QBEIXZ 42918a3d f i dll.obj
 0001:00017a53       ?size@?$vector@UWindowSlider@CryptoPP@@V?$allocator@UWindowSlider@CryptoPP@@@std@@@std@@QBEIXZ 42918a53 f i dll.obj
 0001:00017a69       ?capacity@?$vector@U?$BaseAndExponent@VInteger@CryptoPP@@V12@@CryptoPP@@V?$allocator@U?$BaseAndExponent@VInteger@CryptoPP@@V12@@CryptoPP@@@std@@@std@@QBEIXZ 42918a69 f i dll.obj
 0001:00017a7f       ?size@?$vector@U?$BaseAndExponent@VInteger@CryptoPP@@V12@@CryptoPP@@V?$allocator@U?$BaseAndExponent@VInteger@CryptoPP@@V12@@CryptoPP@@@std@@@std@@QBEIXZ 42918a7f f i dll.obj
 0001:00017a95       ?capacity@?$vector@U?$BaseAndExponent@UEC2NPoint@CryptoPP@@VInteger@2@@CryptoPP@@V?$allocator@U?$BaseAndExponent@UEC2NPoint@CryptoPP@@VInteger@2@@CryptoPP@@@std@@@std@@QBEIXZ 42918a95 f i dll.obj
 0001:00017aab       ?size@?$vector@U?$BaseAndExponent@UEC2NPoint@CryptoPP@@VInteger@2@@CryptoPP@@V?$allocator@U?$BaseAndExponent@UEC2NPoint@CryptoPP@@VInteger@2@@CryptoPP@@@std@@@std@@QBEIXZ 42918aab f i dll.obj
 0001:00017ac1       ?capacity@?$vector@U?$BaseAndExponent@UECPPoint@CryptoPP@@VInteger@2@@CryptoPP@@V?$allocator@U?$BaseAndExponent@UECPPoint@CryptoPP@@VInteger@2@@CryptoPP@@@std@@@std@@QBEIXZ 42918ac1 f i dll.obj
 0001:00017ad4       ?size@?$vector@U?$BaseAndExponent@UECPPoint@CryptoPP@@VInteger@2@@CryptoPP@@V?$allocator@U?$BaseAndExponent@UECPPoint@CryptoPP@@VInteger@2@@CryptoPP@@@std@@@std@@QBEIXZ 42918ad4 f i dll.obj
 0001:00017ae7       ?capacity@?$vector@VPolynomialMod2@CryptoPP@@V?$allocator@VPolynomialMod2@CryptoPP@@@std@@@std@@QBEIXZ 42918ae7 f i dll.obj
 0001:00017afd       ??$AssignFromHelper@V?$DL_PublicKey@UECPPoint@CryptoPP@@@CryptoPP@@@CryptoPP@@YA?AV?$AssignFromHelperClass@V?$DL_PublicKey@UECPPoint@CryptoPP@@@CryptoPP@@V12@@0@PAV?$DL_PublicKey@UECPPoint@CryptoPP@@@0@ABVNameValuePairs@0@@Z 42918afd f i dll.obj
 0001:00017b13       ??$AssignFromHelper@V?$DL_PublicKey@UEC2NPoint@CryptoPP@@@CryptoPP@@@CryptoPP@@YA?AV?$AssignFromHelperClass@V?$DL_PublicKey@UEC2NPoint@CryptoPP@@@CryptoPP@@V12@@0@PAV?$DL_PublicKey@UEC2NPoint@CryptoPP@@@0@ABVNameValuePairs@0@@Z 42918b13 f i dll.obj
 0001:00017b29       ?reset@?$member_ptr@VBufferedTransformation@CryptoPP@@@CryptoPP@@QAEXPAVBufferedTransformation@2@@Z 42918b29 f i filters.obj
 0001:00017b29       ?reset@?$member_ptr@VModularArithmetic@CryptoPP@@@CryptoPP@@QAEXPAVModularArithmetic@2@@Z 42918b29 f i ecp.obj
 0001:00017b29       ?reset@?$member_ptr@VMontgomeryRepresentation@CryptoPP@@@CryptoPP@@QAEXPAVMontgomeryRepresentation@2@@Z 42918b29 f i dh.obj
 0001:00017b29       ?reset@?$member_ptr@VKDF2_RNG@CryptoPP@@@CryptoPP@@QAEXPAVKDF2_RNG@2@@Z 42918b29 f i integer.obj
 0001:00017b29       ?reset@?$member_ptr@VGF2NP@CryptoPP@@@CryptoPP@@QAEXPAVGF2NP@2@@Z 42918b29 f i gf2n.obj
 0001:00017b29       ?reset@?$member_ptr@VPK_MessageAccumulator@CryptoPP@@@CryptoPP@@QAEXPAVPK_MessageAccumulator@2@@Z 42918b29 f i filters.obj
 0001:00017b29       ?reset@?$member_ptr@VAlgorithmParametersBase@CryptoPP@@@CryptoPP@@QAEXPAVAlgorithmParametersBase@2@@Z 42918b29 f i algparam.obj
 0001:00017b29       ?reset@?$member_ptr@VRandomNumberGenerator@CryptoPP@@@CryptoPP@@QAEXPAVRandomNumberGenerator@2@@Z 42918b29 f i dll.obj
 0001:00017b29       ?reset@?$member_ptr@VECP@CryptoPP@@@CryptoPP@@QAEXPAVECP@2@@Z 42918b29 f i dll.obj
 0001:00017b42       ??$_Copy_opt@PAUEC2NPoint@CryptoPP@@PAU12@@std@@YAPAUEC2NPoint@CryptoPP@@PAU12@00U_Nonscalar_ptr_iterator_tag@0@@Z 42918b42 f i dll.obj
 0001:00017b66       ??$_Copy_opt@PAUECPPoint@CryptoPP@@PAU12@@std@@YAPAUECPPoint@CryptoPP@@PAU12@00U_Nonscalar_ptr_iterator_tag@0@@Z 42918b66 f i dll.obj
 0001:00017b8a       ??$fill@PAVInteger@CryptoPP@@V12@@std@@YAXPAVInteger@CryptoPP@@0ABV12@@Z 42918b8a f i dll.obj
 0001:00017ba7       ??$fill@PAUEC2NPoint@CryptoPP@@U12@@std@@YAXPAUEC2NPoint@CryptoPP@@0ABU12@@Z 42918ba7 f i dll.obj
 0001:00017bc4       ??$fill@PAUECPPoint@CryptoPP@@U12@@std@@YAXPAUECPPoint@CryptoPP@@0ABU12@@Z 42918bc4 f i dll.obj
 0001:00017be1       ??$fill@PAVPolynomialMod2@CryptoPP@@V12@@std@@YAXPAVPolynomialMod2@CryptoPP@@0ABV12@@Z 42918be1 f i dll.obj
 0001:00017bfe       ??4WindowSlider@CryptoPP@@QAEAAU01@ABU01@@Z 42918bfe f i dll.obj
 0001:00017c49       ??4?$BaseAndExponent@VInteger@CryptoPP@@V12@@CryptoPP@@QAEAAU01@ABU01@@Z 42918c49 f i dll.obj
 0001:00017c6a       ??4?$BaseAndExponent@UEC2NPoint@CryptoPP@@VInteger@2@@CryptoPP@@QAEAAU01@ABU01@@Z 42918c6a f i dll.obj
 0001:00017c8b       ??4?$BaseAndExponent@UECPPoint@CryptoPP@@VInteger@2@@CryptoPP@@QAEAAU01@ABU01@@Z 42918c8b f i dll.obj
 0001:00017cac       ??$Hack_GetValueIntoConstReference@UECPPoint@CryptoPP@@@CryptoPP@@YA_NABVNameValuePairs@0@PBDABUECPPoint@0@@Z 42918cac f i dll.obj
 0001:00017cc3       ??$Hack_GetValueIntoConstReference@UEC2NPoint@CryptoPP@@@CryptoPP@@YA_NABVNameValuePairs@0@PBDABUEC2NPoint@0@@Z 42918cc3 f i dll.obj
 0001:00017cda       ??$_Copy_backward_opt@PAVInteger@CryptoPP@@PAV12@@std@@YAPAVInteger@CryptoPP@@PAV12@00U_Nonscalar_ptr_iterator_tag@0@@Z 42918cda f i dll.obj
 0001:00017d01       ??$_Copy_backward_opt@PAUEC2NPoint@CryptoPP@@PAU12@@std@@YAPAUEC2NPoint@CryptoPP@@PAU12@00U_Nonscalar_ptr_iterator_tag@0@@Z 42918d01 f i dll.obj
 0001:00017d28       ??$_Copy_backward_opt@PAUECPPoint@CryptoPP@@PAU12@@std@@YAPAUECPPoint@CryptoPP@@PAU12@00U_Nonscalar_ptr_iterator_tag@0@@Z 42918d28 f i dll.obj
 0001:00017d4f       ??$_Copy_opt@PAVPolynomialMod2@CryptoPP@@PAV12@@std@@YAPAVPolynomialMod2@CryptoPP@@PAV12@00U_Nonscalar_ptr_iterator_tag@0@@Z 42918d4f f i dll.obj
 0001:00017d73       ??$_Copy_backward_opt@PAVPolynomialMod2@CryptoPP@@PAV12@@std@@YAPAVPolynomialMod2@CryptoPP@@PAV12@00U_Nonscalar_ptr_iterator_tag@0@@Z 42918d73 f i dll.obj
 0001:00017d9a       ??$_Copy_backward_opt@PAUWindowSlider@CryptoPP@@PAU12@@std@@YAPAUWindowSlider@CryptoPP@@PAU12@00U_Nonscalar_ptr_iterator_tag@0@@Z 42918d9a f i dll.obj
 0001:00017dc1       ??$_Copy_backward_opt@PAU?$BaseAndExponent@VInteger@CryptoPP@@V12@@CryptoPP@@PAU12@@std@@YAPAU?$BaseAndExponent@VInteger@CryptoPP@@V12@@CryptoPP@@PAU12@00U_Nonscalar_ptr_iterator_tag@0@@Z 42918dc1 f i dll.obj
 0001:00017de8       ??$_Copy_backward_opt@PAU?$BaseAndExponent@UEC2NPoint@CryptoPP@@VInteger@2@@CryptoPP@@PAU12@@std@@YAPAU?$BaseAndExponent@UEC2NPoint@CryptoPP@@VInteger@2@@CryptoPP@@PAU12@00U_Nonscalar_ptr_iterator_tag@0@@Z 42918de8 f i dll.obj
 0001:00017e0f       ??$_Copy_backward_opt@PAU?$BaseAndExponent@UECPPoint@CryptoPP@@VInteger@2@@CryptoPP@@PAU12@@std@@YAPAU?$BaseAndExponent@UECPPoint@CryptoPP@@VInteger@2@@CryptoPP@@PAU12@00U_Nonscalar_ptr_iterator_tag@0@@Z 42918e0f f i dll.obj
 0001:00017e36       ??$_Construct@VPolynomialMod2@CryptoPP@@V12@@std@@YAXPAVPolynomialMod2@CryptoPP@@ABV12@@Z 42918e36 f i dll.obj
 0001:00017e63       ??M?$BaseAndExponent@VInteger@CryptoPP@@V12@@CryptoPP@@QBE_NABU01@@Z 42918e63 f i dll.obj
 0001:00017e79       ??M?$BaseAndExponent@UEC2NPoint@CryptoPP@@VInteger@2@@CryptoPP@@QBE_NABU01@@Z 42918e79 f i dll.obj
 0001:00017e8f       ??M?$BaseAndExponent@UECPPoint@CryptoPP@@VInteger@2@@CryptoPP@@QBE_NABU01@@Z 42918e8f f i dll.obj
 0001:00017ea5       ?ChannelPut@BufferedTransformation@CryptoPP@@QAEIABV?$basic_string@DU?$char_traits@D@std@@V?$allocator@D@2@@std@@E_N@Z 42918ea5 f i dll.obj
 0001:00017ec1       ??0BitBucket@CryptoPP@@QAE@ABV01@@Z 42918ec1 f i dll.obj
 0001:00017ee0       ?MinEncodedSize@PolynomialMod2@CryptoPP@@QBEIXZ 42918ee0 f i dll.obj
 0001:00017f02       ?GetCoefficient@PolynomialMod2@CryptoPP@@QBEHI@Z 42918f02 f i dll.obj
 0001:00017f27       ??APolynomialMod2@CryptoPP@@QBEHI@Z 42918f27 f i dll.obj
 0001:00017f2c       ??4?$AbstractEuclideanDomain@VPolynomialMod2@CryptoPP@@@CryptoPP@@QAEAAV01@ABV01@@Z 42918f2c f i dll.obj
 0001:00017f45       ??4?$EuclideanDomainOf@VPolynomialMod2@CryptoPP@@@CryptoPP@@QAEAAV01@ABV01@@Z 42918f45 f i dll.obj
 0001:00017f66       ??4?$QuotientRing@V?$EuclideanDomainOf@VPolynomialMod2@CryptoPP@@@CryptoPP@@@CryptoPP@@QAEAAV01@ABV01@@Z 42918f66 f i dll.obj
 0001:00017f8d       ??4GF2NP@CryptoPP@@QAEAAV01@ABV01@@Z 42918f8d f i dll.obj
 0001:00017fa8       ??4GF2NT@CryptoPP@@QAEAAV01@ABV01@@Z 42918fa8 f i dll.obj
 0001:00017fd5       ??4GF2NPP@CryptoPP@@QAEAAV01@ABV01@@Z 42918fd5 f i dll.obj
 0001:00018002       ?EncodedPointSize@EC2N@CryptoPP@@QBEI_N@Z 42919002 f i dll.obj
 0001:0001801f       ??8EC2N@CryptoPP@@QBE_NABV01@@Z 4291901f f i dll.obj
 0001:00018063       ??4EC2N@CryptoPP@@QAEAAV01@ABV01@@Z 42919063 f i dll.obj
 0001:000180a2       ??8ECP@CryptoPP@@QBE_NABV01@@Z 429190a2 f i dll.obj
 0001:000180e4       ??4ECP@CryptoPP@@QAEAAV01@ABV01@@Z 429190e4 f i dll.obj
 0001:00018123       ??1?$value_ptr@VECP@CryptoPP@@@CryptoPP@@QAE@XZ 42919123 f i dll.obj
 0001:00018123       ??1?$clonable_ptr@VGF2NP@CryptoPP@@@CryptoPP@@QAE@XZ 42919123 f i dll.obj
 0001:00018123       ??1?$clonable_ptr@VModularArithmetic@CryptoPP@@@CryptoPP@@QAE@XZ 42919123 f i dll.obj
 0001:00018128       ??0?$DL_GroupParameters@UECPPoint@CryptoPP@@@CryptoPP@@QAE@ABV01@@Z 42919128 f i dll.obj
 0001:0001815b       ??1?$EcPrecomputation@VECP@CryptoPP@@@CryptoPP@@QAE@XZ 4291915b f i dll.obj
 0001:00018191       ??4?$EcPrecomputation@VECP@CryptoPP@@@CryptoPP@@QAEAAV01@ABV01@@Z 42919191 f i dll.obj
 0001:000181b8       ??0?$DL_GroupParameters@UEC2NPoint@CryptoPP@@@CryptoPP@@QAE@ABV01@@Z 429191b8 f i dll.obj
 0001:000181eb       ??4?$EcPrecomputation@VEC2N@CryptoPP@@@CryptoPP@@QAEAAV01@ABV01@@Z 429191eb f i dll.obj
 0001:00018204       ??0FileSink@CryptoPP@@QAE@XZ 42919204 f i dll.obj
 0001:00018227       ??1FileSink@CryptoPP@@UAE@XZ 42919227 f i dll.obj
 0001:0001822f       ??_EFileSink@CryptoPP@@UAEPAXI@Z 4291922f f i dll.obj
 0001:0001827c       ?HashKey@GCM_Base@CryptoPP@@IAEPAEXZ 4291927c f i dll.obj
 0001:00018283       ?MulTable@GCM_Base@CryptoPP@@IAEPAEXZ 42919283 f i dll.obj
 0001:0001828a       ?NumberOfMessages@MessageQueue@CryptoPP@@UBEIXZ 4291928a f i dll.obj
 0001:0001828f       ?NumberOfMessageSeries@MessageQueue@CryptoPP@@UBEIXZ 4291928f f i dll.obj
 0001:00018294       ??0?$AutoSignaling@VBufferedTransformation@CryptoPP@@@CryptoPP@@QAE@ABV01@@Z 42919294 f i dll.obj
 0001:000182af       ??4?$AutoSignaling@V?$InputRejecting@VBufferedTransformation@CryptoPP@@@CryptoPP@@@CryptoPP@@QAEAAV01@ABV01@@Z 429192af f i asn.obj
 0001:000182af       ??4?$AutoSignaling@VBufferedTransformation@CryptoPP@@@CryptoPP@@QAEAAV01@ABV01@@Z 429192af f i dll.obj
 0001:000182af       ??4?$StringSinkTemplate@V?$basic_string@DU?$char_traits@D@std@@V?$allocator@D@2@@std@@@CryptoPP@@QAEAAV01@ABV01@@Z 429192af f i asn.obj
 0001:000182ca       ??0PKCS1v15_SignatureMessageEncodingMethod@CryptoPP@@QAE@XZ 429192ca f i dll.obj
 0001:000182d3       ??0PKCS1v15_SignatureMessageEncodingMethod@CryptoPP@@QAE@ABV01@@Z 429192d3 f i dll.obj
 0001:000182de       ??_E?$EMSA2HashIdLookup@VPK_DeterministicSignatureMessageEncodingMethod@CryptoPP@@@CryptoPP@@UAEPAXI@Z 429192de f i dll.obj
 0001:000182de       ??_EPKCS1v15_SignatureMessageEncodingMethod@CryptoPP@@UAEPAXI@Z 429192de f i dll.obj
 0001:000182de       ??_EEMSA2Pad@CryptoPP@@UAEPAXI@Z 429192de f i dll.obj
 0001:000182de       ??_EOAEP_Base@CryptoPP@@UAEPAXI@Z 429192de f i dll.obj
 0001:000182de       ??_E?$OAEP@VSHA1@CryptoPP@@VP1363_MGF1@2@@CryptoPP@@UAEPAXI@Z 429192de f i dll.obj
 0001:000182de       ??_EPSSR_MEM_Base@CryptoPP@@UAEPAXI@Z 429192de f i dll.obj
 0001:00018324       ??0?$EMSA2HashIdLookup@VPK_DeterministicSignatureMessageEncodingMethod@CryptoPP@@@CryptoPP@@QAE@ABV01@@Z 42919324 f i dll.obj
 0001:0001832f       ??0?$EMSA2HashIdLookup@VPK_DeterministicSignatureMessageEncodingMethod@CryptoPP@@@CryptoPP@@QAE@XZ 4291932f f i dll.obj
 0001:00018338       ??0EMSA2Pad@CryptoPP@@QAE@XZ 42919338 f i dll.obj
 0001:0001834a       ??0EMSA2Pad@CryptoPP@@QAE@ABV01@@Z 4291934a f i dll.obj
 0001:00018362       ??0OAEP_Base@CryptoPP@@QAE@XZ 42919362 f i dll.obj
 0001:0001836b       ??0OAEP_Base@CryptoPP@@QAE@ABV01@@Z 4291936b f i dll.obj
 0001:00018376       ??0?$OAEP@VSHA1@CryptoPP@@VP1363_MGF1@2@@CryptoPP@@QAE@XZ 42919376 f i dll.obj
 0001:00018388       ??0?$OAEP@VSHA1@CryptoPP@@VP1363_MGF1@2@@CryptoPP@@QAE@ABV01@@Z 42919388 f i dll.obj
 0001:000183a0       ??4RSAFunction@CryptoPP@@QAEAAV01@ABV01@@Z 429193a0 f i dll.obj
 0001:000183c7       ??4InvertibleRSAFunction@CryptoPP@@QAEAAV01@ABV01@@Z 429193c7 f i dll.obj
 0001:00018456       ??4RSAFunction_ISO@CryptoPP@@QAEAAV01@ABV01@@Z 42919456 f i dll.obj
 0001:00018468       ??4InvertibleRSAFunction_ISO@CryptoPP@@QAEAAV01@ABV01@@Z 42919468 f i dll.obj
 0001:0001847a       ??4RWFunction@CryptoPP@@QAEAAV01@ABV01@@Z 4291947a f i dll.obj
 0001:00018493       ??4InvertibleRWFunction@CryptoPP@@QAEAAV01@ABV01@@Z 42919493 f i dll.obj
 0001:000184cc       ?KeystreamBufferEnd@?$AdditiveCipherTemplate@V?$AbstractPolicyHolder@UAdditiveCipherAbstractPolicy@CryptoPP@@VSymmetricCipher@2@@CryptoPP@@@CryptoPP@@IAEPAEXZ 429194cc f i dll.obj
 0001:000184d3       ?KeystreamBufferEnd@?$AdditiveCipherTemplate@V?$AbstractPolicyHolder@UAdditiveCipherAbstractPolicy@CryptoPP@@VOFB_ModePolicy@2@@CryptoPP@@@CryptoPP@@IAEPAEXZ 429194d3 f i dll.obj
 0001:000184da       ?KeystreamBufferEnd@?$AdditiveCipherTemplate@V?$AbstractPolicyHolder@UAdditiveCipherAbstractPolicy@CryptoPP@@VCTR_ModePolicy@2@@CryptoPP@@@CryptoPP@@IAEPAEXZ 429194da f i dll.obj
 0001:000184e1       ??0?$StringSinkTemplate@V?$basic_string@DU?$char_traits@D@std@@V?$allocator@D@2@@std@@@CryptoPP@@QAE@AAV?$basic_string@DU?$char_traits@D@std@@V?$allocator@D@2@@std@@@Z 429194e1 f i dll.obj
 0001:00018503       ??0?$AbstractRing@VPolynomialMod2@CryptoPP@@@CryptoPP@@QAE@XZ 42919503 f i dll.obj
 0001:00018515       ??0?$AbstractRing@VPolynomialMod2@CryptoPP@@@CryptoPP@@QAE@ABV01@@Z 42919515 f i dll.obj
 0001:00018529       ??0?$clonable_ptr@VGF2NP@CryptoPP@@@CryptoPP@@QAE@ABV01@@Z 42919529 f i dll.obj
 0001:00018547       ?IsInitialized@?$DL_FixedBasePrecomputationImpl@UEC2NPoint@CryptoPP@@@CryptoPP@@UBE_NXZ 42919547 f i dll.obj
 0001:00018556       ?IsInitialized@?$DL_FixedBasePrecomputationImpl@UECPPoint@CryptoPP@@@CryptoPP@@UBE_NXZ 42919556 f i dll.obj
 0001:00018565       ??0?$value_ptr@VECP@CryptoPP@@@CryptoPP@@QAE@ABVECP@1@@Z 42919565 f i dll.obj
 0001:000185a5       ??0?$value_ptr@VECP@CryptoPP@@@CryptoPP@@QAE@ABV01@@Z 429195a5 f i dll.obj
 0001:000185f1       ?GetCurve@?$DL_GroupParameters_EC@VECP@CryptoPP@@@CryptoPP@@QBEABVECP@2@XZ 429195f1 f i dll.obj
 0001:000185f1       ?KeystreamBufferBegin@?$AdditiveCipherTemplate@V?$AbstractPolicyHolder@UAdditiveCipherAbstractPolicy@CryptoPP@@VSymmetricCipher@2@@CryptoPP@@@CryptoPP@@IAEPAEXZ 429195f1 f i dll.obj
 0001:000185f5       ??8?$DL_GroupParameters_EC@VECP@CryptoPP@@@CryptoPP@@QBE_NABV01@@Z 429195f5 f i dll.obj
 0001:00018641       ??0?$DL_GroupParameters@UECPPoint@CryptoPP@@@CryptoPP@@QAE@XZ 42919641 f i dll.obj
 0001:0001866d       ?Initialize@?$DL_GroupParameters_EC@VEC2N@CryptoPP@@@CryptoPP@@QAEXABVEC2N@2@ABUEC2NPoint@2@ABVInteger@2@2@Z 4291966d f i dll.obj
 0001:000186a9       ?EncodeElement@?$DL_GroupParameters_EC@VEC2N@CryptoPP@@@CryptoPP@@UBEX_NABUEC2NPoint@2@PAE@Z 429196a9 f i dll.obj
 0001:000186e5       ?GetEncodedElementSize@?$DL_GroupParameters_EC@VEC2N@CryptoPP@@@CryptoPP@@UBEI_N@Z 429196e5 f i dll.obj
 0001:0001870b       ??8?$DL_GroupParameters_EC@VEC2N@CryptoPP@@@CryptoPP@@QBE_NABV01@@Z 4291970b f i dll.obj
 0001:00018757       ?FieldElementLength@?$DL_GroupParameters_EC@VEC2N@CryptoPP@@@CryptoPP@@IBEIXZ 42919757 f i dll.obj
 0001:00018764       ??0?$DL_GroupParameters@UEC2NPoint@CryptoPP@@@CryptoPP@@QAE@XZ 42919764 f i dll.obj
 0001:00018790       ??8?$DL_PublicKeyImpl@V?$DL_GroupParameters_EC@VECP@CryptoPP@@@CryptoPP@@@CryptoPP@@QBE_NABV01@@Z 42919790 f i dll.obj
 0001:000187ce       ??8?$DL_PublicKeyImpl@V?$DL_GroupParameters_EC@VEC2N@CryptoPP@@@CryptoPP@@@CryptoPP@@QBE_NABV01@@Z 429197ce f i dll.obj
 0001:0001880c       ?Initialize@?$DL_PublicKey_EC@VEC2N@CryptoPP@@@CryptoPP@@QAEXABVEC2N@2@ABUEC2NPoint@2@ABVInteger@2@1@Z 4291980c f i dll.obj
 0001:00018838       ?GetAbstractGroupParameters@?$DL_PrivateKeyImpl@V?$DL_GroupParameters_EC@VECP@CryptoPP@@@CryptoPP@@@CryptoPP@@UBEABV?$DL_GroupParameters@UECPPoint@CryptoPP@@@2@XZ 42919838 f i dll.obj
 0001:00018838       ?AccessAbstractGroupParameters@?$DL_PrivateKeyImpl@V?$DL_GroupParameters_EC@VEC2N@CryptoPP@@@CryptoPP@@@CryptoPP@@UAEAAV?$DL_GroupParameters@UEC2NPoint@CryptoPP@@@2@XZ 42919838 f i dll.obj
 0001:00018838       ?GetAbstractGroupParameters@?$DL_PrivateKeyImpl@V?$DL_GroupParameters_EC@VEC2N@CryptoPP@@@CryptoPP@@@CryptoPP@@UBEABV?$DL_GroupParameters@UEC2NPoint@CryptoPP@@@2@XZ 42919838 f i dll.obj
 0001:00018838       ?AccessAbstractGroupParameters@?$DL_PrivateKeyImpl@V?$DL_GroupParameters_EC@VECP@CryptoPP@@@CryptoPP@@@CryptoPP@@UAEAAV?$DL_GroupParameters@UECPPoint@CryptoPP@@@2@XZ 42919838 f i dll.obj
 0001:0001883c       ?Initialize@?$DL_PrivateKey_EC@VEC2N@CryptoPP@@@CryptoPP@@QAEXABVEC2N@2@ABUEC2NPoint@2@ABVInteger@2@2@Z 4291983c f i dll.obj
 0001:00018868       ??0?$AutoSignaling@VBufferedTransformation@CryptoPP@@@CryptoPP@@QAE@H@Z 42919868 f i dll.obj
 0001:0001887d       ?GetValidKeyLength@?$SimpleKeyingInterfaceImpl@V?$TwoBases@VBlockCipher@CryptoPP@@USKIPJACK_Info@2@@CryptoPP@@V12@@CryptoPP@@UBEII@Z 4291987d f i dll.obj
 0001:00018883       ??0P1363_MGF1@CryptoPP@@QAE@XZ 42919883 f i dll.obj
 0001:0001888c       ?GenerateAndMask@P1363_MGF1@CryptoPP@@UBEXAAVHashTransformation@2@PAEIPBEI_N@Z 4291988c f i dll.obj
 0001:000188b2       ??_GMultiplicativeGroupT@?$AbstractRing@VPolynomialMod2@CryptoPP@@@CryptoPP@@UAEPAXI@Z 429198b2 f i dll.obj
 0001:000188b2       ??_EMultiplicativeGroupT@?$AbstractRing@VPolynomialMod2@CryptoPP@@@CryptoPP@@UAEPAXI@Z 429198b2 f i dll.obj
 0001:000188ca       ??_EP1363_MGF1@CryptoPP@@UAEPAXI@Z 429198ca f i dll.obj
 0001:000188ca       ??_GP1363_MGF1@CryptoPP@@UAEPAXI@Z 429198ca f i dll.obj
 0001:000188e7       ?allocate@?$FixedSizeAllocatorWithCleanup@E$0KAA@V?$NullAllocator@E@CryptoPP@@$0A@@CryptoPP@@QAEPAEIPBX@Z 429198e7 f i dll.obj
 0001:00018908       ??Aiterator@?$deque@_KV?$allocator@_K@std@@@std@@QBEAA_KH@Z 42919908 f i dll.obj
 0001:00018927       ??Aiterator@?$deque@IV?$allocator@I@std@@@std@@QBEAAIH@Z 42919927 f i dll.obj
 0001:00018946       ?Seek@?$AdditiveCipherTemplate@V?$AbstractPolicyHolder@UAdditiveCipherAbstractPolicy@CryptoPP@@VSymmetricCipher@2@@CryptoPP@@@CryptoPP@@UAEX_K@Z 42919946 f i dll.obj
 0001:000189c0       ?ProcessData@?$CFB_CipherTemplate@V?$AbstractPolicyHolder@VCFB_CipherAbstractPolicy@CryptoPP@@VSymmetricCipher@2@@CryptoPP@@@CryptoPP@@UAEXPAEPBEI@Z 429199c0 f i dll.obj
 0001:00018b45       ?ProcessData@?$CFB_CipherTemplate@V?$AbstractPolicyHolder@VCFB_CipherAbstractPolicy@CryptoPP@@VCFB_ModePolicy@2@@CryptoPP@@@CryptoPP@@UAEXPAEPBEI@Z 42919b45 f i dll.obj
 0001:00018cca       ?Seek@?$AdditiveCipherTemplate@V?$AbstractPolicyHolder@UAdditiveCipherAbstractPolicy@CryptoPP@@VOFB_ModePolicy@2@@CryptoPP@@@CryptoPP@@UAEX_K@Z 42919cca f i dll.obj
 0001:00018d44       ?Seek@?$AdditiveCipherTemplate@V?$AbstractPolicyHolder@UAdditiveCipherAbstractPolicy@CryptoPP@@VCTR_ModePolicy@2@@CryptoPP@@@CryptoPP@@UAEX_K@Z 42919d44 f i dll.obj
 0001:00018dbe       ??$lexicographical_compare@Vconst_iterator@?$vector@IV?$allocator@I@std@@@std@@V123@@std@@YA_NVconst_iterator@?$vector@IV?$allocator@I@std@@@0@000@Z 42919dbe f i dll.obj
 0001:00018e03       ?SimultaneousExponentiate@?$DL_GroupParameters_EC@VECP@CryptoPP@@@CryptoPP@@UBEXPAUECPPoint@2@ABU32@PBVInteger@2@I@Z 42919e03 f i dll.obj
 0001:00018e0b       ?DEREncodePublicKey@?$DL_PublicKey_EC@VECP@CryptoPP@@@CryptoPP@@UBEXAAVBufferedTransformation@2@@Z 42919e0b f i dll.obj
 0001:00018e37       ??$copy@PAUEC2NPoint@CryptoPP@@PAU12@@std@@YAPAUEC2NPoint@CryptoPP@@PAU12@00@Z 42919e37 f i dll.obj
 0001:00018e51       ??$copy@PAUECPPoint@CryptoPP@@PAU12@@std@@YAPAUECPPoint@CryptoPP@@PAU12@00@Z 42919e51 f i dll.obj
 0001:00018e6b       ??$_Copy_backward_opt@Viterator@?$deque@_KV?$allocator@_K@std@@@std@@V123@@std@@YA?AViterator@?$deque@_KV?$allocator@_K@std@@@0@V120@00U_Nonscalar_ptr_iterator_tag@0@@Z 42919e6b f i dll.obj
 0001:00018ec2       ??$_Copy_opt@Vconst_iterator@?$deque@_KV?$allocator@_K@std@@@std@@Viterator@23@@std@@YA?AViterator@?$deque@_KV?$allocator@_K@std@@@0@Vconst_iterator@20@0V120@U_Nonscalar_ptr_iterator_tag@0@@Z 42919ec2 f i dll.obj
 0001:00018ec2       ??$_Copy_opt@Viterator@?$deque@_KV?$allocator@_K@std@@@std@@V123@@std@@YA?AViterator@?$deque@_KV?$allocator@_K@std@@@0@V120@00U_Nonscalar_ptr_iterator_tag@0@@Z 42919ec2 f i dll.obj
 0001:00018f19       ??$_Copy_backward_opt@Viterator@?$deque@IV?$allocator@I@std@@@std@@V123@@std@@YA?AViterator@?$deque@IV?$allocator@I@std@@@0@V120@00U_Nonscalar_ptr_iterator_tag@0@@Z 42919f19 f i dll.obj
 0001:00018f6a       ??$_Copy_opt@Vconst_iterator@?$deque@IV?$allocator@I@std@@@std@@Viterator@23@@std@@YA?AViterator@?$deque@IV?$allocator@I@std@@@0@Vconst_iterator@20@0V120@U_Nonscalar_ptr_iterator_tag@0@@Z 42919f6a f i dll.obj
 0001:00018f6a       ??$_Copy_opt@Viterator@?$deque@IV?$allocator@I@std@@@std@@V123@@std@@YA?AViterator@?$deque@IV?$allocator@I@std@@@0@V120@00U_Nonscalar_ptr_iterator_tag@0@@Z 42919f6a f i dll.obj
 0001:00018fbb       ??$copy_backward@PAVInteger@CryptoPP@@PAV12@@std@@YAPAVInteger@CryptoPP@@PAV12@00@Z 42919fbb f i dll.obj
 0001:00018fd5       ??$copy_backward@PAUEC2NPoint@CryptoPP@@PAU12@@std@@YAPAUEC2NPoint@CryptoPP@@PAU12@00@Z 42919fd5 f i dll.obj
 0001:00018fef       ??$copy_backward@PAUECPPoint@CryptoPP@@PAU12@@std@@YAPAUECPPoint@CryptoPP@@PAU12@00@Z 42919fef f i dll.obj
 0001:00019009       ??$copy@PAVPolynomialMod2@CryptoPP@@PAV12@@std@@YAPAVPolynomialMod2@CryptoPP@@PAV12@00@Z 4291a009 f i dll.obj
 0001:00019023       ??$copy_backward@PAVPolynomialMod2@CryptoPP@@PAV12@@std@@YAPAVPolynomialMod2@CryptoPP@@PAV12@00@Z 4291a023 f i dll.obj
 0001:0001903d       ??$fill@PAUWindowSlider@CryptoPP@@U12@@std@@YAXPAUWindowSlider@CryptoPP@@0ABU12@@Z 4291a03d f i dll.obj
 0001:0001905a       ??$copy_backward@PAUWindowSlider@CryptoPP@@PAU12@@std@@YAPAUWindowSlider@CryptoPP@@PAU12@00@Z 4291a05a f i dll.obj
 0001:00019074       ??$fill@PAU?$BaseAndExponent@VInteger@CryptoPP@@V12@@CryptoPP@@U12@@std@@YAXPAU?$BaseAndExponent@VInteger@CryptoPP@@V12@@CryptoPP@@0ABU12@@Z 4291a074 f i dll.obj
 0001:00019091       ??$copy_backward@PAU?$BaseAndExponent@VInteger@CryptoPP@@V12@@CryptoPP@@PAU12@@std@@YAPAU?$BaseAndExponent@VInteger@CryptoPP@@V12@@CryptoPP@@PAU12@00@Z 4291a091 f i dll.obj
 0001:000190ab       ??$fill@PAU?$BaseAndExponent@UEC2NPoint@CryptoPP@@VInteger@2@@CryptoPP@@U12@@std@@YAXPAU?$BaseAndExponent@UEC2NPoint@CryptoPP@@VInteger@2@@CryptoPP@@0ABU12@@Z 4291a0ab f i dll.obj
 0001:000190c8       ??$copy_backward@PAU?$BaseAndExponent@UEC2NPoint@CryptoPP@@VInteger@2@@CryptoPP@@PAU12@@std@@YAPAU?$BaseAndExponent@UEC2NPoint@CryptoPP@@VInteger@2@@CryptoPP@@PAU12@00@Z 4291a0c8 f i dll.obj
 0001:000190e2       ??$fill@PAU?$BaseAndExponent@UECPPoint@CryptoPP@@VInteger@2@@CryptoPP@@U12@@std@@YAXPAU?$BaseAndExponent@UECPPoint@CryptoPP@@VInteger@2@@CryptoPP@@0ABU12@@Z 4291a0e2 f i dll.obj
 0001:000190ff       ??$copy_backward@PAU?$BaseAndExponent@UECPPoint@CryptoPP@@VInteger@2@@CryptoPP@@PAU12@@std@@YAPAU?$BaseAndExponent@UECPPoint@CryptoPP@@VInteger@2@@CryptoPP@@PAU12@00@Z 4291a0ff f i dll.obj
 0001:00019119       ??$_Distance@Vconst_iterator@?$deque@IV?$allocator@I@std@@@std@@I@std@@YAXVconst_iterator@?$deque@IV?$allocator@I@std@@@0@0AAI@Z 4291a119 f i dll.obj
 0001:00019119       ??$_Distance@Vconst_iterator@?$deque@_KV?$allocator@_K@std@@@std@@I@std@@YAXVconst_iterator@?$deque@_KV?$allocator@_K@std@@@0@0AAI@Z 4291a119 f i dll.obj
 0001:00019139       ??_EFileSink@CryptoPP@@W3AEPAXI@Z 4291a139 f i dll.obj
 0001:00019141       ??_F?$AutoSignaling@V?$InputRejecting@VBufferedTransformation@CryptoPP@@@CryptoPP@@@CryptoPP@@QAEXXZ 4291a141 f i dll.obj
 0001:00019149       ??MCryptoPP@@YA_NABVOID@0@0@Z 4291a149 f i dll.obj
 0001:0001916c       ?GetBit@PolynomialMod2@CryptoPP@@QBE_NI@Z 4291a16c f i dll.obj
 0001:0001917e       ?swap@PolynomialMod2@CryptoPP@@QAEXAAV12@@Z 4291a17e f i dll.obj
 0001:00019183       ?SetCurve@?$EcPrecomputation@VECP@CryptoPP@@@CryptoPP@@QAEXABVECP@2@@Z 4291a183 f i dll.obj
 0001:000191ff       ??0?$EcPrecomputation@VECP@CryptoPP@@@CryptoPP@@QAE@ABV01@@Z 4291a1ff f i dll.obj
 0001:00019248       ?GetGroup@?$EcPrecomputation@VECP@CryptoPP@@@CryptoPP@@UBEABV?$AbstractGroup@UECPPoint@CryptoPP@@@2@XZ 4291a248 f i dll.obj
 0001:00019248       ?GetField@EC2N@CryptoPP@@QBEABVGF2NP@2@XZ 4291a248 f i dll.obj
 0001:00019248       ?GetField@ECP@CryptoPP@@QBEABVModularArithmetic@2@XZ 4291a248 f i dll.obj
 0001:0001924c       ?DEREncodeElement@?$EcPrecomputation@VECP@CryptoPP@@@CryptoPP@@UBEXAAVBufferedTransformation@2@ABUECPPoint@2@@Z 4291a24c f i dll.obj
 0001:00019261       ??_F?$AutoSignaling@VBufferedTransformation@CryptoPP@@@CryptoPP@@QAEXXZ 4291a261 f i dll.obj
 0001:00019269       ?deallocate@?$AllocatorWithCleanup@G$0A@@CryptoPP@@QAEXPAXI@Z 4291a269 f i dll.obj
 0001:00019285       ?deallocate@?$AllocatorWithCleanup@I$0A@@CryptoPP@@QAEXPAXI@Z 4291a285 f i dll.obj
 0001:000192a1       ?deallocate@?$AllocatorWithCleanup@_K$0A@@CryptoPP@@QAEXPAXI@Z 4291a2a1 f i dll.obj
 0001:000192bd       ?Initialize@?$DL_PublicKey_GFP@VDL_GroupParameters_DSA@CryptoPP@@@CryptoPP@@QAEXABVInteger@2@000@Z 4291a2bd f i dll.obj
 0001:000192e3       ?Initialize@?$DL_PrivateKey_GFP@VDL_GroupParameters_DSA@CryptoPP@@@CryptoPP@@QAEXABVInteger@2@000@Z 4291a2e3 f i dll.obj
 0001:00019309       ??1PolynomialMod2@CryptoPP@@QAE@XZ 4291a309 f i dll.obj
 0001:00019309       ??1?$SecBlock@IV?$AllocatorWithCleanup@I$0A@@CryptoPP@@@CryptoPP@@QAE@XZ 4291a309 f i dll.obj
 0001:00019315       ?Initialize@?$DL_GroupParameters_EC@VECP@CryptoPP@@@CryptoPP@@QAEXABVECP@2@ABUECPPoint@2@ABVInteger@2@2@Z 4291a315 f i dll.obj
 0001:00019351       ?EncodeElement@?$DL_GroupParameters_EC@VECP@CryptoPP@@@CryptoPP@@UBEX_NABUECPPoint@2@PAE@Z 4291a351 f i dll.obj
 0001:0001938c       ?Initialize@?$DL_PublicKey_EC@VECP@CryptoPP@@@CryptoPP@@QAEXABVECP@2@ABUECPPoint@2@ABVInteger@2@1@Z 4291a38c f i dll.obj
 0001:000193b8       ?Initialize@?$DL_PrivateKey_EC@VECP@CryptoPP@@@CryptoPP@@QAEXABVECP@2@ABUECPPoint@2@ABVInteger@2@2@Z 4291a3b8 f i dll.obj
 0001:000193e4       ?front@?$deque@_KV?$allocator@_K@std@@@std@@QBEAB_KXZ 4291a3e4 f i dll.obj
 0001:000193e4       ?front@?$deque@_KV?$allocator@_K@std@@@std@@QAEAA_KXZ 4291a3e4 f i mqueue.obj
 0001:000193fc       ?NewMGF@?$OAEP@VSHA1@CryptoPP@@VP1363_MGF1@2@@CryptoPP@@MBEPAVMaskGeneratingFunction@2@XZ 4291a3fc f i dll.obj
 0001:00019412       ??0?$SecBlock@EV?$FixedSizeAllocatorWithCleanup@E$0KAA@V?$NullAllocator@E@CryptoPP@@$0A@@CryptoPP@@@CryptoPP@@QAE@I@Z 4291a412 f i dll.obj
 0001:0001943a       ?deallocate@?$FixedSizeAllocatorWithCleanup@E$0KAA@V?$NullAllocator@E@CryptoPP@@$0A@@CryptoPP@@QAEXPAXI@Z 4291a43a f i dll.obj
 0001:00019459       ?pop_front@?$deque@_KV?$allocator@_K@std@@@std@@QAEXXZ 4291a459 f i dll.obj
 0001:00019480       ?pop_front@?$deque@IV?$allocator@I@std@@@std@@QAEXXZ 4291a480 f i dll.obj
 0001:000194a8       ?reallocate@?$FixedSizeAllocatorWithCleanup@E$0KAA@V?$NullAllocator@E@CryptoPP@@$0A@@CryptoPP@@QAEPAEPAEII_N@Z 4291a4a8 f i dll.obj
 0001:00019519       ?Save@?$DL_FixedBasePrecomputationImpl@VInteger@CryptoPP@@@CryptoPP@@UBEXABV?$DL_GroupPrecomputation@VInteger@CryptoPP@@@2@AAVBufferedTransformation@2@@Z 4291a519 f i dll.obj
 0001:000195c4       ?Save@?$DL_FixedBasePrecomputationImpl@UEC2NPoint@CryptoPP@@@CryptoPP@@UBEXABV?$DL_GroupPrecomputation@UEC2NPoint@CryptoPP@@@2@AAVBufferedTransformation@2@@Z 4291a5c4 f i dll.obj
 0001:0001966f       ?Save@?$DL_FixedBasePrecomputationImpl@UECPPoint@CryptoPP@@@CryptoPP@@UBEXABV?$DL_GroupPrecomputation@UECPPoint@CryptoPP@@@2@AAVBufferedTransformation@2@@Z 4291a66f f i dll.obj
 0001:0001971a       ?DEREncode@?$DL_GroupParameters_EC@VECP@CryptoPP@@@CryptoPP@@QBEXAAVBufferedTransformation@2@@Z 4291a71a f i dll.obj
 0001:000197fc       ?DEREncode@?$DL_GroupParameters_EC@VEC2N@CryptoPP@@@CryptoPP@@QBEXAAVBufferedTransformation@2@@Z 4291a7fc f i dll.obj
 0001:000198e0       ?DEREncodePrivateKey@?$DL_PrivateKey_EC@VEC2N@CryptoPP@@@CryptoPP@@UBEXAAVBufferedTransformation@2@@Z 4291a8e0 f i dll.obj
 0001:000198e0       ?DEREncodePrivateKey@?$DL_PrivateKey_EC@VECP@CryptoPP@@@CryptoPP@@UBEXAAVBufferedTransformation@2@@Z 4291a8e0 f i dll.obj
 0001:00019969       ??$copy@Viterator@?$deque@_KV?$allocator@_K@std@@@std@@V123@@std@@YA?AViterator@?$deque@_KV?$allocator@_K@std@@@0@V120@00@Z 4291a969 f i dll.obj
 0001:00019969       ??$copy@Vconst_iterator@?$deque@_KV?$allocator@_K@std@@@std@@Viterator@23@@std@@YA?AViterator@?$deque@_KV?$allocator@_K@std@@@0@Vconst_iterator@20@0V120@@Z 4291a969 f i dll.obj
 0001:00019991       ??$copy_backward@Viterator@?$deque@_KV?$allocator@_K@std@@@std@@V123@@std@@YA?AViterator@?$deque@_KV?$allocator@_K@std@@@0@V120@00@Z 4291a991 f i dll.obj
 0001:000199b9       ??$copy_backward@Viterator@?$deque@IV?$allocator@I@std@@@std@@V123@@std@@YA?AViterator@?$deque@IV?$allocator@I@std@@@0@V120@00@Z 4291a9b9 f i dll.obj
 0001:000199e1       ??$copy@Viterator@?$deque@IV?$allocator@I@std@@@std@@V123@@std@@YA?AViterator@?$deque@IV?$allocator@I@std@@@0@V120@00@Z 4291a9e1 f i dll.obj
 0001:000199e1       ??$copy@Vconst_iterator@?$deque@IV?$allocator@I@std@@@std@@Viterator@23@@std@@YA?AViterator@?$deque@IV?$allocator@I@std@@@0@Vconst_iterator@20@0V120@@Z 4291a9e1 f i dll.obj
 0001:00019a09       ??$fill@Viterator@?$deque@_KV?$allocator@_K@std@@@std@@_K@std@@YAXViterator@?$deque@_KV?$allocator@_K@std@@@0@0AB_K@Z 4291aa09 f i dll.obj
 0001:00019a48       ??$fill@Viterator@?$deque@IV?$allocator@I@std@@@std@@I@std@@YAXViterator@?$deque@IV?$allocator@I@std@@@0@0ABI@Z 4291aa48 f i dll.obj
 0001:00019a71       ??$_Uninit_fill_n@PAVInteger@CryptoPP@@IV12@V?$allocator@VInteger@CryptoPP@@@std@@@std@@YAXPAVInteger@CryptoPP@@IABV12@AAV?$allocator@VInteger@CryptoPP@@@0@U_Nonscalar_ptr_iterator_tag@0@@Z 4291aa71 f i dll.obj
 0001:00019ad4       ??1OS_Error@CryptoPP@@UAE@XZ 4291aad4 f i dll.obj
 0001:00019af1       ??_EOS_Error@CryptoPP@@UAEPAXI@Z 4291aaf1 f i dll.obj
 0001:00019b3e       ??_EInvalidKeyLength@PK_SignatureScheme@CryptoPP@@UAEPAXI@Z 4291ab3e f i dll.obj
 0001:00019b3e       ??_EInvalidPlaintextLength@PK_Encryptor@CryptoPP@@UAEPAXI@Z 4291ab3e f i dll.obj
 0001:00019b8b       ??_EKeyTooShort@PK_SignatureScheme@CryptoPP@@UAEPAXI@Z 4291ab8b f i dll.obj
 0001:00019b8b       ??_EInvalidRounds@CryptoPP@@UAEPAXI@Z 4291ab8b f i dll.obj
 0001:00019bd8       ??0WindowSlider@CryptoPP@@QAE@ABVInteger@1@_NI@Z 4291abd8 f i dll.obj
 0001:00019c8d       ??DCryptoPP@@YA?AVPolynomialMod2@0@ABV10@0@Z 4291ac8d f i dll.obj
 0001:00019ca8       ??KCryptoPP@@YA?AVPolynomialMod2@0@ABV10@0@Z 4291aca8 f i dll.obj
 0001:00019cc3       ??LCryptoPP@@YA?AVPolynomialMod2@0@ABV10@0@Z 4291acc3 f i dll.obj
 0001:00019cde       ??0?$AbstractEuclideanDomain@VPolynomialMod2@CryptoPP@@@CryptoPP@@QAE@XZ 4291acde f i dll.obj
 0001:00019cf7       ??1?$AbstractEuclideanDomain@VPolynomialMod2@CryptoPP@@@CryptoPP@@UAE@XZ 4291acf7 f i dll.obj
 0001:00019d06       ??0?$AbstractEuclideanDomain@VPolynomialMod2@CryptoPP@@@CryptoPP@@QAE@ABV01@@Z 4291ad06 f i dll.obj
 0001:00019d29       ??1?$EuclideanDomainOf@VPolynomialMod2@CryptoPP@@@CryptoPP@@UAE@XZ 4291ad29 f i dll.obj
 0001:00019d6b       ??0?$EuclideanDomainOf@VPolynomialMod2@CryptoPP@@@CryptoPP@@QAE@ABV01@@Z 4291ad6b f i dll.obj
 0001:00019dae       ??_E?$EuclideanDomainOf@VPolynomialMod2@CryptoPP@@@CryptoPP@@UAEPAXI@Z 4291adae f i dll.obj
 0001:00019dfb       ??1?$QuotientRing@V?$EuclideanDomainOf@VPolynomialMod2@CryptoPP@@@CryptoPP@@@CryptoPP@@UAE@XZ 4291adfb f i dll.obj
 0001:00019e37       ??0?$QuotientRing@V?$EuclideanDomainOf@VPolynomialMod2@CryptoPP@@@CryptoPP@@@CryptoPP@@QAE@ABV01@@Z 4291ae37 f i dll.obj
 0001:00019e8a       ??_E?$QuotientRing@V?$EuclideanDomainOf@VPolynomialMod2@CryptoPP@@@CryptoPP@@@CryptoPP@@UAEPAXI@Z 4291ae8a f i dll.obj
 0001:00019ed7       ??1GF2NP@CryptoPP@@UAE@XZ  4291aed7 f i dll.obj
 0001:00019ed7       ??1GF2NPP@CryptoPP@@UAE@XZ 4291aed7 f i dll.obj
 0001:00019edc       ??0GF2NP@CryptoPP@@QAE@ABV01@@Z 4291aedc f i dll.obj
 0001:00019efd       ??_EGF2NP@CryptoPP@@UAEPAXI@Z 4291aefd f i dll.obj
 0001:00019f4a       ?Square@GF2NT@CryptoPP@@UBEABVPolynomialMod2@2@ABV32@@Z 4291af4a f i dll.obj
 0001:00019f97       ??1GF2NT@CryptoPP@@UAE@XZ  4291af97 f i dll.obj
 0001:00019fd2       ??0GF2NT@CryptoPP@@QAE@ABV01@@Z 4291afd2 f i dll.obj
 0001:0001a021       ??_EGF2NT@CryptoPP@@UAEPAXI@Z 4291b021 f i dll.obj
 0001:0001a06e       ??0GF2NPP@CryptoPP@@QAE@IIIII@Z 4291b06e f i dll.obj
 0001:0001a0e9       ??0GF2NPP@CryptoPP@@QAE@ABV01@@Z 4291b0e9 f i dll.obj
 0001:0001a11c       ??_EGF2NPP@CryptoPP@@UAEPAXI@Z 4291b11c f i dll.obj
 0001:0001a169       ??0EC2NPoint@CryptoPP@@QAE@XZ 4291b169 f i dll.obj
 0001:0001a1a0       ??0EC2NPoint@CryptoPP@@QAE@ABVPolynomialMod2@1@0@Z 4291b1a0 f i dll.obj
 0001:0001a1df       ??1EC2NPoint@CryptoPP@@QAE@XZ 4291b1df f i dll.obj
 0001:0001a221       ??0EC2NPoint@CryptoPP@@QAE@ABU01@@Z 4291b221 f i dll.obj
 0001:0001a268       ??0EC2N@CryptoPP@@QAE@XZ   4291b268 f i dll.obj
 0001:0001a2b6       ??0EC2N@CryptoPP@@QAE@ABVGF2NP@1@ABVPolynomialMod2@1@1@Z 4291b2b6 f i dll.obj
 0001:0001a313       ?FieldSize@EC2N@CryptoPP@@QBE?AVInteger@2@XZ 4291b313 f i dll.obj
 0001:0001a332       ??1EC2N@CryptoPP@@UAE@XZ   4291b332 f i dll.obj
 0001:0001a38f       ??0EC2N@CryptoPP@@QAE@ABV01@@Z 4291b38f f i dll.obj
 0001:0001a3f8       ??_EEC2N@CryptoPP@@UAEPAXI@Z 4291b3f8 f i dll.obj
 0001:0001a445       ??0ECPPoint@CryptoPP@@QAE@XZ 4291b445 f i dll.obj
 0001:0001a47c       ??0ECPPoint@CryptoPP@@QAE@ABVInteger@1@0@Z 4291b47c f i dll.obj
 0001:0001a4bb       ??1ECPPoint@CryptoPP@@QAE@XZ 4291b4bb f i dll.obj
 0001:0001a4fd       ??0ECPPoint@CryptoPP@@QAE@ABU01@@Z 4291b4fd f i dll.obj
 0001:0001a544       ??0ECP@CryptoPP@@QAE@XZ    4291b544 f i dll.obj
 0001:0001a592       ??0ECP@CryptoPP@@QAE@ABVInteger@1@00@Z 4291b592 f i dll.obj
 0001:0001a645       ?Multiply@ECP@CryptoPP@@QBE?AUECPPoint@2@ABVInteger@2@ABU32@@Z 4291b645 f i dll.obj
 0001:0001a645       ?Multiply@EC2N@CryptoPP@@QBE?AUEC2NPoint@2@ABVInteger@2@ABU32@@Z 4291b645 f i dll.obj
 0001:0001a662       ?CascadeMultiply@ECP@CryptoPP@@QBE?AUECPPoint@2@ABVInteger@2@ABU32@01@Z 4291b662 f i dll.obj
 0001:0001a662       ?CascadeMultiply@EC2N@CryptoPP@@QBE?AUEC2NPoint@2@ABVInteger@2@ABU32@01@Z 4291b662 f i dll.obj
 0001:0001a685       ?EncodedPointSize@ECP@CryptoPP@@QBEI_N@Z 4291b685 f i dll.obj
 0001:0001a69e       ?FieldSize@ECP@CryptoPP@@QBE?AVInteger@2@XZ 4291b69e f i dll.obj
 0001:0001a6bc       ??1ECP@CryptoPP@@UAE@XZ    4291b6bc f i dll.obj
 0001:0001a719       ??_EECP@CryptoPP@@UAEPAXI@Z 4291b719 f i dll.obj
 0001:0001a766       ?ConvertIn@?$EcPrecomputation@VECP@CryptoPP@@@CryptoPP@@UBE?AUECPPoint@2@ABU32@@Z 4291b766 f i dll.obj
 0001:0001a84d       ?ConvertOut@?$EcPrecomputation@VECP@CryptoPP@@@CryptoPP@@UBE?AUECPPoint@2@ABU32@@Z 4291b84d f i dll.obj
 0001:0001a934       ?BERDecodeElement@?$EcPrecomputation@VECP@CryptoPP@@@CryptoPP@@UBE?AUECPPoint@2@AAVBufferedTransformation@2@@Z 4291b934 f i dll.obj
 0001:0001a951       ??0PrimeAndGenerator@CryptoPP@@QAE@XZ 4291b951 f i dll.obj
 0001:0001a98e       ??0PrimeAndGenerator@CryptoPP@@QAE@HAAVRandomNumberGenerator@1@I@Z 4291b98e f i dll.obj
 0001:0001a9e6       ??0PrimeAndGenerator@CryptoPP@@QAE@HAAVRandomNumberGenerator@1@II@Z 4291b9e6 f i dll.obj
 0001:0001aa3c       ??1PrimeAndGenerator@CryptoPP@@QAE@XZ 4291ba3c f i dll.obj
 0001:0001aa93       ??0PrimeAndGenerator@CryptoPP@@QAE@ABV01@@Z 4291ba93 f i dll.obj
 0001:0001aae0       ??1HexDecoder@CryptoPP@@UAE@XZ 4291bae0 f i dll.obj
 0001:0001aae5       ??_EHexDecoder@CryptoPP@@UAEPAXI@Z 4291bae5 f i dll.obj
 0001:0001acbe       ??0?$EcPrecomputation@VEC2N@CryptoPP@@@CryptoPP@@QAE@ABV01@@Z 4291bcbe f i dll.obj
 0001:0001acdd       ?DEREncodeElement@?$EcPrecomputation@VEC2N@CryptoPP@@@CryptoPP@@UBEXAAVBufferedTransformation@2@ABUEC2NPoint@2@@Z 4291bcdd f i dll.obj
 0001:0001acf2       ?BERDecodeElement@?$EcPrecomputation@VEC2N@CryptoPP@@@CryptoPP@@UBE?AUEC2NPoint@2@AAVBufferedTransformation@2@@Z 4291bcf2 f i dll.obj
 0001:0001ad0f       ??1?$EcPrecomputation@VEC2N@CryptoPP@@@CryptoPP@@QAE@XZ 4291bd0f f i dll.obj
 0001:0001ad17       ??0?$EcPrecomputation@VEC2N@CryptoPP@@@CryptoPP@@QAE@XZ 4291bd17 f i dll.obj
 0001:0001ad2c       ??1FileStore@CryptoPP@@UAE@XZ 4291bd2c f i dll.obj
 0001:0001ad70       ??_EFileStore@CryptoPP@@UAEPAXI@Z 4291bd70 f i dll.obj
 0001:0001adbd       ??1?$SourceTemplate@VFileStore@CryptoPP@@@CryptoPP@@UAE@XZ 4291bdbd f i dll.obj
 0001:0001adf3       ??1FileSource@CryptoPP@@UAE@XZ 4291bdf3 f i dll.obj
 0001:0001adf8       ??_EFileSource@CryptoPP@@UAEPAXI@Z 4291bdf8 f i dll.obj
 0001:0001ae45       ?MaxRetrievable@MessageQueue@CryptoPP@@UBE_KXZ 4291be45 f i dll.obj
 0001:0001ae55       ?AnyRetrievable@MessageQueue@CryptoPP@@UBE_NXZ 4291be55 f i dll.obj
 0001:0001ae6f       ?NumberOfMessagesInThisSeries@MessageQueue@CryptoPP@@UBEIXZ 4291be6f f i dll.obj
 0001:0001ae7c       ?PreimageBound@RSAFunction@CryptoPP@@UBE?AVInteger@2@XZ 4291be7c f i dll.obj
 0001:0001ae7c       ?ImageBound@RSAFunction@CryptoPP@@UBE?AVInteger@2@XZ 4291be7c f i dll.obj
 0001:0001ae97       ??0RSAFunction@CryptoPP@@QAE@XZ 4291be97 f i dll.obj
 0001:0001af07       ?Save@?$ASN1CryptoMaterial@VPublicKey@CryptoPP@@@CryptoPP@@WCI@BEXAAVBufferedTransformation@2@@Z 4291bf07 f i dll.obj
 0001:0001af0f       ?Load@?$ASN1CryptoMaterial@VPublicKey@CryptoPP@@@CryptoPP@@WCI@AEXAAVBufferedTransformation@2@@Z 4291bf0f f i dll.obj
 0001:0001af17       ??1RSAFunction@CryptoPP@@UAE@XZ 4291bf17 f i dll.obj
 0001:0001af59       ??0RSAFunction@CryptoPP@@QAE@ABV01@@Z 4291bf59 f i dll.obj
 0001:0001afe1       ??0InvertibleRSAFunction@CryptoPP@@QAE@XZ 4291bfe1 f i dll.obj
 0001:0001b0bc       ?BERDecode@InvertibleRSAFunction@CryptoPP@@WDE@AEXAAVBufferedTransformation@2@@Z 4291c0bc f i dll.obj
 0001:0001b0c4       ?DEREncode@InvertibleRSAFunction@CryptoPP@@WDE@BEXAAVBufferedTransformation@2@@Z 4291c0c4 f i dll.obj
 0001:0001b0cc       ??1InvertibleRSAFunction@CryptoPP@@UAE@XZ 4291c0cc f i dll.obj
 0001:0001b18a       ??0InvertibleRSAFunction@CryptoPP@@QAE@ABV01@@Z 4291c18a f i dll.obj
 0001:0001b29d       ??0RSAFunction_ISO@CryptoPP@@QAE@XZ 4291c29d f i dll.obj
 0001:0001b2df       ??1RSAFunction_ISO@CryptoPP@@UAE@XZ 4291c2df f i dll.obj
 0001:0001b2df       ??_DRSAFunction@CryptoPP@@QAEXXZ 4291c2df f i dll.obj
 0001:0001b2e4       ??0RSAFunction_ISO@CryptoPP@@QAE@ABV01@@Z 4291c2e4 f i dll.obj
 0001:0001b329       ??_DRSAFunction_ISO@CryptoPP@@QAEXXZ 4291c329 f i dll.obj
 0001:0001b32e       ??0InvertibleRSAFunction_ISO@CryptoPP@@QAE@XZ 4291c32e f i dll.obj
 0001:0001b38c       ??_DInvertibleRSAFunction@CryptoPP@@QAEXXZ 4291c38c f i dll.obj
 0001:0001b38c       ??1InvertibleRSAFunction_ISO@CryptoPP@@UAE@XZ 4291c38c f i dll.obj
 0001:0001b391       ??0InvertibleRSAFunction_ISO@CryptoPP@@QAE@ABV01@@Z 4291c391 f i dll.obj
 0001:0001b3f2       ??_DInvertibleRSAFunction_ISO@CryptoPP@@QAEXXZ 4291c3f2 f i dll.obj
 0001:0001b3f7       ?ImageBound@RWFunction@CryptoPP@@UBE?AVInteger@2@XZ 4291c3f7 f i dll.obj
 0001:0001b412       ??0RWFunction@CryptoPP@@QAE@XZ 4291c412 f i dll.obj
 0001:0001b44d       ??1RWFunction@CryptoPP@@UAE@XZ 4291c44d f i dll.obj
 0001:0001b45c       ??0RWFunction@CryptoPP@@QAE@ABV01@@Z 4291c45c f i dll.obj
 0001:0001b49e       ??_DRWFunction@CryptoPP@@QAEXXZ 4291c49e f i dll.obj
 0001:0001b4a3       ??0InvertibleRWFunction@CryptoPP@@QAE@XZ 4291c4a3 f i dll.obj
 0001:0001b539       ??1InvertibleRWFunction@CryptoPP@@UAE@XZ 4291c539 f i dll.obj
 0001:0001b5a2       ??0InvertibleRWFunction@CryptoPP@@QAE@ABV01@@Z 4291c5a2 f i dll.obj
 0001:0001b655       ??_DInvertibleRWFunction@CryptoPP@@QAEXXZ 4291c655 f i dll.obj
 0001:0001b65a       ?Initialize@?$DL_PublicKey_GFP@VDL_GroupParameters_DSA@CryptoPP@@@CryptoPP@@QAEXABVDL_GroupParameters_IntegerBased@2@ABVInteger@2@@Z 4291c65a f i dll.obj
 0001:0001b678       ?Initialize@?$DL_PrivateKey_GFP@VDL_GroupParameters_DSA@CryptoPP@@@CryptoPP@@QAEXABVDL_GroupParameters_IntegerBased@2@ABVInteger@2@@Z 4291c678 f i dll.obj
 0001:0001b696       ?ScalarMultiply@MultiplicativeGroupT@?$AbstractRing@VPolynomialMod2@CryptoPP@@@CryptoPP@@UBE?AVPolynomialMod2@3@ABV43@ABVInteger@3@@Z 4291c696 f i dll.obj
 0001:0001b696       ?ScalarMultiply@MultiplicativeGroupT@?$AbstractRing@VInteger@CryptoPP@@@CryptoPP@@UBE?AVInteger@3@ABV43@0@Z 4291c696 f i dh.obj
 0001:0001b6b6       ?CascadeScalarMultiply@MultiplicativeGroupT@?$AbstractRing@VPolynomialMod2@CryptoPP@@@CryptoPP@@UBE?AVPolynomialMod2@3@ABV43@ABVInteger@3@01@Z 4291c6b6 f i dll.obj
 0001:0001b6b6       ?CascadeScalarMultiply@MultiplicativeGroupT@?$AbstractRing@VInteger@CryptoPP@@@CryptoPP@@UBE?AVInteger@3@ABV43@000@Z 4291c6b6 f i dh.obj
 0001:0001b6dc       ??0?$EuclideanDomainOf@VPolynomialMod2@CryptoPP@@@CryptoPP@@QAE@XZ 4291c6dc f i dll.obj
 0001:0001b713       ?Multiply@?$EuclideanDomainOf@VPolynomialMod2@CryptoPP@@@CryptoPP@@UBEABVPolynomialMod2@2@ABV32@0@Z 4291c713 f i dll.obj
 0001:0001b767       ?Square@?$EuclideanDomainOf@VPolynomialMod2@CryptoPP@@@CryptoPP@@UBEABVPolynomialMod2@2@ABV32@@Z 4291c767 f i dll.obj
 0001:0001b7b5       ?Divide@?$EuclideanDomainOf@VPolynomialMod2@CryptoPP@@@CryptoPP@@UBEABVPolynomialMod2@2@ABV32@0@Z 4291c7b5 f i dll.obj
 0001:0001b809       ?Mod@?$EuclideanDomainOf@VPolynomialMod2@CryptoPP@@@CryptoPP@@UBEABVPolynomialMod2@2@ABV32@0@Z 4291c809 f i dll.obj
 0001:0001b85d       ??0?$QuotientRing@V?$EuclideanDomainOf@VPolynomialMod2@CryptoPP@@@CryptoPP@@@CryptoPP@@QAE@ABV?$EuclideanDomainOf@VPolynomialMod2@CryptoPP@@@1@ABVPolynomialMod2@1@@Z 4291c85d f i dll.obj
 0001:0001b8a9       ?GetBase@?$DL_FixedBasePrecomputationImpl@UEC2NPoint@CryptoPP@@@CryptoPP@@UBEABUEC2NPoint@2@ABV?$DL_GroupPrecomputation@UEC2NPoint@CryptoPP@@@2@@Z 4291c8a9 f i dll.obj
 0001:0001b8c2       ?ConvertOut@?$DL_GroupPrecomputation@UEC2NPoint@CryptoPP@@@CryptoPP@@UBE?AUEC2NPoint@2@ABU32@@Z 4291c8c2 f i dll.obj
 0001:0001b8c2       ?ConvertIn@?$DL_GroupPrecomputation@UEC2NPoint@CryptoPP@@@CryptoPP@@UBE?AUEC2NPoint@2@ABU32@@Z 4291c8c2 f i dll.obj
 0001:0001b8dc       ?GetBase@?$DL_FixedBasePrecomputationImpl@UECPPoint@CryptoPP@@@CryptoPP@@UBEABUECPPoint@2@ABV?$DL_GroupPrecomputation@UECPPoint@CryptoPP@@@2@@Z 4291c8dc f i dll.obj
 0001:0001b8f5       ?ConvertOut@?$DL_GroupPrecomputation@UECPPoint@CryptoPP@@@CryptoPP@@UBE?AUECPPoint@2@ABU32@@Z 4291c8f5 f i dll.obj
 0001:0001b8f5       ?ConvertIn@?$DL_GroupPrecomputation@UECPPoint@CryptoPP@@@CryptoPP@@UBE?AUECPPoint@2@ABU32@@Z 4291c8f5 f i dll.obj
 0001:0001b90f       ?GetEncodedElementSize@?$DL_GroupParameters_EC@VECP@CryptoPP@@@CryptoPP@@UBEI_N@Z 4291c90f f i dll.obj
 0001:0001b938       ?FieldElementLength@?$DL_GroupParameters_EC@VECP@CryptoPP@@@CryptoPP@@IBEIXZ 4291c938 f i dll.obj
 0001:0001b943       ?ExponentiateElement@?$DL_GroupParameters@UECPPoint@CryptoPP@@@CryptoPP@@UBE?AUECPPoint@2@ABU32@ABVInteger@2@@Z 4291c943 f i dll.obj
 0001:0001b9a6       ?GetMaxExponent@?$DL_GroupParameters_EC@VECP@CryptoPP@@@CryptoPP@@UBE?AVInteger@2@XZ 4291c9a6 f i dll.obj
 0001:0001b9a6       ?GetMaxExponent@?$DL_GroupParameters_EC@VEC2N@CryptoPP@@@CryptoPP@@UBE?AVInteger@2@XZ 4291c9a6 f i dll.obj
 0001:0001ba09       ?ExponentiateElement@?$DL_GroupParameters@UEC2NPoint@CryptoPP@@@CryptoPP@@UBE?AUEC2NPoint@2@ABU32@ABVInteger@2@@Z 4291ca09 f i dll.obj
 0001:0001ba6c       ?GetGroupOrder@?$DL_GroupParameters@UEC2NPoint@CryptoPP@@@CryptoPP@@UBE?AVInteger@2@XZ 4291ca6c f i dll.obj
 0001:0001ba6c       ?GetGroupOrder@?$DL_GroupParameters@UECPPoint@CryptoPP@@@CryptoPP@@UBE?AVInteger@2@XZ 4291ca6c f i dll.obj
 0001:0001bace       ?GetCofactor@?$DL_GroupParameters@UECPPoint@CryptoPP@@@CryptoPP@@UBE?AVInteger@2@XZ 4291cace f i dll.obj
 0001:0001bace       ?GetCofactor@?$DL_GroupParameters@UEC2NPoint@CryptoPP@@@CryptoPP@@UBE?AVInteger@2@XZ 4291cace f i dll.obj
 0001:0001bb34       ?DEREncodeAlgorithmParameters@?$DL_KeyImpl@VX509PublicKey@CryptoPP@@V?$DL_GroupParameters_EC@VECP@CryptoPP@@@2@VOID@2@@CryptoPP@@UBE_NAAVBufferedTransformation@2@@Z 4291cb34 f i dll.obj
 0001:0001bb45       ?CascadeExponentiateBaseAndPublicElement@?$DL_PublicKey@UEC2NPoint@CryptoPP@@@CryptoPP@@UBE?AUEC2NPoint@2@ABVInteger@2@0@Z 4291cb45 f i dll.obj
 0001:0001bb45       ?CascadeExponentiateBaseAndPublicElement@?$DL_PublicKey@UECPPoint@CryptoPP@@@CryptoPP@@UBE?AUECPPoint@2@ABVInteger@2@0@Z 4291cb45 f i dll.obj
 0001:0001bb45       ?CascadeExponentiateBaseAndPublicElement@?$DL_PublicKey@VInteger@CryptoPP@@@CryptoPP@@UBE?AVInteger@2@ABV32@0@Z 4291cb45 f i dh.obj
 0001:0001bb91       ?DEREncodeAlgorithmParameters@?$DL_KeyImpl@VX509PublicKey@CryptoPP@@V?$DL_GroupParameters_EC@VEC2N@CryptoPP@@@2@VOID@2@@CryptoPP@@UBE_NAAVBufferedTransformation@2@@Z 4291cb91 f i dll.obj
 0001:0001bba2       ?Validate@?$DL_PrivateKeyImpl@V?$DL_GroupParameters_EC@VECP@CryptoPP@@@CryptoPP@@@CryptoPP@@UBE_NAAVRandomNumberGenerator@2@I@Z 4291cba2 f i dll.obj
 0001:0001bc7a       ?MakePublicKey@?$DL_PrivateKey@UECPPoint@CryptoPP@@@CryptoPP@@QBEXAAV?$DL_PublicKey@UECPPoint@CryptoPP@@@2@@Z 4291cc7a f i dll.obj
 0001:0001bd06       ?DEREncodeAlgorithmParameters@?$DL_KeyImpl@VPKCS8PrivateKey@CryptoPP@@V?$DL_GroupParameters_EC@VECP@CryptoPP@@@2@VOID@2@@CryptoPP@@UBE_NAAVBufferedTransformation@2@@Z 4291cd06 f i dll.obj
 0001:0001bd17       ?Validate@?$DL_PrivateKeyImpl@V?$DL_GroupParameters_EC@VEC2N@CryptoPP@@@CryptoPP@@@CryptoPP@@UBE_NAAVRandomNumberGenerator@2@I@Z 4291cd17 f i dll.obj
 0001:0001bdef       ?MakePublicKey@?$DL_PrivateKey@UEC2NPoint@CryptoPP@@@CryptoPP@@QBEXAAV?$DL_PublicKey@UEC2NPoint@CryptoPP@@@2@@Z 4291cdef f i dll.obj
 0001:0001be7b       ?DEREncodeAlgorithmParameters@?$DL_KeyImpl@VPKCS8PrivateKey@CryptoPP@@V?$DL_GroupParameters_EC@VEC2N@CryptoPP@@@2@VOID@2@@CryptoPP@@UBE_NAAVBufferedTransformation@2@@Z 4291ce7b f i dll.obj
 0001:0001be8c       ?Verify@?$DL_Algorithm_GDSA@UECPPoint@CryptoPP@@@CryptoPP@@UBE_NABV?$DL_GroupParameters@UECPPoint@CryptoPP@@@2@ABV?$DL_PublicKey@UECPPoint@CryptoPP@@@2@ABVInteger@2@22@Z 4291ce8c f i dll.obj
 0001:0001c0b8       ?Verify@?$DL_Algorithm_GDSA@UEC2NPoint@CryptoPP@@@CryptoPP@@UBE_NABV?$DL_GroupParameters@UEC2NPoint@CryptoPP@@@2@ABV?$DL_PublicKey@UEC2NPoint@CryptoPP@@@2@ABVInteger@2@22@Z 4291d0b8 f i dll.obj
 0001:0001c2e4       ?back@?$deque@_KV?$allocator@_K@std@@@std@@QAEAA_KXZ 4291d2e4 f i dll.obj
 0001:0001c300       ?back@?$deque@IV?$allocator@I@std@@@std@@QAEAAIXZ 4291d300 f i dll.obj
 0001:0001c31c       ??_E?$SourceTemplate@VFileStore@CryptoPP@@@CryptoPP@@UAEPAXI@Z 4291d31c f i dll.obj
 0001:0001c369       ?erase@?$deque@_KV?$allocator@_K@std@@@std@@QAE?AViterator@12@V312@0@Z 4291d369 f i dll.obj
 0001:0001c412       ?_Tidy@?$deque@_KV?$allocator@_K@std@@@std@@IAEXXZ 4291d412 f i dll.obj
 0001:0001c412       ?_Tidy@?$deque@IV?$allocator@I@std@@@std@@IAEXXZ 4291d412 f i dll.obj
 0001:0001c464       ?erase@?$deque@IV?$allocator@I@std@@@std@@QAE?AViterator@12@V312@0@Z 4291d464 f i dll.obj
 0001:0001c50d       ?New@?$SecBlock@EV?$FixedSizeAllocatorWithCleanup@E$0KAA@V?$NullAllocator@E@CryptoPP@@$0A@@CryptoPP@@@CryptoPP@@QAEXI@Z 4291d50d f i dll.obj
 0001:0001c536       ?Subtract@?$AbstractGroup@VInteger@CryptoPP@@@CryptoPP@@UBEABVInteger@2@ABV32@0@Z 4291d536 f i dll.obj
 0001:0001c590       ?ScalarMultiply@?$AbstractGroup@VInteger@CryptoPP@@@CryptoPP@@UBE?AVInteger@2@ABV32@0@Z 4291d590 f i dll.obj
 0001:0001c5f9       ?Divide@?$AbstractRing@VInteger@CryptoPP@@@CryptoPP@@UBEABVInteger@2@ABV32@0@Z 4291d5f9 f i dll.obj
 0001:0001c653       ?Exponentiate@?$AbstractRing@VInteger@CryptoPP@@@CryptoPP@@UBE?AVInteger@2@ABV32@0@Z 4291d653 f i dll.obj
 0001:0001c6bc       ?Mod@?$AbstractEuclideanDomain@VInteger@CryptoPP@@@CryptoPP@@UBEABVInteger@2@ABV32@0@Z 4291d6bc f i dll.obj
 0001:0001c712       ?Gcd@?$AbstractEuclideanDomain@VInteger@CryptoPP@@@CryptoPP@@UBEABVInteger@2@ABV32@0@Z 4291d712 f i dll.obj
 0001:0001c826       ?Subtract@?$AbstractGroup@VPolynomialMod2@CryptoPP@@@CryptoPP@@UBEABVPolynomialMod2@2@ABV32@0@Z 4291d826 f i dll.obj
 0001:0001c880       ?ScalarMultiply@?$AbstractGroup@VPolynomialMod2@CryptoPP@@@CryptoPP@@UBE?AVPolynomialMod2@2@ABV32@ABVInteger@2@@Z 4291d880 f i dll.obj
 0001:0001c8e9       ?Divide@?$AbstractRing@VPolynomialMod2@CryptoPP@@@CryptoPP@@UBEABVPolynomialMod2@2@ABV32@0@Z 4291d8e9 f i dll.obj
 0001:0001c943       ?Exponentiate@?$AbstractRing@VPolynomialMod2@CryptoPP@@@CryptoPP@@UBE?AVPolynomialMod2@2@ABV32@ABVInteger@2@@Z 4291d943 f i dll.obj
 0001:0001c9ac       ?Mod@?$AbstractEuclideanDomain@VPolynomialMod2@CryptoPP@@@CryptoPP@@UBEABVPolynomialMod2@2@ABV32@0@Z 4291d9ac f i dll.obj
 0001:0001ca02       ?Gcd@?$AbstractEuclideanDomain@VPolynomialMod2@CryptoPP@@@CryptoPP@@UBEABVPolynomialMod2@2@ABV32@0@Z 4291da02 f i dll.obj
 0001:0001cb16       ?MultiplicativeInverse@?$QuotientRing@V?$EuclideanDomainOf@VPolynomialMod2@CryptoPP@@@CryptoPP@@@CryptoPP@@UBEABVPolynomialMod2@2@ABV32@@Z 4291db16 f i dll.obj
 0001:0001cd14       ?Subtract@?$AbstractGroup@UEC2NPoint@CryptoPP@@@CryptoPP@@UBEABUEC2NPoint@2@ABU32@0@Z 4291dd14 f i dll.obj
 0001:0001cd68       ?ScalarMultiply@?$AbstractGroup@UEC2NPoint@CryptoPP@@@CryptoPP@@UBE?AUEC2NPoint@2@ABU32@ABVInteger@2@@Z 4291dd68 f i dll.obj
 0001:0001cdcb       ?Subtract@?$AbstractGroup@UECPPoint@CryptoPP@@@CryptoPP@@UBEABUECPPoint@2@ABU32@0@Z 4291ddcb f i dll.obj
 0001:0001ce1f       ?ScalarMultiply@?$AbstractGroup@UECPPoint@CryptoPP@@@CryptoPP@@UBE?AUECPPoint@2@ABU32@ABVInteger@2@@Z 4291de1f f i dll.obj
 0001:0001ce82       ?GetCofactor@?$DL_GroupParameters_EC@VECP@CryptoPP@@@CryptoPP@@UBE?AVInteger@2@XZ 4291de82 f i dll.obj
 0001:0001d00e       ?ValidateGroup@?$DL_GroupParameters_EC@VECP@CryptoPP@@@CryptoPP@@UBE_NAAVRandomNumberGenerator@2@I@Z 4291e00e f i dll.obj
 0001:0001d327       ?ValidateElement@?$DL_GroupParameters_EC@VECP@CryptoPP@@@CryptoPP@@UBE_NIABUECPPoint@2@PBV?$DL_FixedBasePrecomputation@UECPPoint@CryptoPP@@@2@@Z 4291e327 f i dll.obj
 0001:0001d485       ?ConvertElementToInteger@?$DL_GroupParameters_EC@VECP@CryptoPP@@@CryptoPP@@UBE?AVInteger@2@ABUECPPoint@2@@Z 4291e485 f i dll.obj
 0001:0001d4a5       ?MultiplyElements@?$DL_GroupParameters_EC@VECP@CryptoPP@@@CryptoPP@@QBE?AUECPPoint@2@ABU32@0@Z 4291e4a5 f i dll.obj
 0001:0001d4cb       ?CascadeExponentiate@?$DL_GroupParameters_EC@VECP@CryptoPP@@@CryptoPP@@QBE?AUECPPoint@2@ABU32@ABVInteger@2@01@Z 4291e4cb f i dll.obj
 0001:0001d4f1       ?GetCofactor@?$DL_GroupParameters_EC@VEC2N@CryptoPP@@@CryptoPP@@UBE?AVInteger@2@XZ 4291e4f1 f i dll.obj
 0001:0001d67d       ?ValidateGroup@?$DL_GroupParameters_EC@VEC2N@CryptoPP@@@CryptoPP@@UBE_NAAVRandomNumberGenerator@2@I@Z 4291e67d f i dll.obj
 0001:0001d997       ?ValidateElement@?$DL_GroupParameters_EC@VEC2N@CryptoPP@@@CryptoPP@@UBE_NIABUEC2NPoint@2@PBV?$DL_FixedBasePrecomputation@UEC2NPoint@CryptoPP@@@2@@Z 4291e997 f i dll.obj
 0001:0001dae6       ?MultiplyElements@?$DL_GroupParameters_EC@VEC2N@CryptoPP@@@CryptoPP@@QBE?AUEC2NPoint@2@ABU32@0@Z 4291eae6 f i dll.obj
 0001:0001db0c       ?CascadeExponentiate@?$DL_GroupParameters_EC@VEC2N@CryptoPP@@@CryptoPP@@QBE?AUEC2NPoint@2@ABU32@ABVInteger@2@01@Z 4291eb0c f i dll.obj
 0001:0001db32       ??1?$BaseAndExponent@VInteger@CryptoPP@@V12@@CryptoPP@@QAE@XZ 4291eb32 f i dll.obj
 0001:0001db32       ??1WindowSlider@CryptoPP@@QAE@XZ 4291eb32 f i dll.obj
 0001:0001db74       ??1?$BaseAndExponent@UEC2NPoint@CryptoPP@@VInteger@2@@CryptoPP@@QAE@XZ 4291eb74 f i dll.obj
 0001:0001dbaf       ??1?$BaseAndExponent@UECPPoint@CryptoPP@@VInteger@2@@CryptoPP@@QAE@XZ 4291ebaf f i dll.obj
 0001:0001dbea       ??0?$BaseAndExponent@VInteger@CryptoPP@@V12@@CryptoPP@@QAE@ABVInteger@1@0@Z 4291ebea f i dll.obj
 0001:0001dc23       ??0?$BaseAndExponent@UEC2NPoint@CryptoPP@@VInteger@2@@CryptoPP@@QAE@ABUEC2NPoint@1@ABVInteger@1@@Z 4291ec23 f i dll.obj
 0001:0001dc5c       ??0?$BaseAndExponent@UECPPoint@CryptoPP@@VInteger@2@@CryptoPP@@QAE@ABUECPPoint@1@ABVInteger@1@@Z 4291ec5c f i dll.obj
 0001:0001dc95       ??0WindowSlider@CryptoPP@@QAE@ABU01@@Z 4291ec95 f i dll.obj
 0001:0001dcfc       ??0?$BaseAndExponent@VInteger@CryptoPP@@V12@@CryptoPP@@QAE@ABU01@@Z 4291ecfc f i dll.obj
 0001:0001dd39       ??0?$BaseAndExponent@UEC2NPoint@CryptoPP@@VInteger@2@@CryptoPP@@QAE@ABU01@@Z 4291ed39 f i dll.obj
 0001:0001dd76       ??0?$BaseAndExponent@UECPPoint@CryptoPP@@VInteger@2@@CryptoPP@@QAE@ABU01@@Z 4291ed76 f i dll.obj
 0001:0001ddb3       ??$GetValueWithDefault@VInteger@CryptoPP@@@NameValuePairs@CryptoPP@@QBE?AVInteger@1@PBDV21@@Z 4291edb3 f i dll.obj
 0001:0001de0d       ??$_Uninitialized_fill_n@PAVInteger@CryptoPP@@IV12@V?$allocator@VInteger@CryptoPP@@@std@@@std@@YAXPAVInteger@CryptoPP@@IABV12@AAV?$allocator@VInteger@CryptoPP@@@0@@Z 4291ee0d f i dll.obj
 0001:0001de2a       ??$_Lower_bound@PBU?$EcRecommendedParameters@VECP@CryptoPP@@@CryptoPP@@VOID@2@HUOIDLessThan@2@@std@@YAPBU?$EcRecommendedParameters@VECP@CryptoPP@@@CryptoPP@@PBU12@0ABVOID@2@UOIDLessThan@2@PAH@Z 4291ee2a f i dll.obj
 0001:0001de81       ??$_Upper_bound@PBU?$EcRecommendedParameters@VECP@CryptoPP@@@CryptoPP@@VOID@2@HUOIDLessThan@2@@std@@YAPBU?$EcRecommendedParameters@VECP@CryptoPP@@@CryptoPP@@PBU12@0ABVOID@2@UOIDLessThan@2@PAH@Z 4291ee81 f i dll.obj
 0001:0001ded8       ??$_Lower_bound@PBU?$EcRecommendedParameters@VEC2N@CryptoPP@@@CryptoPP@@VOID@2@HUOIDLessThan@2@@std@@YAPBU?$EcRecommendedParameters@VEC2N@CryptoPP@@@CryptoPP@@PBU12@0ABVOID@2@UOIDLessThan@2@PAH@Z 4291eed8 f i dll.obj
 0001:0001df2d       ??$_Upper_bound@PBU?$EcRecommendedParameters@VEC2N@CryptoPP@@@CryptoPP@@VOID@2@HUOIDLessThan@2@@std@@YAPBU?$EcRecommendedParameters@VEC2N@CryptoPP@@@CryptoPP@@PBU12@0ABVOID@2@UOIDLessThan@2@PAH@Z 4291ef2d f i dll.obj
 0001:0001df82       ??$Hack_DefaultValueFromConstReferenceType@UECPPoint@CryptoPP@@@CryptoPP@@YA?AUECPPoint@0@ABU10@@Z 4291ef82 f i dll.obj
 0001:0001df97       ??$Hack_DefaultValueFromConstReferenceType@UEC2NPoint@CryptoPP@@@CryptoPP@@YA?AUEC2NPoint@0@ABU10@@Z 4291ef97 f i dll.obj
 0001:0001dfac       ??$_Construct@UEC2NPoint@CryptoPP@@U12@@std@@YAXPAUEC2NPoint@CryptoPP@@ABU12@@Z 4291efac f i dll.obj
 0001:0001dfd9       ??$_Construct@UECPPoint@CryptoPP@@U12@@std@@YAXPAUECPPoint@CryptoPP@@ABU12@@Z 4291efd9 f i dll.obj
 0001:0001e006       ??$_Construct@UWindowSlider@CryptoPP@@U12@@std@@YAXPAUWindowSlider@CryptoPP@@ABU12@@Z 4291f006 f i dll.obj
 0001:0001e033       ??$_Construct@U?$BaseAndExponent@VInteger@CryptoPP@@V12@@CryptoPP@@U12@@std@@YAXPAU?$BaseAndExponent@VInteger@CryptoPP@@V12@@CryptoPP@@ABU12@@Z 4291f033 f i dll.obj
 0001:0001e060       ??$_Construct@U?$BaseAndExponent@UEC2NPoint@CryptoPP@@VInteger@2@@CryptoPP@@U12@@std@@YAXPAU?$BaseAndExponent@UEC2NPoint@CryptoPP@@VInteger@2@@CryptoPP@@ABU12@@Z 4291f060 f i dll.obj
 0001:0001e08d       ??$_Construct@U?$BaseAndExponent@UECPPoint@CryptoPP@@VInteger@2@@CryptoPP@@U12@@std@@YAXPAU?$BaseAndExponent@UECPPoint@CryptoPP@@VInteger@2@@CryptoPP@@ABU12@@Z 4291f08d f i dll.obj
 0001:0001e0ba       ??$_Push_heap@Viterator@?$vector@U?$BaseAndExponent@VInteger@CryptoPP@@V12@@CryptoPP@@V?$allocator@U?$BaseAndExponent@VInteger@CryptoPP@@V12@@CryptoPP@@@std@@@std@@HU?$BaseAndExponent@VInteger@CryptoPP@@V12@@CryptoPP@@@std@@YAXViterator@?$vector@U?$BaseAndExponent@VInteger@CryptoPP@@V12@@CryptoPP@@V?$allocator@U?$BaseAndExponent@VInteger@CryptoPP@@V12@@CryptoPP@@@std@@@0@HHU?$BaseAndExponent@VInteger@CryptoPP@@V12@@CryptoPP@@@Z 4291f0ba f i dll.obj
 0001:0001e142       ??$_Push_heap@Viterator@?$vector@U?$BaseAndExponent@UEC2NPoint@CryptoPP@@VInteger@2@@CryptoPP@@V?$allocator@U?$BaseAndExponent@UEC2NPoint@CryptoPP@@VInteger@2@@CryptoPP@@@std@@@std@@HU?$BaseAndExponent@UEC2NPoint@CryptoPP@@VInteger@2@@CryptoPP@@@std@@YAXViterator@?$vector@U?$BaseAndExponent@UEC2NPoint@CryptoPP@@VInteger@2@@CryptoPP@@V?$allocator@U?$BaseAndExponent@UEC2NPoint@CryptoPP@@VInteger@2@@CryptoPP@@@std@@@0@HHU?$BaseAndExponent@UEC2NPoint@CryptoPP@@VInteger@2@@CryptoPP@@@Z 4291f142 f i dll.obj
 0001:0001e1d1       ??$_Push_heap@Viterator@?$vector@U?$BaseAndExponent@UECPPoint@CryptoPP@@VInteger@2@@CryptoPP@@V?$allocator@U?$BaseAndExponent@UECPPoint@CryptoPP@@VInteger@2@@CryptoPP@@@std@@@std@@HU?$BaseAndExponent@UECPPoint@CryptoPP@@VInteger@2@@CryptoPP@@@std@@YAXViterator@?$vector@U?$BaseAndExponent@UECPPoint@CryptoPP@@VInteger@2@@CryptoPP@@V?$allocator@U?$BaseAndExponent@UECPPoint@CryptoPP@@VInteger@2@@CryptoPP@@@std@@@0@HHU?$BaseAndExponent@UECPPoint@CryptoPP@@VInteger@2@@CryptoPP@@@Z 4291f1d1 f i dll.obj
 0001:0001e25d       ??GPolynomialMod2@CryptoPP@@QBE?AV01@XZ 4291f25d f i dll.obj
 0001:0001e25d       ??HPolynomialMod2@CryptoPP@@QBE?AV01@XZ 4291f25d f i dll.obj
 0001:0001e275       ?Minus@PolynomialMod2@CryptoPP@@QBE?AV12@ABV12@@Z 4291f275 f i dll.obj
 0001:0001e275       ?Plus@PolynomialMod2@CryptoPP@@QBE?AV12@ABV12@@Z 4291f275 f i dll.obj
 0001:0001e28f       ?Doubled@PolynomialMod2@CryptoPP@@QBE?AV12@XZ 4291f28f f i dll.obj
 0001:0001e2ac       ?MultiplicativeInverse@PolynomialMod2@CryptoPP@@QBE?AV12@XZ 4291f2ac f i dll.obj
 0001:0001e2e5       ??GCryptoPP@@YA?AVPolynomialMod2@0@ABV10@0@Z 4291f2e5 f i dll.obj
 0001:0001e2e5       ??HCryptoPP@@YA?AVPolynomialMod2@0@ABV10@0@Z 4291f2e5 f i dll.obj
 0001:0001e300       ?Clone@GF2NP@CryptoPP@@UBEPAV12@XZ 4291f300 f i dll.obj
 0001:0001e337       ?Clone@GF2NT@CryptoPP@@UBEPAVGF2NP@2@XZ 4291f337 f i dll.obj
 0001:0001e36e       ?Clone@GF2NPP@CryptoPP@@UBEPAVGF2NP@2@XZ 4291f36e f i dll.obj
 0001:0001e3a5       ??_EHexEncoder@CryptoPP@@UAEPAXI@Z 4291f3a5 f i dll.obj
 0001:0001e3f2       ??_ERSAFunction@CryptoPP@@UAEPAXI@Z 4291f3f2 f i dll.obj
 0001:0001e43f       ?GetAlgorithmID@InvertibleRSAFunction@CryptoPP@@UBE?AVOID@2@XZ 4291f43f f i dll.obj
 0001:0001e456       ??_EInvertibleRSAFunction@CryptoPP@@UAEPAXI@Z 4291f456 f i dll.obj
 0001:0001e4a6       ?PreimageBound@RSAFunction_ISO@CryptoPP@@UBE?AVInteger@2@XZ 4291f4a6 f i dll.obj
 0001:0001e4a6       ?PreimageBound@InvertibleRSAFunction_ISO@CryptoPP@@UBE?AVInteger@2@XZ 4291f4a6 f i dll.obj
 0001:0001e502       ??_ERSAFunction_ISO@CryptoPP@@UAEPAXI@Z 4291f502 f i dll.obj
 0001:0001e54f       ??_EInvertibleRSAFunction_ISO@CryptoPP@@UAEPAXI@Z 4291f54f f i dll.obj
 0001:0001e59f       ?PreimageBound@RWFunction@CryptoPP@@UBE?AVInteger@2@XZ 4291f59f f i dll.obj
 0001:0001e5fb       ??_ERWFunction@CryptoPP@@UAEPAXI@Z 4291f5fb f i dll.obj
 0001:0001e648       ??_EInvertibleRWFunction@CryptoPP@@UAEPAXI@Z 4291f648 f i dll.obj
 0001:0001e695       ?Initialize@?$DL_PublicKey_GFP@VDL_GroupParameters_DSA@CryptoPP@@@CryptoPP@@QAEXABVInteger@2@00@Z 4291f695 f i dll.obj
 0001:0001e6b7       ?Initialize@?$DL_PrivateKey_GFP@VDL_GroupParameters_DSA@CryptoPP@@@CryptoPP@@QAEXABVInteger@2@00@Z 4291f6b7 f i dll.obj
 0001:0001e6d9       ?Add@?$EuclideanDomainOf@VPolynomialMod2@CryptoPP@@@CryptoPP@@UBEABVPolynomialMod2@2@ABV32@0@Z 4291f6d9 f i dll.obj
 0001:0001e6d9       ?Subtract@?$EuclideanDomainOf@VPolynomialMod2@CryptoPP@@@CryptoPP@@UBEABVPolynomialMod2@2@ABV32@0@Z 4291f6d9 f i dll.obj
 0001:0001e72d       ?Inverse@?$EuclideanDomainOf@VPolynomialMod2@CryptoPP@@@CryptoPP@@UBEABVPolynomialMod2@2@ABV32@@Z 4291f72d f i dll.obj
 0001:0001e77b       ?Double@?$EuclideanDomainOf@VPolynomialMod2@CryptoPP@@@CryptoPP@@UBEABVPolynomialMod2@2@ABV32@@Z 4291f77b f i dll.obj
 0001:0001e7c9       ?MultiplicativeInverse@?$EuclideanDomainOf@VPolynomialMod2@CryptoPP@@@CryptoPP@@UBEABVPolynomialMod2@2@ABV32@@Z 4291f7c9 f i dll.obj
 0001:0001e817       ?Sign@?$DL_Algorithm_GDSA@UECPPoint@CryptoPP@@@CryptoPP@@UBEXABV?$DL_GroupParameters@UECPPoint@CryptoPP@@@2@ABVInteger@2@11AAV42@2@Z 4291f817 f i dll.obj
 0001:0001e817       ?Sign@?$DL_Algorithm_GDSA@UEC2NPoint@CryptoPP@@@CryptoPP@@UBEXABV?$DL_GroupParameters@UEC2NPoint@CryptoPP@@@2@ABVInteger@2@11AAV42@2@Z 4291f817 f i dll.obj
 0001:0001e903       ??1?$deque@_KV?$allocator@_K@std@@@std@@QAE@XZ 4291f903 f i dll.obj
 0001:0001e908       ?erase@?$vector@VInteger@CryptoPP@@V?$allocator@VInteger@CryptoPP@@@std@@@std@@QAE?AViterator@12@V312@0@Z 4291f908 f i dll.obj
 0001:0001e942       ?_Ufill@?$vector@VInteger@CryptoPP@@V?$allocator@VInteger@CryptoPP@@@std@@@std@@IAEPAVInteger@CryptoPP@@PAV34@IABV34@@Z 4291f942 f i dll.obj
 0001:0001e966       ??$lower_bound@PBU?$EcRecommendedParameters@VECP@CryptoPP@@@CryptoPP@@VOID@2@UOIDLessThan@2@@std@@YAPBU?$EcRecommendedParameters@VECP@CryptoPP@@@CryptoPP@@PBU12@0ABVOID@2@UOIDLessThan@2@@Z 4291f966 f i dll.obj
 0001:0001e981       ??$upper_bound@PBU?$EcRecommendedParameters@VECP@CryptoPP@@@CryptoPP@@VOID@2@UOIDLessThan@2@@std@@YAPBU?$EcRecommendedParameters@VECP@CryptoPP@@@CryptoPP@@PBU12@0ABVOID@2@UOIDLessThan@2@@Z 4291f981 f i dll.obj
 0001:0001e99c       ??$lower_bound@PBU?$EcRecommendedParameters@VEC2N@CryptoPP@@@CryptoPP@@VOID@2@UOIDLessThan@2@@std@@YAPBU?$EcRecommendedParameters@VEC2N@CryptoPP@@@CryptoPP@@PBU12@0ABVOID@2@UOIDLessThan@2@@Z 4291f99c f i dll.obj
 0001:0001e9b7       ??$upper_bound@PBU?$EcRecommendedParameters@VEC2N@CryptoPP@@@CryptoPP@@VOID@2@UOIDLessThan@2@@std@@YAPBU?$EcRecommendedParameters@VEC2N@CryptoPP@@@CryptoPP@@PBU12@0ABVOID@2@UOIDLessThan@2@@Z 4291f9b7 f i dll.obj
 0001:0001e9d2       ??$_Push_heap_0@Viterator@?$vector@U?$BaseAndExponent@VInteger@CryptoPP@@V12@@CryptoPP@@V?$allocator@U?$BaseAndExponent@VInteger@CryptoPP@@V12@@CryptoPP@@@std@@@std@@HU?$BaseAndExponent@VInteger@CryptoPP@@V12@@CryptoPP@@@std@@YAXViterator@?$vector@U?$BaseAndExponent@VInteger@CryptoPP@@V12@@CryptoPP@@V?$allocator@U?$BaseAndExponent@VInteger@CryptoPP@@V12@@CryptoPP@@@std@@@0@0PAHPAU?$BaseAndExponent@VInteger@CryptoPP@@V12@@CryptoPP@@@Z 4291f9d2 f i dll.obj
 0001:0001ea0a       ??$_Push_heap_0@Viterator@?$vector@U?$BaseAndExponent@UEC2NPoint@CryptoPP@@VInteger@2@@CryptoPP@@V?$allocator@U?$BaseAndExponent@UEC2NPoint@CryptoPP@@VInteger@2@@CryptoPP@@@std@@@std@@HU?$BaseAndExponent@UEC2NPoint@CryptoPP@@VInteger@2@@CryptoPP@@@std@@YAXViterator@?$vector@U?$BaseAndExponent@UEC2NPoint@CryptoPP@@VInteger@2@@CryptoPP@@V?$allocator@U?$BaseAndExponent@UEC2NPoint@CryptoPP@@VInteger@2@@CryptoPP@@@std@@@0@0PAHPAU?$BaseAndExponent@UEC2NPoint@CryptoPP@@VInteger@2@@CryptoPP@@@Z 4291fa0a f i dll.obj
 0001:0001ea42       ??$_Push_heap_0@Viterator@?$vector@U?$BaseAndExponent@UECPPoint@CryptoPP@@VInteger@2@@CryptoPP@@V?$allocator@U?$BaseAndExponent@UECPPoint@CryptoPP@@VInteger@2@@CryptoPP@@@std@@@std@@HU?$BaseAndExponent@UECPPoint@CryptoPP@@VInteger@2@@CryptoPP@@@std@@YAXViterator@?$vector@U?$BaseAndExponent@UECPPoint@CryptoPP@@VInteger@2@@CryptoPP@@V?$allocator@U?$BaseAndExponent@UECPPoint@CryptoPP@@VInteger@2@@CryptoPP@@@std@@@0@0PAHPAU?$BaseAndExponent@UECPPoint@CryptoPP@@VInteger@2@@CryptoPP@@@Z 4291fa42 f i dll.obj
 0001:0001ea75       ??$_Adjust_heap@Viterator@?$vector@U?$BaseAndExponent@VInteger@CryptoPP@@V12@@CryptoPP@@V?$allocator@U?$BaseAndExponent@VInteger@CryptoPP@@V12@@CryptoPP@@@std@@@std@@HU?$BaseAndExponent@VInteger@CryptoPP@@V12@@CryptoPP@@@std@@YAXViterator@?$vector@U?$BaseAndExponent@VInteger@CryptoPP@@V12@@CryptoPP@@V?$allocator@U?$BaseAndExponent@VInteger@CryptoPP@@V12@@CryptoPP@@@std@@@0@HHU?$BaseAndExponent@VInteger@CryptoPP@@V12@@CryptoPP@@@Z 4291fa75 f i dll.obj
 0001:0001eb24       ??$_Pop_heap@Viterator@?$vector@U?$BaseAndExponent@VInteger@CryptoPP@@V12@@CryptoPP@@V?$allocator@U?$BaseAndExponent@VInteger@CryptoPP@@V12@@CryptoPP@@@std@@@std@@HU?$BaseAndExponent@VInteger@CryptoPP@@V12@@CryptoPP@@@std@@YAXViterator@?$vector@U?$BaseAndExponent@VInteger@CryptoPP@@V12@@CryptoPP@@V?$allocator@U?$BaseAndExponent@VInteger@CryptoPP@@V12@@CryptoPP@@@std@@@0@00U?$BaseAndExponent@VInteger@CryptoPP@@V12@@CryptoPP@@PAH@Z 4291fb24 f i dll.obj
 0001:0001eb81       ??$_Adjust_heap@Viterator@?$vector@U?$BaseAndExponent@UEC2NPoint@CryptoPP@@VInteger@2@@CryptoPP@@V?$allocator@U?$BaseAndExponent@UEC2NPoint@CryptoPP@@VInteger@2@@CryptoPP@@@std@@@std@@HU?$BaseAndExponent@UEC2NPoint@CryptoPP@@VInteger@2@@CryptoPP@@@std@@YAXViterator@?$vector@U?$BaseAndExponent@UEC2NPoint@CryptoPP@@VInteger@2@@CryptoPP@@V?$allocator@U?$BaseAndExponent@UEC2NPoint@CryptoPP@@VInteger@2@@CryptoPP@@@std@@@0@HHU?$BaseAndExponent@UEC2NPoint@CryptoPP@@VInteger@2@@CryptoPP@@@Z 4291fb81 f i dll.obj
 0001:0001ec37       ??$_Pop_heap@Viterator@?$vector@U?$BaseAndExponent@UEC2NPoint@CryptoPP@@VInteger@2@@CryptoPP@@V?$allocator@U?$BaseAndExponent@UEC2NPoint@CryptoPP@@VInteger@2@@CryptoPP@@@std@@@std@@HU?$BaseAndExponent@UEC2NPoint@CryptoPP@@VInteger@2@@CryptoPP@@@std@@YAXViterator@?$vector@U?$BaseAndExponent@UEC2NPoint@CryptoPP@@VInteger@2@@CryptoPP@@V?$allocator@U?$BaseAndExponent@UEC2NPoint@CryptoPP@@VInteger@2@@CryptoPP@@@std@@@0@00U?$BaseAndExponent@UEC2NPoint@CryptoPP@@VInteger@2@@CryptoPP@@PAH@Z 4291fc37 f i dll.obj
 0001:0001ec94       ??$_Adjust_heap@Viterator@?$vector@U?$BaseAndExponent@UECPPoint@CryptoPP@@VInteger@2@@CryptoPP@@V?$allocator@U?$BaseAndExponent@UECPPoint@CryptoPP@@VInteger@2@@CryptoPP@@@std@@@std@@HU?$BaseAndExponent@UECPPoint@CryptoPP@@VInteger@2@@CryptoPP@@@std@@YAXViterator@?$vector@U?$BaseAndExponent@UECPPoint@CryptoPP@@VInteger@2@@CryptoPP@@V?$allocator@U?$BaseAndExponent@UECPPoint@CryptoPP@@VInteger@2@@CryptoPP@@@std@@@0@HHU?$BaseAndExponent@UECPPoint@CryptoPP@@VInteger@2@@CryptoPP@@@Z 4291fc94 f i dll.obj
 0001:0001ed41       ??$_Pop_heap@Viterator@?$vector@U?$BaseAndExponent@UECPPoint@CryptoPP@@VInteger@2@@CryptoPP@@V?$allocator@U?$BaseAndExponent@UECPPoint@CryptoPP@@VInteger@2@@CryptoPP@@@std@@@std@@HU?$BaseAndExponent@UECPPoint@CryptoPP@@VInteger@2@@CryptoPP@@@std@@YAXViterator@?$vector@U?$BaseAndExponent@UECPPoint@CryptoPP@@VInteger@2@@CryptoPP@@V?$allocator@U?$BaseAndExponent@UECPPoint@CryptoPP@@VInteger@2@@CryptoPP@@@std@@@0@00U?$BaseAndExponent@UECPPoint@CryptoPP@@VInteger@2@@CryptoPP@@PAH@Z 4291fd41 f i dll.obj
 0001:0001ed9b       ??_EInvertibleRWFunction@CryptoPP@@WBM@AEPAXI@Z 4291fd9b f i dll.obj
 0001:0001eda3       ??_EInvertibleRWFunction@CryptoPP@@WGE@AEPAXI@Z 4291fda3 f i dll.obj
 0001:0001edab       ??_EInvertibleRSAFunction@CryptoPP@@W3AEPAXI@Z 4291fdab f i dll.obj
 0001:0001edb3       ??_EInvertibleRSAFunction@CryptoPP@@WDE@AEPAXI@Z 4291fdb3 f i dll.obj
 0001:0001edbb       ??_EInvertibleRSAFunction@CryptoPP@@WDI@AEPAXI@Z 4291fdbb f i dll.obj
 0001:0001edc3       ?GetAlgorithmID@InvertibleRSAFunction@CryptoPP@@WDE@BE?AVOID@2@XZ 4291fdc3 f i dll.obj
 0001:0001edcb       ??_EInvertibleRSAFunction@CryptoPP@@WOE@AEPAXI@Z 4291fdcb f i dll.obj
 0001:0001edd6       ??_ERSAFunction_ISO@CryptoPP@@W3AEPAXI@Z 4291fdd6 f i dll.obj
 0001:0001edde       ??_ERSAFunction_ISO@CryptoPP@@WDE@AEPAXI@Z 4291fdde f i dll.obj
 0001:0001ede6       ??_ERWFunction@CryptoPP@@WBM@AEPAXI@Z 4291fde6 f i dll.obj
 0001:0001edee       ??_EInvertibleRSAFunction_ISO@CryptoPP@@W3AEPAXI@Z 4291fdee f i dll.obj
 0001:0001edf6       ??_EInvertibleRSAFunction_ISO@CryptoPP@@WDE@AEPAXI@Z 4291fdf6 f i dll.obj
 0001:0001edfe       ??_EInvertibleRSAFunction_ISO@CryptoPP@@WDI@AEPAXI@Z 4291fdfe f i dll.obj
 0001:0001ee06       ??_EInvertibleRSAFunction_ISO@CryptoPP@@WOE@AEPAXI@Z 4291fe06 f i dll.obj
 0001:0001ee11       ??_ERSAFunction@CryptoPP@@W3AEPAXI@Z 4291fe11 f i dll.obj
 0001:0001ee19       ??_ERSAFunction@CryptoPP@@WDE@AEPAXI@Z 4291fe19 f i dll.obj
 0001:0001ee21       ??_EGCTR@GCM_Base@CryptoPP@@UAEPAXI@Z 4291fe21 f i dll.obj
 0001:0001ee6e       ??1GCM_Base@CryptoPP@@UAE@XZ 4291fe6e f i dll.obj
 0001:0001eeaa       ??1MessageQueue@CryptoPP@@UAE@XZ 4291feaa f i dll.obj
 0001:0001eeef       ??_EMessageQueue@CryptoPP@@UAEPAXI@Z 4291feef f i dll.obj
 0001:0001ef3c       ??1EqualityComparisonFilter@CryptoPP@@UAE@XZ 4291ff3c f i dll.obj
 0001:0001ef9d       ??_EEqualityComparisonFilter@CryptoPP@@UAEPAXI@Z 4291ff9d f i dll.obj
 0001:0001efed       ??0Base@SKIPJACK@CryptoPP@@QAE@XZ 4291ffed f i dll.obj
 0001:0001f00b       ??1Base@SKIPJACK@CryptoPP@@UAE@XZ 4292000b f i dll.obj
 0001:0001f020       ??0Enc@SKIPJACK@CryptoPP@@QAE@XZ 42920020 f i dll.obj
 0001:0001f020       ??0Dec@SKIPJACK@CryptoPP@@QAE@XZ 42920020 f i dll.obj
 0001:0001f02c       ??$push_heap@Viterator@?$vector@U?$BaseAndExponent@VInteger@CryptoPP@@V12@@CryptoPP@@V?$allocator@U?$BaseAndExponent@VInteger@CryptoPP@@V12@@CryptoPP@@@std@@@std@@@std@@YAXViterator@?$vector@U?$BaseAndExponent@VInteger@CryptoPP@@V12@@CryptoPP@@V?$allocator@U?$BaseAndExponent@VInteger@CryptoPP@@V12@@CryptoPP@@@std@@@0@0@Z 4292002c f i dll.obj
 0001:0001f04b       ??$push_heap@Viterator@?$vector@U?$BaseAndExponent@UEC2NPoint@CryptoPP@@VInteger@2@@CryptoPP@@V?$allocator@U?$BaseAndExponent@UEC2NPoint@CryptoPP@@VInteger@2@@CryptoPP@@@std@@@std@@@std@@YAXViterator@?$vector@U?$BaseAndExponent@UEC2NPoint@CryptoPP@@VInteger@2@@CryptoPP@@V?$allocator@U?$BaseAndExponent@UEC2NPoint@CryptoPP@@VInteger@2@@CryptoPP@@@std@@@0@0@Z 4292004b f i dll.obj
 0001:0001f06a       ??$push_heap@Viterator@?$vector@U?$BaseAndExponent@UECPPoint@CryptoPP@@VInteger@2@@CryptoPP@@V?$allocator@U?$BaseAndExponent@UECPPoint@CryptoPP@@VInteger@2@@CryptoPP@@@std@@@std@@@std@@YAXViterator@?$vector@U?$BaseAndExponent@UECPPoint@CryptoPP@@VInteger@2@@CryptoPP@@V?$allocator@U?$BaseAndExponent@UECPPoint@CryptoPP@@VInteger@2@@CryptoPP@@@std@@@0@0@Z 4292006a f i dll.obj
 0001:0001f089       ??$_Uninit_copy@PAUEC2NPoint@CryptoPP@@PAU12@V?$allocator@UEC2NPoint@CryptoPP@@@std@@@std@@YAPAUEC2NPoint@CryptoPP@@PAU12@00AAV?$allocator@UEC2NPoint@CryptoPP@@@0@U_Nonscalar_ptr_iterator_tag@0@@Z 42920089 f i dll.obj
 0001:0001f089       ??$_Uninit_copy@Vconst_iterator@?$vector@UEC2NPoint@CryptoPP@@V?$allocator@UEC2NPoint@CryptoPP@@@std@@@std@@PAUEC2NPoint@CryptoPP@@V?$allocator@UEC2NPoint@CryptoPP@@@3@@std@@YAPAUEC2NPoint@CryptoPP@@Vconst_iterator@?$vector@UEC2NPoint@CryptoPP@@V?$allocator@UEC2NPoint@CryptoPP@@@std@@@0@0PAU12@AAV?$allocator@UEC2NPoint@CryptoPP@@@0@U_Nonscalar_ptr_iterator_tag@0@@Z 42920089 f i dll.obj
 0001:0001f0f0       ??$_Uninit_copy@Vconst_iterator@?$vector@UECPPoint@CryptoPP@@V?$allocator@UECPPoint@CryptoPP@@@std@@@std@@PAUECPPoint@CryptoPP@@V?$allocator@UECPPoint@CryptoPP@@@3@@std@@YAPAUECPPoint@CryptoPP@@Vconst_iterator@?$vector@UECPPoint@CryptoPP@@V?$allocator@UECPPoint@CryptoPP@@@std@@@0@0PAU12@AAV?$allocator@UECPPoint@CryptoPP@@@0@U_Nonscalar_ptr_iterator_tag@0@@Z 429200f0 f i dll.obj
 0001:0001f0f0       ??$_Uninit_copy@PAUECPPoint@CryptoPP@@PAU12@V?$allocator@UECPPoint@CryptoPP@@@std@@@std@@YAPAUECPPoint@CryptoPP@@PAU12@00AAV?$allocator@UECPPoint@CryptoPP@@@0@U_Nonscalar_ptr_iterator_tag@0@@Z 429200f0 f i dll.obj
 0001:0001f157       ??$_Uninit_fill_n@PAUEC2NPoint@CryptoPP@@IU12@V?$allocator@UEC2NPoint@CryptoPP@@@std@@@std@@YAXPAUEC2NPoint@CryptoPP@@IABU12@AAV?$allocator@UEC2NPoint@CryptoPP@@@0@U_Nonscalar_ptr_iterator_tag@0@@Z 42920157 f i dll.obj
 0001:0001f1bb       ??$_Uninit_fill_n@PAUECPPoint@CryptoPP@@IU12@V?$allocator@UECPPoint@CryptoPP@@@std@@@std@@YAXPAUECPPoint@CryptoPP@@IABU12@AAV?$allocator@UECPPoint@CryptoPP@@@0@U_Nonscalar_ptr_iterator_tag@0@@Z 429201bb f i dll.obj
 0001:0001f21f       ??$_Make_heap@Viterator@?$vector@U?$BaseAndExponent@VInteger@CryptoPP@@V12@@CryptoPP@@V?$allocator@U?$BaseAndExponent@VInteger@CryptoPP@@V12@@CryptoPP@@@std@@@std@@HU?$BaseAndExponent@VInteger@CryptoPP@@V12@@CryptoPP@@@std@@YAXViterator@?$vector@U?$BaseAndExponent@VInteger@CryptoPP@@V12@@CryptoPP@@V?$allocator@U?$BaseAndExponent@VInteger@CryptoPP@@V12@@CryptoPP@@@std@@@0@0PAHPAU?$BaseAndExponent@VInteger@CryptoPP@@V12@@CryptoPP@@@Z 4292021f f i dll.obj
 0001:0001f26f       ??$_Pop_heap_0@Viterator@?$vector@U?$BaseAndExponent@VInteger@CryptoPP@@V12@@CryptoPP@@V?$allocator@U?$BaseAndExponent@VInteger@CryptoPP@@V12@@CryptoPP@@@std@@@std@@U?$BaseAndExponent@VInteger@CryptoPP@@V12@@CryptoPP@@@std@@YAXViterator@?$vector@U?$BaseAndExponent@VInteger@CryptoPP@@V12@@CryptoPP@@V?$allocator@U?$BaseAndExponent@VInteger@CryptoPP@@V12@@CryptoPP@@@std@@@0@0PAU?$BaseAndExponent@VInteger@CryptoPP@@V12@@CryptoPP@@@Z 4292026f f i dll.obj
 0001:0001f29c       ??$_Make_heap@Viterator@?$vector@U?$BaseAndExponent@UEC2NPoint@CryptoPP@@VInteger@2@@CryptoPP@@V?$allocator@U?$BaseAndExponent@UEC2NPoint@CryptoPP@@VInteger@2@@CryptoPP@@@std@@@std@@HU?$BaseAndExponent@UEC2NPoint@CryptoPP@@VInteger@2@@CryptoPP@@@std@@YAXViterator@?$vector@U?$BaseAndExponent@UEC2NPoint@CryptoPP@@VInteger@2@@CryptoPP@@V?$allocator@U?$BaseAndExponent@UEC2NPoint@CryptoPP@@VInteger@2@@CryptoPP@@@std@@@0@0PAHPAU?$BaseAndExponent@UEC2NPoint@CryptoPP@@VInteger@2@@CryptoPP@@@Z 4292029c f i dll.obj
